
simplified_tcp.elf:     file format elf32-littlenios2
simplified_tcp.elf
architecture: nios2:r1, flags 0x00000112:
EXEC_P, HAS_SYMS, D_PAGED
start address 0x01000224

Program Header:
    LOAD off    0x00001000 vaddr 0x01000000 paddr 0x01000000 align 2**12
         filesz 0x00000020 memsz 0x00000020 flags r-x
    LOAD off    0x00001020 vaddr 0x01000020 paddr 0x01000020 align 2**12
         filesz 0x0000d1dc memsz 0x0000d1dc flags r-x
    LOAD off    0x0000e1fc vaddr 0x0100d1fc paddr 0x0100d554 align 2**12
         filesz 0x00000358 memsz 0x00000358 flags rw-
    LOAD off    0x0000e8ac vaddr 0x0100d8ac paddr 0x0100d8ac align 2**12
         filesz 0x00000000 memsz 0x00000ff4 flags rw-
    LOAD off    0x0000f000 vaddr 0x02000000 paddr 0x0100e8a0 align 2**12
         filesz 0x00000080 memsz 0x00000080 flags rw-

Sections:
Idx Name          Size      VMA       LMA       File off  Algn
  0 .entry        00000020  01000000  01000000  00001000  2**5
                  CONTENTS, ALLOC, LOAD, READONLY, CODE
  1 .exceptions   00000204  01000020  01000020  00001020  2**2
                  CONTENTS, ALLOC, LOAD, READONLY, CODE
  2 .text         0000ab14  01000224  01000224  00001224  2**2
                  CONTENTS, ALLOC, LOAD, READONLY, CODE
  3 .rodata       000024c4  0100ad38  0100ad38  0000bd38  2**2
                  CONTENTS, ALLOC, LOAD, READONLY, DATA
  4 .rwdata       00000358  0100d1fc  0100d554  0000e1fc  2**2
                  CONTENTS, ALLOC, LOAD, DATA, SMALL_DATA
  5 .bss          00000ff4  0100d8ac  0100d8ac  0000e8ac  2**2
                  ALLOC, SMALL_DATA
  6 .new_sdram_controller_0 00000000  0100e8a0  0100e8a0  0000f080  2**0
                  CONTENTS
  7 .descriptor_memory 00000080  02000000  0100e8a0  0000f000  2**0
                  CONTENTS, ALLOC, LOAD, DATA
  8 .comment      0000002c  00000000  00000000  0000f080  2**0
                  CONTENTS, READONLY
  9 .debug_aranges 000008a0  00000000  00000000  0000f0b0  2**3
                  CONTENTS, READONLY, DEBUGGING
 10 .debug_info   000265f8  00000000  00000000  0000f950  2**0
                  CONTENTS, READONLY, DEBUGGING
 11 .debug_abbrev 00007eda  00000000  00000000  00035f48  2**0
                  CONTENTS, READONLY, DEBUGGING
 12 .debug_line   0000a7a8  00000000  00000000  0003de22  2**0
                  CONTENTS, READONLY, DEBUGGING
 13 .debug_frame  00001938  00000000  00000000  000485cc  2**2
                  CONTENTS, READONLY, DEBUGGING
 14 .debug_str    0000475c  00000000  00000000  00049f04  2**0
                  CONTENTS, READONLY, DEBUGGING
 15 .debug_loc    0000211b  00000000  00000000  0004e660  2**0
                  CONTENTS, READONLY, DEBUGGING
 16 .debug_alt_sim_info 00000040  00000000  00000000  0005077c  2**2
                  CONTENTS, READONLY, DEBUGGING
 17 .debug_ranges 000003b8  00000000  00000000  000507c0  2**3
                  CONTENTS, READONLY, DEBUGGING
 18 .thread_model 00000003  00000000  00000000  00053910  2**0
                  CONTENTS, READONLY
 19 .cpu          00000005  00000000  00000000  00053913  2**0
                  CONTENTS, READONLY
 20 .qsys         00000001  00000000  00000000  00053918  2**0
                  CONTENTS, READONLY
 21 .simulation_enabled 00000001  00000000  00000000  00053919  2**0
                  CONTENTS, READONLY
 22 .stderr_dev   00000009  00000000  00000000  0005391a  2**0
                  CONTENTS, READONLY
 23 .stdin_dev    00000009  00000000  00000000  00053923  2**0
                  CONTENTS, READONLY
 24 .stdout_dev   00000009  00000000  00000000  0005392c  2**0
                  CONTENTS, READONLY
 25 .sopc_system_name 0000000b  00000000  00000000  00053935  2**0
                  CONTENTS, READONLY
 26 .quartus_project_dir 0000004d  00000000  00000000  00053940  2**0
                  CONTENTS, READONLY
 27 .jdi          00004eb1  00000000  00000000  0005398d  2**0
                  CONTENTS, READONLY
SYMBOL TABLE:
01000000 l    d  .entry	00000000 .entry
01000020 l    d  .exceptions	00000000 .exceptions
01000224 l    d  .text	00000000 .text
0100ad38 l    d  .rodata	00000000 .rodata
0100d1fc l    d  .rwdata	00000000 .rwdata
0100d8ac l    d  .bss	00000000 .bss
0100e8a0 l    d  .new_sdram_controller_0	00000000 .new_sdram_controller_0
02000000 l    d  .descriptor_memory	00000000 .descriptor_memory
00000000 l    d  .comment	00000000 .comment
00000000 l    d  .debug_aranges	00000000 .debug_aranges
00000000 l    d  .debug_info	00000000 .debug_info
00000000 l    d  .debug_abbrev	00000000 .debug_abbrev
00000000 l    d  .debug_line	00000000 .debug_line
00000000 l    d  .debug_frame	00000000 .debug_frame
00000000 l    d  .debug_str	00000000 .debug_str
00000000 l    d  .debug_loc	00000000 .debug_loc
00000000 l    d  .debug_alt_sim_info	00000000 .debug_alt_sim_info
00000000 l    d  .debug_ranges	00000000 .debug_ranges
00000000 l    df *ABS*	00000000 D:/projects/prj_fpga_altera/prj_VE-10CL025/cl025_prj/projects/1gb_nios_ii_tcp/software/simplified_tcp_bsp/obj/HAL/src/crt0.o
0100025c l       .text	00000000 alt_after_alt_main
00000000 l    df *ABS*	00000000 alt_irq_handler.c
00000000 l    df *ABS*	00000000 alt_instruction_exception_entry.c
00000000 l    df *ABS*	00000000 main.c
00000000 l    df *ABS*	00000000 memcpy.c
00000000 l    df *ABS*	00000000 memset.c
00000000 l    df *ABS*	00000000 printf.c
00000000 l    df *ABS*	00000000 vfprintf.c
010026ac l     F .text	0000006c print_repeat
00000000 l    df *ABS*	00000000 fvwrite_small_dev.c
00000000 l    df *ABS*	00000000 impure.c
0100d1fc l     O .rwdata	000000e4 impure_data
00000000 l    df *ABS*	00000000 strlen.c
00000000 l    df *ABS*	00000000 writer.c
00000000 l    df *ABS*	00000000 int_errno.c
00000000 l    df *ABS*	00000000 lib2-divmod.c
00000000 l    df *ABS*	00000000 lib2-mul.c
00000000 l    df *ABS*	00000000 alt_dcache_flush_all.c
00000000 l    df *ABS*	00000000 alt_load.c
01002f5c l     F .text	00000068 alt_load_section
00000000 l    df *ABS*	00000000 alt_main.c
00000000 l    df *ABS*	00000000 alt_printf.c
00000000 l    df *ABS*	00000000 alt_putchar.c
00000000 l    df *ABS*	00000000 alt_write.c
01003320 l     F .text	0000003c alt_get_errno
00000000 l    df *ABS*	00000000 alt_sys_init.c
01003460 l     F .text	00000034 alt_dev_reg
0100d2e0 l     O .rwdata	0000002c jtag_uart
0100d30c l     O .rwdata	00000030 sgdma_rx
0100d33c l     O .rwdata	00000030 sgdma_tx
00000000 l    df *ABS*	00000000 altera_avalon_jtag_uart_fd.c
00000000 l    df *ABS*	00000000 altera_avalon_jtag_uart_read.c
00000000 l    df *ABS*	00000000 altera_avalon_jtag_uart_write.c
00000000 l    df *ABS*	00000000 altera_avalon_sgdma.c
01003784 l     F .text	0000003c alt_get_errno
010043b4 l     F .text	000000bc alt_avalon_sgdma_irq
00000000 l    df *ABS*	00000000 altera_avalon_timer_sc.c
01004518 l     F .text	00000078 alt_avalon_timer_sc_irq
00000000 l    df *ABS*	00000000 altera_avalon_tse.c
0100d8de l     O .bss	00000001 tse_system_count.4118
0100d8df l     O .bss	00000001 is_init.4200
00000000 l    df *ABS*	00000000 altera_avalon_tse_system_info.c
00000000 l    df *ABS*	00000000 alt_close.c
01009578 l     F .text	0000003c alt_get_errno
00000000 l    df *ABS*	00000000 alt_dcache_flush.c
00000000 l    df *ABS*	00000000 alt_dev.c
010096b8 l     F .text	0000002c alt_dev_null_write
00000000 l    df *ABS*	00000000 alt_dev_llist_insert.c
010096e4 l     F .text	0000003c alt_get_errno
00000000 l    df *ABS*	00000000 alt_do_ctors.c
00000000 l    df *ABS*	00000000 alt_do_dtors.c
00000000 l    df *ABS*	00000000 alt_errno.c
00000000 l    df *ABS*	00000000 alt_find_dev.c
00000000 l    df *ABS*	00000000 alt_icache_flush_all.c
00000000 l    df *ABS*	00000000 alt_iic.c
00000000 l    df *ABS*	00000000 alt_iic_isr_register.c
00000000 l    df *ABS*	00000000 alt_io_redirect.c
01009bc8 l     F .text	000000d4 alt_open_fd
00000000 l    df *ABS*	00000000 alt_irq_vars.c
00000000 l    df *ABS*	00000000 alt_open.c
01009d18 l     F .text	0000003c alt_get_errno
01009d54 l     F .text	000000dc alt_file_locked
00000000 l    df *ABS*	00000000 alt_release_fd.c
00000000 l    df *ABS*	00000000 alt_tick.c
00000000 l    df *ABS*	00000000 alt_usleep.c
00000000 l    df *ABS*	00000000 altera_nios2_gen2_irq.c
00000000 l    df *ABS*	00000000 alt_busy_sleep.c
00000000 l    df *ABS*	00000000 alt_find_file.c
00000000 l    df *ABS*	00000000 alt_get_fd.c
00000000 l    df *ABS*	00000000 atexit.c
00000000 l    df *ABS*	00000000 exit.c
00000000 l    df *ABS*	00000000 malloc.c
00000000 l    df *ABS*	00000000 memcmp.c
00000000 l    df *ABS*	00000000 nano-mallocr.c
00000000 l    df *ABS*	00000000 nano-mallocr.c
00000000 l    df *ABS*	00000000 putchar.c
00000000 l    df *ABS*	00000000 sbrkr.c
00000000 l    df *ABS*	00000000 strcpy.c
00000000 l    df *ABS*	00000000 __atexit.c
00000000 l    df *ABS*	00000000 __call_atexit.c
00000000 l    df *ABS*	00000000 putc.c
00000000 l    df *ABS*	00000000 alt_exit.c
00000000 l    df *ABS*	00000000 alt_malloc_lock.c
00000000 l    df *ABS*	00000000 alt_sbrk.c
0100d550 l     O .rwdata	00000004 heap_end
0100d8ec g     O .bss	00000004 alt_instruction_exception_handler
0100a8a0 g     F .text	0000001c putchar
0100573c g     F .text	000000cc alt_tse_get_mac_info
01003048 g     F .text	0000007c alt_main
0100a904 g     F .text	0000002c strcpy
010012f8 g     F .text	00001090 rx_ethernet_isr
0100e7a0 g     O .bss	00000100 alt_irq
01009314 g     F .text	000000f0 marvell_cfg_rgmii
0100d554 g       *ABS*	00000000 __flash_rwdata_start
01006950 g     F .text	000001d0 alt_tse_phy_print_profile
0100e8a0 g       *ABS*	00000000 __alt_heap_start
010090b4 g     F .text	00000098 marvell_phy_cfg
01002664 g     F .text	00000048 printf
010038e4 g     F .text	00000110 alt_avalon_sgdma_do_sync_transfer
0100947c g     F .text	0000005c PEF7071_config
0100ac64 g     F .text	00000024 __malloc_unlock
01005974 g     F .text	00000a78 getPHYSpeed
01003ffc g     F .text	000003b8 alt_avalon_sgdma_construct_descriptor_burst
0100d8bc g     O .bss	00000004 in
0100d8b9 g     O .bss	00000001 retr_count
01008324 g     F .text	000001c4 alt_tse_phy_set_adv_1000
0100d528 g     O .rwdata	00000001 max_mac_system
0100491c g     F .text	00000ab8 alt_tse_system_add_sys
0100a1d4 g     F .text	00000024 altera_nios2_gen2_irq_init
01000000 g     F .entry	0000000c __reset
01003b4c g     F .text	00000078 alt_avalon_sgdma_construct_stream_to_mem_desc_burst
01000020 g       *ABS*	00000000 __flash_exceptions_start
0100e4d4 g     O .bss	00000260 tse_mac_device
0100d8cc g     O .bss	00000004 errno
01008c04 g     F .text	000004b0 alt_tse_phy_set_common_speed
0100e760 g     O .bss	00000020 pmac_groups
0100d8d4 g     O .bss	00000004 alt_argv
01015514 g       *ABS*	00000000 _gp
0100a1a4 g     F .text	00000030 usleep
0100d394 g     O .rwdata	00000180 alt_fd_list
0100a898 g     F .text	00000008 _putchar_r
01009884 g     F .text	00000090 alt_find_dev
010025e0 g     F .text	00000028 memcpy
010046c4 g     F .text	00000054 tse_mac_setMIImode
010063ec g     F .text	00000048 alt_tse_phy_rd_mdio_addr
01009c9c g     F .text	0000007c alt_io_redirect
0100ad38 g       *ABS*	00000000 __DTOR_END__
0100a510 g     F .text	00000098 alt_exception_cause_generated_bad_addr
0100d8b4 g     O .bss	00000004 succ_rxed
01003c44 g     F .text	0000008c alt_avalon_sgdma_construct_mem_to_stream_desc_burst
01003604 g     F .text	000000ec altera_avalon_jtag_uart_read
0100a5dc g     F .text	00000010 malloc
01002628 g     F .text	0000003c _printf_r
01002e54 g     F .text	00000064 .hidden __udivsi3
0100d514 g     O .rwdata	00000004 tse
01002388 g     F .text	000001a8 create_pkt
010053d4 g     F .text	0000017c alt_tse_sys_enable_mdio_sharing
010056c0 g     F .text	0000007c alt_tse_get_mac_info_index
01003d7c g     F .text	0000005c alt_avalon_sgdma_stop
0100648c g     F .text	0000012c alt_tse_phy_wr_mdio_reg
0100a8bc g     F .text	00000048 _sbrk_r
01006b20 g     F .text	000006b0 alt_tse_mac_group_init
01009690 g     F .text	00000028 alt_dcache_flush
0100d53c g     O .rwdata	00000004 alt_max_fd
01006688 g     F .text	000002c8 alt_tse_phy_add_profile_default
01007d90 g     F .text	00000594 alt_tse_phy_get_cap
0100d518 g     O .rwdata	00000004 _global_impure_ptr
0100e8a0 g       *ABS*	00000000 __bss_end
01009ae4 g     F .text	000000e4 alt_iic_isr_register
010037c0 g     F .text	00000124 alt_avalon_sgdma_do_async_transfer
0100a09c g     F .text	00000108 alt_tick
02000060 g     O .descriptor_memory	00000020 rx_descriptor_end
01007c08 g     F .text	00000188 alt_tse_phy_check_link
01009230 g     F .text	000000e4 marvell_cfg_sgmii
01007a44 g     F .text	000001c4 alt_tse_phy_restart_an
01009a98 g     F .text	0000004c alt_ic_irq_enabled
0100e780 g     O .bss	00000020 pphy_profiles
0100a000 g     F .text	0000009c alt_alarm_stop
02000000 g       *ABS*	00000000 __alt_mem_descriptor_memory
0100d8e0 g     O .bss	00000004 alt_irq_active
0100dee6 g     O .bss	000005ee tx_frame
010000fc g     F .exceptions	000000c8 alt_irq_handler
0100d36c g     O .rwdata	00000028 alt_dev_null
01007938 g     F .text	0000010c alt_tse_phy_init
01003dd8 g     F .text	00000064 alt_avalon_sgdma_check_descriptor_status
01002530 g     F .text	000000b0 statistics_counter
01002f3c g     F .text	00000020 alt_dcache_flush_all
0100d8c0 g     O .bss	00000001 data_flag
02000040 g     O .descriptor_memory	00000020 rx_descriptor
0100d554 g       *ABS*	00000000 __ram_rwdata_end
0100d534 g     O .rwdata	00000008 alt_dev_list
0100335c g     F .text	00000104 write
01003f1c g     F .text	00000080 alt_avalon_sgdma_enable_desc_poll
0100abb8 g     F .text	00000054 _putc_r
0100d8b8 g     O .bss	00000001 flag_syn
0100d1fc g       *ABS*	00000000 __ram_rodata_end
01009404 g     F .text	00000078 DP83848C_link_status_read
01002eb8 g     F .text	0000005c .hidden __umodsi3
01003bc4 g     F .text	00000080 alt_avalon_sgdma_construct_mem_to_stream_desc
01003cd0 g     F .text	00000054 alt_avalon_sgdma_register_callback
0100e8a0 g       *ABS*	00000000 end
01004768 g     F .text	000001b4 alt_tse_phy_add_profile
010001c4 g     F .exceptions	00000060 alt_instruction_exception_entry
0100ad38 g       *ABS*	00000000 __CTOR_LIST__
02000000 g       *ABS*	00000000 __alt_stack_pointer
01003f9c g     F .text	00000060 alt_avalon_sgdma_disable_desc_poll
01004590 g     F .text	0000007c alt_avalon_timer_sc_init
010036f0 g     F .text	00000094 altera_avalon_jtag_uart_write
010039f4 g     F .text	00000074 alt_avalon_sgdma_construct_mem_to_mem_desc
0100d8b0 g     O .bss	00000004 pckt_rxed
01002718 g     F .text	00000518 ___vfprintf_internal_r
01003aec g     F .text	00000060 alt_avalon_sgdma_construct_stream_to_mem_desc
0100a62c g     F .text	00000108 _free_r
010030c4 g     F .text	0000022c alt_printf
0100aa4c g     F .text	0000011c __call_exitprocs
01000224 g     F .text	0000003c _start
0100d8e4 g     O .bss	00000004 _alt_tick_rate
0100d8c4 g     O .bss	00000004 sgdma_tx_dev
01003e3c g     F .text	00000054 alt_avalon_sgdma_open
0100d8e8 g     O .bss	00000004 _alt_nticks
010065b8 g     F .text	000000d0 alt_tse_phy_rd_mdio_reg
010034cc g     F .text	00000078 alt_sys_init
0100a930 g     F .text	0000011c __register_exitproc
0100d8dc g     O .bss	00000001 phy_profile_count
01005654 g     F .text	0000006c alt_tse_get_mac_group_index
01002f14 g     F .text	00000028 .hidden __mulsi3
0100d1fc g       *ABS*	00000000 __ram_rwdata_start
0100ad38 g       *ABS*	00000000 __ram_rodata_start
01006434 g     F .text	00000058 alt_tse_phy_wr_mdio_addr
01003544 g     F .text	00000060 altera_avalon_jtag_uart_read_fd
0100a458 g     F .text	000000b8 alt_get_fd
0100a1f8 g     F .text	00000158 alt_busy_sleep
010088e4 g     F .text	00000320 alt_tse_phy_get_common_speed
0100a5fc g     F .text	00000030 memcmp
0100e8a0 g       *ABS*	00000000 __alt_stack_base
0100d8dd g     O .bss	00000001 mac_group_count
010071d0 g     F .text	00000400 alt_tse_mac_get_phy
0100a350 g     F .text	00000108 alt_find_file
01009720 g     F .text	000000a4 alt_dev_llist_insert
0100ac40 g     F .text	00000024 __malloc_lock
0100ac88 g     F .text	000000b0 sbrk
01003d24 g     F .text	00000058 alt_avalon_sgdma_start
010058e8 g     F .text	0000008c alt_tse_mac_set_duplex
01002c48 g     F .text	000000a8 __sfvwrite_small_dev
0100d8ac g       *ABS*	00000000 __bss_start
01002608 g     F .text	00000020 memset
0100030c g     F .text	00000fec main
0100d8d8 g     O .bss	00000004 alt_envp
010035a4 g     F .text	00000060 altera_avalon_jtag_uart_write_fd
0100d520 g     O .rwdata	00000008 alt_sgdma_list
02000000 g       *ABS*	00000000 __alt_heap_limit
0100a734 g     F .text	00000164 _malloc_r
0100463c g     F .text	00000088 tse_mac_SwReset
0100d540 g     O .rwdata	00000004 alt_errno
02000000 g     O .descriptor_memory	00000020 tx_descriptor
0100d8f8 g     O .bss	000005ee rx_frame
0100ab68 g     F .text	00000050 putc
01002d5c g     F .text	00000080 .hidden __divsi3
01005590 g     F .text	00000048 alt_tse_mac_set_common_speed
0100ad38 g       *ABS*	00000000 __CTOR_END__
0100ad38 g       *ABS*	00000000 __flash_rodata_start
0100ad38 g       *ABS*	00000000 __DTOR_LIST__
01003494 g     F .text	00000038 alt_irq_init
01005550 g     F .text	00000040 alt_tse_mac_get_common_speed
01009f90 g     F .text	00000070 alt_release_fd
0100a5a8 g     F .text	00000014 atexit
01002d0c g     F .text	00000050 _write_r
010094d8 g     F .text	000000a0 PEF7071_link_status_read
0100d51c g     O .rwdata	00000004 _impure_ptr
0100d8d0 g     O .bss	00000004 alt_argc
01009824 g     F .text	00000060 _do_dtors
01000020 g       .exceptions	00000000 alt_irq_entry
0100e734 g     O .bss	0000002c TCP
0100d52c g     O .rwdata	00000008 alt_fs_list
0100d8ad g     O .bss	00000001 loss_flag
01000020 g       *ABS*	00000000 __ram_exceptions_start
0100d8ac g     O .bss	00000001 loss_count
01000000 g       *ABS*	00000000 __alt_mem_new_sdram_controller_0
0100873c g     F .text	000001a8 alt_tse_phy_set_adv_10
01009934 g     F .text	00000050 alt_ic_isr_register
0100d554 g       *ABS*	00000000 _edata
0100e8a0 g       *ABS*	00000000 _end
010075d0 g     F .text	00000240 alt_tse_mac_associate_phy
01000224 g       *ABS*	00000000 __ram_exceptions_end
01009a0c g     F .text	0000008c alt_ic_irq_disable
02000020 g     O .descriptor_memory	00000020 tx_descriptor_end
01003e90 g     F .text	0000008c alt_avalon_sgdma_construct_descriptor
0100a5bc g     F .text	00000020 exit
01002ddc g     F .text	00000078 .hidden __modsi3
01004718 g     F .text	00000050 tse_mac_setGMIImode
0100914c g     F .text	000000e4 marvell_cfg_gmii
02000000 g       *ABS*	00000000 __alt_data_end
01000020 g     F .exceptions	00000000 alt_exception
01007810 g     F .text	00000128 alt_tse_phy_cfg_pcs
0100d8c8 g     O .bss	00000004 sgdma_rx_dev
0100ac0c g     F .text	00000034 _exit
01002cf0 g     F .text	0000001c strlen
01009e30 g     F .text	00000160 open
010032f0 g     F .text	00000030 alt_putchar
0100d8f0 g     O .bss	00000004 __malloc_sbrk_start
01009914 g     F .text	00000020 alt_icache_flush_all
0100d544 g     O .rwdata	00000004 alt_priority_mask
0100d8f4 g     O .bss	00000004 __malloc_free_list
01009984 g     F .text	00000088 alt_ic_irq_enable
01000260 g     F .text	000000ac add_phy_to_profile
01002c30 g     F .text	00000018 __vfprintf_internal
01005808 g     F .text	000000e0 alt_tse_mac_set_speed
01003a68 g     F .text	00000084 alt_avalon_sgdma_construct_mem_to_mem_desc_burst
0100d548 g     O .rwdata	00000008 alt_alarm_list
010097c4 g     F .text	00000060 _do_ctors
010084e8 g     F .text	00000254 alt_tse_phy_set_adv_100
010095b4 g     F .text	000000dc close
01002fc4 g     F .text	00000084 alt_load
010055d8 g     F .text	0000007c alt_tse_get_system_index
01004470 g     F .text	000000a8 alt_avalon_sgdma_init
0100a5ec g     F .text	00000010 free
0100460c g     F .text	00000030 no_printf



Disassembly of section .entry:

01000000 <__reset>:
 * Jump to the _start entry point in the .text section if reset code
 * is allowed or if optimizing for RTL simulation.
 */
#if defined(ALT_ALLOW_CODE_AT_RESET) || defined(ALT_SIM_OPTIMIZE)
    /* Jump to the _start entry point in the .text section. */
    movhi r1, %hi(_start)
 1000000:	00404034 	movhi	at,256
    ori r1, r1, %lo(_start)
 1000004:	08408914 	ori	at,at,548
    jmp r1
 1000008:	0800683a 	jmp	at
	...

Disassembly of section .exceptions:

01000020 <alt_exception>:

#else /* ALT_EXCEPTION_STACK disabled */
        /* 
         * Reserve space on normal stack for registers about to be pushed.
         */
        addi  sp, sp, -76
 1000020:	deffed04 	addi	sp,sp,-76
         * documentation for details).
         *
         * Leave a gap in the stack frame at 4(sp) for the muldiv handler to
         * store zero into.
         */
        stw   ra,  0(sp)
 1000024:	dfc00015 	stw	ra,0(sp)
        stw   r1,   8(sp)
 1000028:	d8400215 	stw	at,8(sp)
        stw   r2,  12(sp)
 100002c:	d8800315 	stw	r2,12(sp)
        stw   r3,  16(sp)
 1000030:	d8c00415 	stw	r3,16(sp)
        stw   r4,  20(sp)
 1000034:	d9000515 	stw	r4,20(sp)
        stw   r5,  24(sp)
 1000038:	d9400615 	stw	r5,24(sp)
        stw   r6,  28(sp)
 100003c:	d9800715 	stw	r6,28(sp)
        stw   r7,  32(sp)
 1000040:	d9c00815 	stw	r7,32(sp)
        rdctl r5, estatus   /* Read early to avoid usage stall */
 1000044:	000b307a 	rdctl	r5,estatus
        stw   r8,  36(sp)
 1000048:	da000915 	stw	r8,36(sp)
        stw   r9,  40(sp)
 100004c:	da400a15 	stw	r9,40(sp)
        stw   r10, 44(sp)
 1000050:	da800b15 	stw	r10,44(sp)
        stw   r11, 48(sp)
 1000054:	dac00c15 	stw	r11,48(sp)
        stw   r12, 52(sp)
 1000058:	db000d15 	stw	r12,52(sp)
        stw   r13, 56(sp)
 100005c:	db400e15 	stw	r13,56(sp)
        stw   r14, 60(sp)
 1000060:	db800f15 	stw	r14,60(sp)
        stw   r15, 64(sp)
 1000064:	dbc01015 	stw	r15,64(sp)
        /*
         * ea-4 contains the address of the instruction being executed
         * when the exception occured. For interrupt exceptions, we will
         * will be re-issue the isntruction. Store it in 72(sp)
         */
        stw   r5,  68(sp)  /* estatus */
 1000068:	d9401115 	stw	r5,68(sp)
        addi  r15, ea, -4  /* instruction that caused exception */
 100006c:	ebffff04 	addi	r15,ea,-4
        stw   r15,  72(sp)
 1000070:	dbc01215 	stw	r15,72(sp)
#else
        /*
         * Test to see if the exception was a software exception or caused 
         * by an external interrupt, and vector accordingly.
         */
        rdctl r4, ipending
 1000074:	0009313a 	rdctl	r4,ipending
        andi  r2, r5, 1
 1000078:	2880004c 	andi	r2,r5,1
        beq   r2, zero, .Lnot_irq
 100007c:	10000326 	beq	r2,zero,100008c <alt_exception+0x6c>
        beq   r4, zero, .Lnot_irq
 1000080:	20000226 	beq	r4,zero,100008c <alt_exception+0x6c>
        /*
         * Now that all necessary registers have been preserved, call 
         * alt_irq_handler() to process the interrupts.
         */

        call alt_irq_handler
 1000084:	10000fc0 	call	10000fc <alt_irq_handler>

        .section .exceptions.irqreturn, "xa"

        br    .Lexception_exit
 1000088:	00000706 	br	10000a8 <alt_exception+0x88>
         * upon completion, so we write ea (address of instruction *after*
         * the one where the exception occured) into 72(sp). The actual
         * instruction that caused the exception is written in r2, which these
         * handlers will utilize.
         */
        stw ea, 72(sp) /* EA is PC+4 so will skip over instruction causing exception */
 100008c:	df401215 	stw	ea,72(sp)
.Lunknown_16bit:
        addi.n r4, r4, 2 /* Need PC+2 to skip over instruction causing exception */
        stw r4, 72(sp)

#else /* CDX is not Enabled and all instructions are 32bits */
        ldw r2, -4(ea) /* Instruction value that caused exception */
 1000090:	e8bfff17 	ldw	r2,-4(ea)
         * debugger is present) or go into an infinite loop since the
         * handling behavior is undefined; in that case we will not return here.
         */

        /* Load exception-causing address as first argument (r4) */
        addi   r4, ea, -4
 1000094:	e93fff04 	addi	r4,ea,-4

        /* Call the instruction-exception entry */
        call   alt_instruction_exception_entry
 1000098:	10001c40 	call	10001c4 <alt_instruction_exception_entry>
         * instruction
         *
         * Return code was 0: Skip. The instruction after the exception is
         * already stored in 72(sp).
         */
        bne   r2, r0, .Lexception_exit
 100009c:	1000021e 	bne	r2,zero,10000a8 <alt_exception+0x88>

        /*
         * Otherwise, modify 72(sp) to re-issue the instruction that caused the
         * exception.
         */
        addi  r15, ea, -4  /* instruction that caused exception */
 10000a0:	ebffff04 	addi	r15,ea,-4
        stw   r15,  72(sp)
 10000a4:	dbc01215 	stw	r15,72(sp)
        /* 
         * Restore the saved registers, so that all general purpose registers 
         * have been restored to their state at the time the interrupt occured.
         */

        ldw   r5,  68(sp)
 10000a8:	d9401117 	ldw	r5,68(sp)
        ldw   ea,  72(sp)  /* This becomes the PC once eret is executed */
 10000ac:	df401217 	ldw	ea,72(sp)
        ldw   ra,   0(sp)
 10000b0:	dfc00017 	ldw	ra,0(sp)

        wrctl estatus, r5
 10000b4:	2801707a 	wrctl	estatus,r5

        ldw   r1,   8(sp)
 10000b8:	d8400217 	ldw	at,8(sp)
        ldw   r2,  12(sp)
 10000bc:	d8800317 	ldw	r2,12(sp)
        ldw   r3,  16(sp)
 10000c0:	d8c00417 	ldw	r3,16(sp)
        ldw   r4,  20(sp)
 10000c4:	d9000517 	ldw	r4,20(sp)
        ldw   r5,  24(sp)
 10000c8:	d9400617 	ldw	r5,24(sp)
        ldw   r6,  28(sp)
 10000cc:	d9800717 	ldw	r6,28(sp)
        ldw   r7,  32(sp)
 10000d0:	d9c00817 	ldw	r7,32(sp)

#if defined(ALT_EXCEPTION_STACK) && defined(ALT_STACK_CHECK)
        ldw   et, %gprel(alt_exception_old_stack_limit)(gp)
#endif

        ldw   r8,  36(sp)
 10000d4:	da000917 	ldw	r8,36(sp)
        ldw   r9,  40(sp)
 10000d8:	da400a17 	ldw	r9,40(sp)
        ldw   r10, 44(sp)
 10000dc:	da800b17 	ldw	r10,44(sp)
        ldw   r11, 48(sp)
 10000e0:	dac00c17 	ldw	r11,48(sp)
        ldw   r12, 52(sp)
 10000e4:	db000d17 	ldw	r12,52(sp)
        ldw   r13, 56(sp)
 10000e8:	db400e17 	ldw	r13,56(sp)
        ldw   r14, 60(sp)
 10000ec:	db800f17 	ldw	r14,60(sp)
        ldw   r15, 64(sp)
 10000f0:	dbc01017 	ldw	r15,64(sp)
        stw   et, %gprel(alt_stack_limit_value)(gp)
        stw   zero, %gprel(alt_exception_old_stack_limit)(gp)
#endif /* ALT_STACK_CHECK */
        ldw   sp,  76(sp)
#else /* ALT_EXCEPTION_STACK disabled */
        addi  sp, sp, 76
 10000f4:	dec01304 	addi	sp,sp,76

        /*
         * Return to the interrupted instruction.
         */

        eret
 10000f8:	ef80083a 	eret

010000fc <alt_irq_handler>:
 * instruction is present if the macro ALT_CI_INTERRUPT_VECTOR defined.
 */

void alt_irq_handler (void) __attribute__ ((section (".exceptions")));
void alt_irq_handler (void)
{
 10000fc:	defff904 	addi	sp,sp,-28
 1000100:	dfc00615 	stw	ra,24(sp)
 1000104:	df000515 	stw	fp,20(sp)
 1000108:	df000504 	addi	fp,sp,20
  
  /*
   * Notify the operating system that we are at interrupt level.
   */ 
  
  ALT_OS_INT_ENTER();
 100010c:	0001883a 	nop
#ifndef NIOS2_EIC_PRESENT
static ALT_INLINE alt_u32 ALT_ALWAYS_INLINE alt_irq_pending (void)
{
  alt_u32 active;

  NIOS2_READ_IPENDING (active);
 1000110:	0005313a 	rdctl	r2,ipending
 1000114:	e0bffc15 	stw	r2,-16(fp)

  return active;
 1000118:	e0bffc17 	ldw	r2,-16(fp)
   * Consider the case where the high priority interupt is asserted during
   * the interrupt entry sequence for a lower priority interrupt to see why
   * this is the case.
   */

  active = alt_irq_pending ();
 100011c:	e0bfff15 	stw	r2,-4(fp)

  do
  {
    i = 0;
 1000120:	e03ffd15 	stw	zero,-12(fp)
    mask = 1;
 1000124:	00800044 	movi	r2,1
 1000128:	e0bffe15 	stw	r2,-8(fp)
     * called to clear the interrupt condition.
     */

    do
    {
      if (active & mask)
 100012c:	e0ffff17 	ldw	r3,-4(fp)
 1000130:	e0bffe17 	ldw	r2,-8(fp)
 1000134:	1884703a 	and	r2,r3,r2
 1000138:	10001126 	beq	r2,zero,1000180 <alt_irq_handler+0x84>
      { 
#ifdef ALT_ENHANCED_INTERRUPT_API_PRESENT
        alt_irq[i].handler(alt_irq[i].context); 
 100013c:	e0bffd17 	ldw	r2,-12(fp)
 1000140:	100690fa 	slli	r3,r2,3
 1000144:	00804074 	movhi	r2,257
 1000148:	1885883a 	add	r2,r3,r2
 100014c:	10f9e817 	ldw	r3,-6240(r2)
 1000150:	e0bffd17 	ldw	r2,-12(fp)
 1000154:	100890fa 	slli	r4,r2,3
 1000158:	00804074 	movhi	r2,257
 100015c:	2085883a 	add	r2,r4,r2
 1000160:	10b9e917 	ldw	r2,-6236(r2)
 1000164:	1009883a 	mov	r4,r2
 1000168:	183ee83a 	callr	r3
#else
        alt_irq[i].handler(alt_irq[i].context, i); 
#endif
        break;
 100016c:	0001883a 	nop
  NIOS2_READ_IPENDING (active);
 1000170:	0005313a 	rdctl	r2,ipending
 1000174:	e0bffb15 	stw	r2,-20(fp)
  return active;
 1000178:	e0bffb17 	ldw	r2,-20(fp)
 100017c:	00000706 	br	100019c <alt_irq_handler+0xa0>
      }
      mask <<= 1;
 1000180:	e0bffe17 	ldw	r2,-8(fp)
 1000184:	1085883a 	add	r2,r2,r2
 1000188:	e0bffe15 	stw	r2,-8(fp)
      i++;
 100018c:	e0bffd17 	ldw	r2,-12(fp)
 1000190:	10800044 	addi	r2,r2,1
 1000194:	e0bffd15 	stw	r2,-12(fp)
      if (active & mask)
 1000198:	003fe406 	br	100012c <alt_irq_handler+0x30>

    } while (1);

    active = alt_irq_pending ();
 100019c:	e0bfff15 	stw	r2,-4(fp)
    
  } while (active);
 10001a0:	e0bfff17 	ldw	r2,-4(fp)
 10001a4:	103fde1e 	bne	r2,zero,1000120 <alt_irq_handler+0x24>

  /*
   * Notify the operating system that interrupt processing is complete.
   */ 

  ALT_OS_INT_EXIT();
 10001a8:	0001883a 	nop
}
 10001ac:	0001883a 	nop
 10001b0:	e037883a 	mov	sp,fp
 10001b4:	dfc00117 	ldw	ra,4(sp)
 10001b8:	df000017 	ldw	fp,0(sp)
 10001bc:	dec00204 	addi	sp,sp,8
 10001c0:	f800283a 	ret

010001c4 <alt_instruction_exception_entry>:
 * that handler if it has been registered. Absent a handler, it will
 * break break or hang as discussed below.
 */
int 
alt_instruction_exception_entry (alt_u32 exception_pc)
{
 10001c4:	defffb04 	addi	sp,sp,-20
 10001c8:	dfc00415 	stw	ra,16(sp)
 10001cc:	df000315 	stw	fp,12(sp)
 10001d0:	df000304 	addi	fp,sp,12
 10001d4:	e13ffd15 	stw	r4,-12(fp)
  cause = ( (cause & NIOS2_EXCEPTION_REG_CAUSE_MASK) >>
              NIOS2_EXCEPTION_REG_CAUSE_OFST );

  NIOS2_READ_BADADDR(badaddr);
#else
  cause = NIOS2_EXCEPTION_CAUSE_NOT_PRESENT;
 10001d8:	00bfffc4 	movi	r2,-1
 10001dc:	e0bfff15 	stw	r2,-4(fp)
  badaddr = 0;
 10001e0:	e03ffe15 	stw	zero,-8(fp)
#endif /* NIOS2_HAS_EXTRA_EXCEPTION_INFO */

  if(alt_instruction_exception_handler) {
 10001e4:	d0a0f617 	ldw	r2,-31784(gp)
 10001e8:	10000726 	beq	r2,zero,1000208 <alt_instruction_exception_entry+0x44>
     * Call handler. Its return value indicates whether the exception-causing
     * instruction should be re-issued. The code that called us,
     * alt_eceptions_entry.S, will look at this value and adjust the ea
     * register as necessary
     */
    return alt_instruction_exception_handler(cause, exception_pc, badaddr);
 10001ec:	d0a0f617 	ldw	r2,-31784(gp)
 10001f0:	e0ffff17 	ldw	r3,-4(fp)
 10001f4:	e1bffe17 	ldw	r6,-8(fp)
 10001f8:	e17ffd17 	ldw	r5,-12(fp)
 10001fc:	1809883a 	mov	r4,r3
 1000200:	103ee83a 	callr	r2
 1000204:	00000206 	br	1000210 <alt_instruction_exception_entry+0x4c>
   *    (a peripheral which negates its interrupt output before its
   *    interrupt handler has been executed will cause spurious interrupts)
   */
  else {
#ifdef NIOS2_HAS_DEBUG_STUB
    NIOS2_BREAK();
 1000208:	003da03a 	break	0
      ;
#endif /* NIOS2_HAS_DEBUG_STUB */
  }

  /* We should not get here. Remove compiler warning. */
  return NIOS2_EXCEPTION_RETURN_REISSUE_INST;
 100020c:	0005883a 	mov	r2,zero
}
 1000210:	e037883a 	mov	sp,fp
 1000214:	dfc00117 	ldw	ra,4(sp)
 1000218:	df000017 	ldw	fp,0(sp)
 100021c:	dec00204 	addi	sp,sp,8
 1000220:	f800283a 	ret

Disassembly of section .text:

01000224 <_start>:

    /*
     * Now that the caches are initialized, set up the stack pointer and global pointer.
     * The values provided by the linker are assumed to be correctly aligned.
     */
    movhi sp, %hi(__alt_stack_pointer)
 1000224:	06c08034 	movhi	sp,512
    ori sp, sp, %lo(__alt_stack_pointer)
 1000228:	dec00014 	ori	sp,sp,0
    movhi gp, %hi(_gp)
 100022c:	06804074 	movhi	gp,257
    ori gp, gp, %lo(_gp)
 1000230:	d6954514 	ori	gp,gp,21780
 */
#ifndef ALT_SIM_OPTIMIZE
    /* Log that the BSS is about to be cleared. */
    ALT_LOG_PUTS(alt_log_msg_bss)

    movhi r2, %hi(__bss_start)
 1000234:	00804034 	movhi	r2,256
    ori r2, r2, %lo(__bss_start)
 1000238:	10b62b14 	ori	r2,r2,55468

    movhi r3, %hi(__bss_end)
 100023c:	00c04034 	movhi	r3,256
    ori r3, r3, %lo(__bss_end)
 1000240:	18fa2814 	ori	r3,r3,59552

    beq r2, r3, 1f
 1000244:	10c00326 	beq	r2,r3,1000254 <_start+0x30>

0:
    stw zero, (r2)
 1000248:	10000015 	stw	zero,0(r2)
    addi r2, r2, 4
 100024c:	10800104 	addi	r2,r2,4
    bltu r2, r3, 0b
 1000250:	10fffd36 	bltu	r2,r3,1000248 <_start+0x24>
     * section aren't defined until alt_load() has been called).
     */
    mov   et, zero
#endif

    call alt_load
 1000254:	1002fc40 	call	1002fc4 <alt_load>

    /* Log that alt_main is about to be called. */
    ALT_LOG_PUTS(alt_log_msg_alt_main)

    /* Call the C entry point. It should never return. */
    call alt_main
 1000258:	10030480 	call	1003048 <alt_main>

0100025c <alt_after_alt_main>:

    /* Wait in infinite loop in case alt_main does return. */
alt_after_alt_main:
    br alt_after_alt_main
 100025c:	003fff06 	br	100025c <alt_after_alt_main>

01000260 <add_phy_to_profile>:
void statistics_counter();
void rx_ethernet_isr (void *context);
void create_pkt();

void add_phy_to_profile()
{
 1000260:	deffe504 	addi	sp,sp,-108
 1000264:	dfc01a15 	stw	ra,104(sp)
 1000268:	df001915 	stw	fp,100(sp)
 100026c:	df001904 	addi	fp,sp,100
KSZ9031_OUI = 0x10A1,
KSZ9031_MODEL = 0x22,
KSZ9031_REV = 0x02
};

alt_tse_phy_profile KSZ9031 = {
 1000270:	e0bfe704 	addi	r2,fp,-100
 1000274:	00c01904 	movi	r3,100
 1000278:	180d883a 	mov	r6,r3
 100027c:	000b883a 	mov	r5,zero
 1000280:	1009883a 	mov	r4,r2
 1000284:	10026080 	call	1002608 <memset>
 1000288:	008e56b4 	movhi	r2,14682
 100028c:	1094d2c4 	addi	r2,r2,21323
 1000290:	e0bfe715 	stw	r2,-100(fp)
 1000294:	00800c74 	movhi	r2,49
 1000298:	108ccc04 	addi	r2,r2,13104
 100029c:	e0bfe815 	stw	r2,-96(fp)
 10002a0:	e0bfe904 	addi	r2,fp,-92
 10002a4:	00c01204 	movi	r3,72
 10002a8:	180d883a 	mov	r6,r3
 10002ac:	000b883a 	mov	r5,zero
 10002b0:	1009883a 	mov	r4,r2
 10002b4:	10026080 	call	1002608 <memset>
 10002b8:	00842844 	movi	r2,4257
 10002bc:	e0bffb15 	stw	r2,-20(fp)
 10002c0:	00800884 	movi	r2,34
 10002c4:	e0bffc05 	stb	r2,-16(fp)
 10002c8:	00800084 	movi	r2,2
 10002cc:	e0bffc45 	stb	r2,-15(fp)
 10002d0:	008007c4 	movi	r2,31
 10002d4:	e0bffc85 	stb	r2,-14(fp)
 10002d8:	00800144 	movi	r2,5
 10002dc:	e0bffcc5 	stb	r2,-13(fp)
 10002e0:	008000c4 	movi	r2,3
 10002e4:	e0bffd05 	stb	r2,-12(fp)
            /*&KSZ9031_phy_cfg,*/           /* function pointer to configure Micrel KSZ8893M                */
            /*&KSZ9031_link_status_read*/   /* Function pointer to read from PHY specific status register   */
            };

/* add supported PHY to profile */
alt_tse_phy_add_profile(&KSZ9031);
 10002e8:	e0bfe704 	addi	r2,fp,-100
 10002ec:	1009883a 	mov	r4,r2
 10002f0:	10047680 	call	1004768 <alt_tse_phy_add_profile>
}
 10002f4:	0001883a 	nop
 10002f8:	e037883a 	mov	sp,fp
 10002fc:	dfc00117 	ldw	ra,4(sp)
 1000300:	df000017 	ldw	fp,0(sp)
 1000304:	dec00204 	addi	sp,sp,8
 1000308:	f800283a 	ret

0100030c <main>:
/********************* Triple-sp **********************************************/
volatile int *tse = (int *)TSE_BASE;

/******* MAIN BLOCK STARTS HERE ********************************/

int main(void){
 100030c:	deffb804 	addi	sp,sp,-288
 1000310:	dfc04715 	stw	ra,284(sp)
 1000314:	df004615 	stw	fp,280(sp)
 1000318:	ddc04515 	stw	r23,276(sp)
 100031c:	dd804415 	stw	r22,272(sp)
 1000320:	dd404315 	stw	r21,268(sp)
 1000324:	dd004215 	stw	r20,264(sp)
 1000328:	dcc04115 	stw	r19,260(sp)
 100032c:	dc804015 	stw	r18,256(sp)
 1000330:	dc403f15 	stw	r17,252(sp)
 1000334:	dc003e15 	stw	r16,248(sp)
 1000338:	df004604 	addi	fp,sp,280
	loss_flag=0;
 100033c:	d020e645 	stb	zero,-31847(gp)
	loss_count=0;
 1000340:	d020e605 	stb	zero,-31848(gp)

/**** Initializing timer status and control values *************/
	IOWR_ALTERA_AVALON_TIMER_CONTROL(TIMER_0_BASE, 0x0000);
 1000344:	0007883a 	mov	r3,zero
 1000348:	00808034 	movhi	r2,512
 100034c:	10cd2135 	stwio	r3,13444(r2)
	IOWR_ALTERA_AVALON_TIMER_STATUS(TIMER_0_BASE, 0x0000);
 1000350:	0007883a 	mov	r3,zero
 1000354:	00808034 	movhi	r2,512
 1000358:	10cd2035 	stwio	r3,13440(r2)

/****** copying TCP header values to structure ****************************/
	memmove(&TCP[0].dest_mac,"\x60\xe3\x27\x04\xd5\xe2",6);
 100035c:	00c01804 	movi	r3,96
 1000360:	00804074 	movhi	r2,257
 1000364:	10f9cd45 	stb	r3,-6347(r2)
 1000368:	00fff8c4 	movi	r3,-29
 100036c:	00804074 	movhi	r2,257
 1000370:	10f9cd85 	stb	r3,-6346(r2)
 1000374:	00c009c4 	movi	r3,39
 1000378:	00804074 	movhi	r2,257
 100037c:	10f9cdc5 	stb	r3,-6345(r2)
 1000380:	00c00104 	movi	r3,4
 1000384:	00804074 	movhi	r2,257
 1000388:	10f9ce05 	stb	r3,-6344(r2)
 100038c:	00fff544 	movi	r3,-43
 1000390:	00804074 	movhi	r2,257
 1000394:	10f9ce45 	stb	r3,-6343(r2)
 1000398:	00fff884 	movi	r3,-30
 100039c:	00804074 	movhi	r2,257
 10003a0:	10f9ce85 	stb	r3,-6342(r2)
	memmove(&TCP[0].source_mac,"\x60\xe3\x27\x04\xd5\xe3",6);
 10003a4:	00c01804 	movi	r3,96
 10003a8:	00804074 	movhi	r2,257
 10003ac:	10f9cec5 	stb	r3,-6341(r2)
 10003b0:	00fff8c4 	movi	r3,-29
 10003b4:	00804074 	movhi	r2,257
 10003b8:	10f9cf05 	stb	r3,-6340(r2)
 10003bc:	00c009c4 	movi	r3,39
 10003c0:	00804074 	movhi	r2,257
 10003c4:	10f9cf45 	stb	r3,-6339(r2)
 10003c8:	00c00104 	movi	r3,4
 10003cc:	00804074 	movhi	r2,257
 10003d0:	10f9cf85 	stb	r3,-6338(r2)
 10003d4:	00fff544 	movi	r3,-43
 10003d8:	00804074 	movhi	r2,257
 10003dc:	10f9cfc5 	stb	r3,-6337(r2)
 10003e0:	00fff8c4 	movi	r3,-29
 10003e4:	00804074 	movhi	r2,257
 10003e8:	10f9d005 	stb	r3,-6336(r2)
	memmove(&TCP[0].source_port, "\x00\x10", 2);
 10003ec:	00c40004 	movi	r3,4096
 10003f0:	00804074 	movhi	r2,257
 10003f4:	10f9d08d 	sth	r3,-6334(r2)
	memmove(&TCP[0].dest_port, "\x00\x20", 2);
 10003f8:	00c80004 	movi	r3,8192
 10003fc:	00804074 	movhi	r2,257
 1000400:	10f9d10d 	sth	r3,-6332(r2)
	memmove(&TCP[0].seq_num, "\x00\x00", 2);
 1000404:	00804074 	movhi	r2,257
 1000408:	1039d20d 	sth	zero,-6328(r2)
	memmove(&TCP[0].ack_num, "\x00\x00", 2);
 100040c:	00804074 	movhi	r2,257
 1000410:	1039d18d 	sth	zero,-6330(r2)
	data_flag = 0;
 1000414:	d020eb05 	stb	zero,-31828(gp)

/*********** Open the sgdma transmit device ********************/
	sgdma_tx_dev = alt_avalon_sgdma_open ("/dev/sgdma_tx");
 1000418:	01004074 	movhi	r4,257
 100041c:	212b4e04 	addi	r4,r4,-21192
 1000420:	1003e3c0 	call	1003e3c <alt_avalon_sgdma_open>
 1000424:	d0a0ec15 	stw	r2,-31824(gp)
	if (sgdma_tx_dev == NULL) {
 1000428:	d0a0ec17 	ldw	r2,-31824(gp)
 100042c:	1000041e 	bne	r2,zero,1000440 <main+0x134>
		alt_printf ("Error: could not open scatter-gather dma transmit device\n");
 1000430:	01004074 	movhi	r4,257
 1000434:	212b5204 	addi	r4,r4,-21176
 1000438:	10030c40 	call	10030c4 <alt_printf>
 100043c:	00000306 	br	100044c <main+0x140>
		//return -1;
	} else alt_printf ("Opened scatter-gather dma transmit device\n");
 1000440:	01004074 	movhi	r4,257
 1000444:	212b6104 	addi	r4,r4,-21116
 1000448:	10030c40 	call	10030c4 <alt_printf>

/***********  Open the sgdma receive device *************************/
	sgdma_rx_dev = alt_avalon_sgdma_open ("/dev/sgdma_rx");
 100044c:	01004074 	movhi	r4,257
 1000450:	212b6c04 	addi	r4,r4,-21072
 1000454:	1003e3c0 	call	1003e3c <alt_avalon_sgdma_open>
 1000458:	d0a0ed15 	stw	r2,-31820(gp)
	if (sgdma_rx_dev == NULL) {
 100045c:	d0a0ed17 	ldw	r2,-31820(gp)
 1000460:	1000041e 	bne	r2,zero,1000474 <main+0x168>
		alt_printf ("Error: could not open scatter-gather dma receive device\n");
 1000464:	01004074 	movhi	r4,257
 1000468:	212b7004 	addi	r4,r4,-21056
 100046c:	10030c40 	call	10030c4 <alt_printf>
 1000470:	00000306 	br	1000480 <main+0x174>
		//return -1;
	} else alt_printf ("Opened scatter-gather dma receive device\n");
 1000474:	01004074 	movhi	r4,257
 1000478:	212b7f04 	addi	r4,r4,-20996
 100047c:	10030c40 	call	10030c4 <alt_printf>

/**************** Set interrupts for the sgdma receive device , Create sgdma receive descriptor  & Set up non-blocking transfer of sgdma receive descriptor **********/
	alt_avalon_sgdma_register_callback( sgdma_rx_dev, (alt_avalon_sgdma_callback) rx_ethernet_isr, 0x00000014, NULL );
 1000480:	d0a0ed17 	ldw	r2,-31820(gp)
 1000484:	000f883a 	mov	r7,zero
 1000488:	01800504 	movi	r6,20
 100048c:	01404034 	movhi	r5,256
 1000490:	2944be04 	addi	r5,r5,4856
 1000494:	1009883a 	mov	r4,r2
 1000498:	1003cd00 	call	1003cd0 <alt_avalon_sgdma_register_callback>
	alt_avalon_sgdma_construct_stream_to_mem_desc( &rx_descriptor, &rx_descriptor_end, (alt_u32 *)rx_frame, 0, 0 );
 100049c:	d8000015 	stw	zero,0(sp)
 10004a0:	000f883a 	mov	r7,zero
 10004a4:	01804074 	movhi	r6,257
 10004a8:	31b63e04 	addi	r6,r6,-9992
 10004ac:	01408034 	movhi	r5,512
 10004b0:	29401804 	addi	r5,r5,96
 10004b4:	01008034 	movhi	r4,512
 10004b8:	21001004 	addi	r4,r4,64
 10004bc:	1003aec0 	call	1003aec <alt_avalon_sgdma_construct_stream_to_mem_desc>
	alt_avalon_sgdma_do_async_transfer( sgdma_rx_dev, &rx_descriptor );
 10004c0:	d0a0ed17 	ldw	r2,-31820(gp)
 10004c4:	01408034 	movhi	r5,512
 10004c8:	29401004 	addi	r5,r5,64
 10004cc:	1009883a 	mov	r4,r2
 10004d0:	10037c00 	call	10037c0 <alt_avalon_sgdma_do_async_transfer>

	add_phy_to_profile();
 10004d4:	10002600 	call	1000260 <add_phy_to_profile>

	// Specify the addresses of the PHY devices to be accessed through MDIO interface
	*(tse + 0x0F) = 0x00;
 10004d8:	d0a00017 	ldw	r2,-32768(gp)
 10004dc:	10800f04 	addi	r2,r2,60
 10004e0:	10000015 	stw	zero,0(r2)

	// Read PHY registers by MDIO interface
	int regPhy[31];
	for(unsigned char i=0;i<32;i++)
 10004e4:	e03ff7c5 	stb	zero,-33(fp)
 10004e8:	00001906 	br	1000550 <main+0x244>
	{
		regPhy[i]=*(tse + 0x80 + i);
 10004ec:	d0e00017 	ldw	r3,-32768(gp)
 10004f0:	e0bff7c3 	ldbu	r2,-33(fp)
 10004f4:	10802004 	addi	r2,r2,128
 10004f8:	100490ba 	slli	r2,r2,2
 10004fc:	1887883a 	add	r3,r3,r2
 1000500:	e0bff7c3 	ldbu	r2,-33(fp)
 1000504:	18c00017 	ldw	r3,0(r3)
 1000508:	100490ba 	slli	r2,r2,2
 100050c:	e13ff804 	addi	r4,fp,-32
 1000510:	2085883a 	add	r2,r4,r2
 1000514:	10ffdb15 	stw	r3,-148(r2)
		alt_printf("PHY %x : %x \n",i,regPhy[i]);
 1000518:	e0fff7c3 	ldbu	r3,-33(fp)
 100051c:	e0bff7c3 	ldbu	r2,-33(fp)
 1000520:	100490ba 	slli	r2,r2,2
 1000524:	e13ff804 	addi	r4,fp,-32
 1000528:	2085883a 	add	r2,r4,r2
 100052c:	10bfdb17 	ldw	r2,-148(r2)
 1000530:	100d883a 	mov	r6,r2
 1000534:	180b883a 	mov	r5,r3
 1000538:	01004074 	movhi	r4,257
 100053c:	212b8a04 	addi	r4,r4,-20952
 1000540:	10030c40 	call	10030c4 <alt_printf>
	for(unsigned char i=0;i<32;i++)
 1000544:	e0bff7c3 	ldbu	r2,-33(fp)
 1000548:	10800044 	addi	r2,r2,1
 100054c:	e0bff7c5 	stb	r2,-33(fp)
 1000550:	e0bff7c3 	ldbu	r2,-33(fp)
 1000554:	10800830 	cmpltui	r2,r2,32
 1000558:	103fe41e 	bne	r2,zero,10004ec <main+0x1e0>
	}

	int phyid1 = regPhy[2];
 100055c:	e0bfd517 	ldw	r2,-172(fp)
 1000560:	e0bff515 	stw	r2,-44(fp)
	int phyid2 = regPhy[3];
 1000564:	e0bfd617 	ldw	r2,-168(fp)
 1000568:	e0bff415 	stw	r2,-48(fp)

	printf ("Phy found:id1 %x, id2 %x\n", phyid1, phyid2);
 100056c:	e1bff417 	ldw	r6,-48(fp)
 1000570:	e17ff517 	ldw	r5,-44(fp)
 1000574:	01004074 	movhi	r4,257
 1000578:	212b8e04 	addi	r4,r4,-20936
 100057c:	10026640 	call	1002664 <printf>
/************ Disable read and write transfers and wait**************************/
	*(tse + 0x02 ) = *(tse + 0x02) | 0x00800220;
 1000580:	d0a00017 	ldw	r2,-32768(gp)
 1000584:	10800204 	addi	r2,r2,8
 1000588:	11000017 	ldw	r4,0(r2)
 100058c:	d0a00017 	ldw	r2,-32768(gp)
 1000590:	10c00204 	addi	r3,r2,8
 1000594:	00802034 	movhi	r2,128
 1000598:	10808804 	addi	r2,r2,544
 100059c:	2084b03a 	or	r2,r4,r2
 10005a0:	18800015 	stw	r2,0(r3)
	while ( *(tse + 0x02 ) != ( *(tse + 0x02 ) | 0x00800220 )) alt_printf("n0");
 10005a4:	00000306 	br	10005b4 <main+0x2a8>
 10005a8:	01004074 	movhi	r4,257
 10005ac:	212b9504 	addi	r4,r4,-20908
 10005b0:	10030c40 	call	10030c4 <alt_printf>
 10005b4:	d0a00017 	ldw	r2,-32768(gp)
 10005b8:	10800204 	addi	r2,r2,8
 10005bc:	10c00017 	ldw	r3,0(r2)
 10005c0:	d0a00017 	ldw	r2,-32768(gp)
 10005c4:	10800204 	addi	r2,r2,8
 10005c8:	11000017 	ldw	r4,0(r2)
 10005cc:	00802034 	movhi	r2,128
 10005d0:	10808804 	addi	r2,r2,544
 10005d4:	2084b03a 	or	r2,r4,r2
 10005d8:	18bff31e 	bne	r3,r2,10005a8 <main+0x29c>

/****************MAC FIFO Configuration*****************************************/
	*(tse + 0x09) = TSE_TRANSMIT_FIFO_DEPTH-16;
 10005dc:	d0a00017 	ldw	r2,-32768(gp)
 10005e0:	10800904 	addi	r2,r2,36
 10005e4:	00c1fc04 	movi	r3,2032
 10005e8:	10c00015 	stw	r3,0(r2)
	*(tse + 0x0E) = 3;
 10005ec:	d0a00017 	ldw	r2,-32768(gp)
 10005f0:	10800e04 	addi	r2,r2,56
 10005f4:	00c000c4 	movi	r3,3
 10005f8:	10c00015 	stw	r3,0(r2)
	*(tse + 0x0D) = 8;
 10005fc:	d0a00017 	ldw	r2,-32768(gp)
 1000600:	10800d04 	addi	r2,r2,52
 1000604:	00c00204 	movi	r3,8
 1000608:	10c00015 	stw	r3,0(r2)
	*(tse + 0x07) =TSE_RECEIVE_FIFO_DEPTH-16;
 100060c:	d0a00017 	ldw	r2,-32768(gp)
 1000610:	10800704 	addi	r2,r2,28
 1000614:	00c1fc04 	movi	r3,2032
 1000618:	10c00015 	stw	r3,0(r2)
	*(tse + 0x0C) = 8;
 100061c:	d0a00017 	ldw	r2,-32768(gp)
 1000620:	10800c04 	addi	r2,r2,48
 1000624:	00c00204 	movi	r3,8
 1000628:	10c00015 	stw	r3,0(r2)
	*(tse + 0x0B) = 8;
 100062c:	d0a00017 	ldw	r2,-32768(gp)
 1000630:	10800b04 	addi	r2,r2,44
 1000634:	00c00204 	movi	r3,8
 1000638:	10c00015 	stw	r3,0(r2)
	*(tse + 0x0A) = 0;
 100063c:	d0a00017 	ldw	r2,-32768(gp)
 1000640:	10800a04 	addi	r2,r2,40
 1000644:	10000015 	stw	zero,0(r2)
	*(tse + 0x08) = 0;
 1000648:	d0a00017 	ldw	r2,-32768(gp)
 100064c:	10800804 	addi	r2,r2,32
 1000650:	10000015 	stw	zero,0(r2)

/***************** Initialize the MAC address************************************/
	*(tse + 0x03 ) = 0x0427E360; //mac_0
 1000654:	d0a00017 	ldw	r2,-32768(gp)
 1000658:	10c00304 	addi	r3,r2,12
 100065c:	00810a34 	movhi	r2,1064
 1000660:	10b8d804 	addi	r2,r2,-7328
 1000664:	18800015 	stw	r2,0(r3)
	*(tse + 0x04) =  0x0000E3D5; //mac_1
 1000668:	d0a00017 	ldw	r2,-32768(gp)
 100066c:	10800404 	addi	r2,r2,16
 1000670:	00f8f554 	movui	r3,58325
 1000674:	10c00015 	stw	r3,0(r2)
/****************** MAC function configuration**********************************/
	*(tse + 0x05) = 1518 ;
 1000678:	d0a00017 	ldw	r2,-32768(gp)
 100067c:	10800504 	addi	r2,r2,20
 1000680:	00c17b84 	movi	r3,1518
 1000684:	10c00015 	stw	r3,0(r2)
	*(tse + 0x17) = 12;
 1000688:	d0a00017 	ldw	r2,-32768(gp)
 100068c:	10801704 	addi	r2,r2,92
 1000690:	00c00304 	movi	r3,12
 1000694:	10c00015 	stw	r3,0(r2)
	*(tse + 0x06 ) = 0xFFFF;
 1000698:	d0a00017 	ldw	r2,-32768(gp)
 100069c:	10800604 	addi	r2,r2,24
 10006a0:	00ffffd4 	movui	r3,65535
 10006a4:	10c00015 	stw	r3,0(r2)
	*(tse + 0x02 ) = 0x00800220; //command config
 10006a8:	d0a00017 	ldw	r2,-32768(gp)
 10006ac:	10c00204 	addi	r3,r2,8
 10006b0:	00802034 	movhi	r2,128
 10006b4:	10808804 	addi	r2,r2,544
 10006b8:	18800015 	stw	r2,0(r3)

/*************** Software reset the PHY chip and wait***************************/
	*(tse + 0x02  ) =  0x00802220;
 10006bc:	d0a00017 	ldw	r2,-32768(gp)
 10006c0:	10c00204 	addi	r3,r2,8
 10006c4:	00802034 	movhi	r2,128
 10006c8:	10888804 	addi	r2,r2,8736
 10006cc:	18800015 	stw	r2,0(r3)
	while ( *(tse + 0x02  ) != ( 0x00800220 ) ) alt_printf("n1");
 10006d0:	00000306 	br	10006e0 <main+0x3d4>
 10006d4:	01004074 	movhi	r4,257
 10006d8:	212b9604 	addi	r4,r4,-20904
 10006dc:	10030c40 	call	10030c4 <alt_printf>
 10006e0:	d0a00017 	ldw	r2,-32768(gp)
 10006e4:	10800204 	addi	r2,r2,8
 10006e8:	10c00017 	ldw	r3,0(r2)
 10006ec:	00802034 	movhi	r2,128
 10006f0:	10808804 	addi	r2,r2,544
 10006f4:	18bff71e 	bne	r3,r2,10006d4 <main+0x3c8>

/*** Enable read and write transfers, gigabit Ethernet operation and promiscuous mode*/

	*(tse + 0x02 ) = *(tse + 0x02 ) | 0x0080023B;
 10006f8:	d0a00017 	ldw	r2,-32768(gp)
 10006fc:	10800204 	addi	r2,r2,8
 1000700:	11000017 	ldw	r4,0(r2)
 1000704:	d0a00017 	ldw	r2,-32768(gp)
 1000708:	10c00204 	addi	r3,r2,8
 100070c:	00802034 	movhi	r2,128
 1000710:	10808ec4 	addi	r2,r2,571
 1000714:	2084b03a 	or	r2,r4,r2
 1000718:	18800015 	stw	r2,0(r3)
	while ( *(tse + 0x02 ) != ( *(tse + 0x02) | 0x0080023B ) ) alt_printf("n2") ;
 100071c:	00000306 	br	100072c <main+0x420>
 1000720:	01004074 	movhi	r4,257
 1000724:	212b9704 	addi	r4,r4,-20900
 1000728:	10030c40 	call	10030c4 <alt_printf>
 100072c:	d0a00017 	ldw	r2,-32768(gp)
 1000730:	10800204 	addi	r2,r2,8
 1000734:	10c00017 	ldw	r3,0(r2)
 1000738:	d0a00017 	ldw	r2,-32768(gp)
 100073c:	10800204 	addi	r2,r2,8
 1000740:	11000017 	ldw	r4,0(r2)
 1000744:	00802034 	movhi	r2,128
 1000748:	10808ec4 	addi	r2,r2,571
 100074c:	2084b03a 	or	r2,r4,r2
 1000750:	18bff31e 	bne	r3,r2,1000720 <main+0x414>


	uint8_t data = 0x00;
 1000754:	e03fd2c5 	stb	zero,-181(fp)
	uint8_t flag_a = 0;
 1000758:	e03ff785 	stb	zero,-34(fp)
	int delay = 0;
 100075c:	e03ff615 	stw	zero,-40(fp)
	//Write MMD - Device Address 2h, Register 10h = 0001h to enable link-up detection to trigger PME for WOL.
	//1. Write Register Dh with 0002h // Set up register address for MMD  Device Address 2h.
	//2. Write Register Eh with 0010h // Select Register 10h of MMD  Device Address 2h.
	//3. Write Register Dh with 4002h // Select register data for MMD  Device Address 2h, Register 10h.
	//4. Write Register Eh with 0001h // Write value 0001h to MMD  Device Address 2h, Register 10h.
	*(tse + 0x80 + 0x0D)=0x0002;
 1000760:	d0a00017 	ldw	r2,-32768(gp)
 1000764:	10808d04 	addi	r2,r2,564
 1000768:	00c00084 	movi	r3,2
 100076c:	10c00015 	stw	r3,0(r2)
	*(tse + 0x80 + 0x0E)=0x0008;
 1000770:	d0a00017 	ldw	r2,-32768(gp)
 1000774:	10808e04 	addi	r2,r2,568
 1000778:	00c00204 	movi	r3,8
 100077c:	10c00015 	stw	r3,0(r2)
	*(tse + 0x80 + 0x0D)=0x4002;
 1000780:	d0a00017 	ldw	r2,-32768(gp)
 1000784:	10808d04 	addi	r2,r2,564
 1000788:	00d00084 	movi	r3,16386
 100078c:	10c00015 	stw	r3,0(r2)
	*(tse + 0x80 + 0x0E)=0x01EF;
 1000790:	d0a00017 	ldw	r2,-32768(gp)
 1000794:	10808e04 	addi	r2,r2,568
 1000798:	00c07bc4 	movi	r3,495
 100079c:	10c00015 	stw	r3,0(r2)
	//2. Write Register Eh with 0011h // Select Register 11h of MMD  Device Address 2h.
	//3. Write Register Dh with 8002h // Select register data for MMD  Device Address 2h, Register 11h.
	//4. Read Register Eh // Read data in MMD  Device Address 2h, Register 11h.
	//5. Read Register Eh // Read data in MMD  Device Address 2h, Register 12h.
	//6. Read Register Eh // Read data in MMD  Device Address 2h, Register 13h.
	*(tse + 0x80 + 0x0D)=0x0002;
 10007a0:	d0a00017 	ldw	r2,-32768(gp)
 10007a4:	10808d04 	addi	r2,r2,564
 10007a8:	00c00084 	movi	r3,2
 10007ac:	10c00015 	stw	r3,0(r2)
	*(tse + 0x80 + 0x0E)=0x0008;
 10007b0:	d0a00017 	ldw	r2,-32768(gp)
 10007b4:	10808e04 	addi	r2,r2,568
 10007b8:	00c00204 	movi	r3,8
 10007bc:	10c00015 	stw	r3,0(r2)
	*(tse + 0x80 + 0x0D)=0x8002;
 10007c0:	d0a00017 	ldw	r2,-32768(gp)
 10007c4:	10808d04 	addi	r2,r2,564
 10007c8:	00e00094 	movui	r3,32770
 10007cc:	10c00015 	stw	r3,0(r2)
	int txRxDelay=*(tse + 0x80 + 0x0E);
 10007d0:	d0a00017 	ldw	r2,-32768(gp)
 10007d4:	10808e17 	ldw	r2,568(r2)
 10007d8:	e0bff315 	stw	r2,-52(fp)
	alt_printf("Tx Rx delay %x \n",txRxDelay);
 10007dc:	e17ff317 	ldw	r5,-52(fp)
 10007e0:	01004074 	movhi	r4,257
 10007e4:	212b9804 	addi	r4,r4,-20896
 10007e8:	10030c40 	call	10030c4 <alt_printf>

/********** Infinite Loop ******************************/
	while (1) {
		in =  IORD_ALTERA_AVALON_PIO_DATA(SWITCH_BASE); //read the input from the switch
 10007ec:	00808034 	movhi	r2,512
 10007f0:	108d2837 	ldwio	r2,13472(r2)
 10007f4:	d0a0ea15 	stw	r2,-31832(gp)

		/**** Check if 3 way handshake already established *********************/
		if((TCP[0].link == 1) && (flag_syn == 0) && (in & 0x01)==1){
 10007f8:	00804074 	movhi	r2,257
 10007fc:	10b9cd03 	ldbu	r2,-6348(r2)
 1000800:	10803fcc 	andi	r2,r2,255
 1000804:	10800058 	cmpnei	r2,r2,1
 1000808:	10000b1e 	bne	r2,zero,1000838 <main+0x52c>
 100080c:	d0a0e903 	ldbu	r2,-31836(gp)
 1000810:	10803fcc 	andi	r2,r2,255
 1000814:	1000081e 	bne	r2,zero,1000838 <main+0x52c>
 1000818:	d0a0ea17 	ldw	r2,-31832(gp)
 100081c:	1080004c 	andi	r2,r2,1
 1000820:	10000526 	beq	r2,zero,1000838 <main+0x52c>
			flag_syn = 1;
 1000824:	00800044 	movi	r2,1
 1000828:	d0a0e905 	stb	r2,-31836(gp)
			alt_printf("\nConnection already established, send data");
 100082c:	01004074 	movhi	r4,257
 1000830:	212b9d04 	addi	r4,r4,-20876
 1000834:	10030c40 	call	10030c4 <alt_printf>
		}

		if ((in & 0x01)== 1){// Syn if  switch 1 is on
 1000838:	d0a0ea17 	ldw	r2,-31832(gp)
 100083c:	1080004c 	andi	r2,r2,1
 1000840:	1000a226 	beq	r2,zero,1000acc <main+0x7c0>
			//IOWR_ALTERA_AVALON_PIO_DATA(LED_BASE,0x01); //switch on or switch off the LED
			if(flag_syn == 0){
 1000844:	d0a0e903 	ldbu	r2,-31836(gp)
 1000848:	10803fcc 	andi	r2,r2,255
 100084c:	10013f1e 	bne	r2,zero,1000d4c <main+0xa40>
				flag_syn = 1; //setting flag bit to send only 1 syn packet when switch is ON
 1000850:	00800044 	movi	r2,1
 1000854:	d0a0e905 	stb	r2,-31836(gp)
				flag_a = 1;
 1000858:	00800044 	movi	r2,1
 100085c:	e0bff785 	stb	r2,-34(fp)

				/******** Creating and Sending SYN packet******************************/
		/** SYN = 1 , SYN-ACK = 5 , ACK = 4 , FIN  = 2 , FIN-ACK = 6
		 **** DATA = 8 , DATA ACK = 0X0C*****************************************/
				create_pkt();
 1000860:	10023880 	call	1002388 <create_pkt>
				memmove(tx_frame+24, "\x01", 1);
 1000864:	00804074 	movhi	r2,257
 1000868:	10b7bf84 	addi	r2,r2,-8450
 100086c:	00c00044 	movi	r3,1
 1000870:	10c00005 	stb	r3,0(r2)
				alt_printf(" timer started for SYN, status is : %x",IORD_ALTERA_AVALON_TIMER_STATUS(TIMER_0_BASE));
 1000874:	00808034 	movhi	r2,512
 1000878:	108d2037 	ldwio	r2,13440(r2)
 100087c:	100b883a 	mov	r5,r2
 1000880:	01004074 	movhi	r4,257
 1000884:	212ba804 	addi	r4,r4,-20832
 1000888:	10030c40 	call	10030c4 <alt_printf>

				/***** Transmitting the packet ***************************************/
				alt_printf("\nSYN TX_FRAME: %x %x %x %x %x %x    %x %x %x %x %x %x    %x %x   %x %x   %x %x   %x %x   %x %x   %x \n",tx_frame[2],tx_frame[3],tx_frame[4],tx_frame[5],tx_frame[6],tx_frame[7],tx_frame[8],tx_frame[9],tx_frame[10],tx_frame[11],tx_frame[12],tx_frame[13],tx_frame[14],tx_frame[15],tx_frame[16],tx_frame[17],tx_frame[18],tx_frame[19],tx_frame[20],tx_frame[21],tx_frame[22],tx_frame[23],tx_frame[24],tx_frame[25]);
 100088c:	00804074 	movhi	r2,257
 1000890:	10b7ba03 	ldbu	r2,-8472(r2)
 1000894:	15c03fcc 	andi	r23,r2,255
 1000898:	00804074 	movhi	r2,257
 100089c:	10b7ba43 	ldbu	r2,-8471(r2)
 10008a0:	17c03fcc 	andi	ra,r2,255
 10008a4:	00804074 	movhi	r2,257
 10008a8:	10b7ba83 	ldbu	r2,-8470(r2)
 10008ac:	10803fcc 	andi	r2,r2,255
 10008b0:	e0bfd115 	stw	r2,-188(fp)
 10008b4:	00804074 	movhi	r2,257
 10008b8:	10b7bac3 	ldbu	r2,-8469(r2)
 10008bc:	10c03fcc 	andi	r3,r2,255
 10008c0:	00804074 	movhi	r2,257
 10008c4:	10b7bb03 	ldbu	r2,-8468(r2)
 10008c8:	11003fcc 	andi	r4,r2,255
 10008cc:	00804074 	movhi	r2,257
 10008d0:	10b7bb43 	ldbu	r2,-8467(r2)
 10008d4:	11403fcc 	andi	r5,r2,255
 10008d8:	00804074 	movhi	r2,257
 10008dc:	10b7bb83 	ldbu	r2,-8466(r2)
 10008e0:	11803fcc 	andi	r6,r2,255
 10008e4:	00804074 	movhi	r2,257
 10008e8:	10b7bbc3 	ldbu	r2,-8465(r2)
 10008ec:	11c03fcc 	andi	r7,r2,255
 10008f0:	00804074 	movhi	r2,257
 10008f4:	10b7bc03 	ldbu	r2,-8464(r2)
 10008f8:	12003fcc 	andi	r8,r2,255
 10008fc:	00804074 	movhi	r2,257
 1000900:	10b7bc43 	ldbu	r2,-8463(r2)
 1000904:	12403fcc 	andi	r9,r2,255
 1000908:	00804074 	movhi	r2,257
 100090c:	10b7bc83 	ldbu	r2,-8462(r2)
 1000910:	12803fcc 	andi	r10,r2,255
 1000914:	00804074 	movhi	r2,257
 1000918:	10b7bcc3 	ldbu	r2,-8461(r2)
 100091c:	12c03fcc 	andi	r11,r2,255
 1000920:	00804074 	movhi	r2,257
 1000924:	10b7bd03 	ldbu	r2,-8460(r2)
 1000928:	13003fcc 	andi	r12,r2,255
 100092c:	00804074 	movhi	r2,257
 1000930:	10b7bd43 	ldbu	r2,-8459(r2)
 1000934:	13403fcc 	andi	r13,r2,255
 1000938:	00804074 	movhi	r2,257
 100093c:	10b7bd83 	ldbu	r2,-8458(r2)
 1000940:	13803fcc 	andi	r14,r2,255
 1000944:	00804074 	movhi	r2,257
 1000948:	10b7bdc3 	ldbu	r2,-8457(r2)
 100094c:	13c03fcc 	andi	r15,r2,255
 1000950:	00804074 	movhi	r2,257
 1000954:	10b7be03 	ldbu	r2,-8456(r2)
 1000958:	14003fcc 	andi	r16,r2,255
 100095c:	00804074 	movhi	r2,257
 1000960:	10b7be43 	ldbu	r2,-8455(r2)
 1000964:	14403fcc 	andi	r17,r2,255
 1000968:	00804074 	movhi	r2,257
 100096c:	10b7be83 	ldbu	r2,-8454(r2)
 1000970:	14803fcc 	andi	r18,r2,255
 1000974:	00804074 	movhi	r2,257
 1000978:	10b7bec3 	ldbu	r2,-8453(r2)
 100097c:	14c03fcc 	andi	r19,r2,255
 1000980:	00804074 	movhi	r2,257
 1000984:	10b7bf03 	ldbu	r2,-8452(r2)
 1000988:	15003fcc 	andi	r20,r2,255
 100098c:	00804074 	movhi	r2,257
 1000990:	10b7bf43 	ldbu	r2,-8451(r2)
 1000994:	15403fcc 	andi	r21,r2,255
 1000998:	00804074 	movhi	r2,257
 100099c:	10b7bf83 	ldbu	r2,-8450(r2)
 10009a0:	15803fcc 	andi	r22,r2,255
 10009a4:	00804074 	movhi	r2,257
 10009a8:	10b7bfc3 	ldbu	r2,-8449(r2)
 10009ac:	10803fcc 	andi	r2,r2,255
 10009b0:	d8801415 	stw	r2,80(sp)
 10009b4:	dd801315 	stw	r22,76(sp)
 10009b8:	dd401215 	stw	r21,72(sp)
 10009bc:	dd001115 	stw	r20,68(sp)
 10009c0:	dcc01015 	stw	r19,64(sp)
 10009c4:	dc800f15 	stw	r18,60(sp)
 10009c8:	dc400e15 	stw	r17,56(sp)
 10009cc:	dc000d15 	stw	r16,52(sp)
 10009d0:	dbc00c15 	stw	r15,48(sp)
 10009d4:	db800b15 	stw	r14,44(sp)
 10009d8:	db400a15 	stw	r13,40(sp)
 10009dc:	db000915 	stw	r12,36(sp)
 10009e0:	dac00815 	stw	r11,32(sp)
 10009e4:	da800715 	stw	r10,28(sp)
 10009e8:	da400615 	stw	r9,24(sp)
 10009ec:	da000515 	stw	r8,20(sp)
 10009f0:	d9c00415 	stw	r7,16(sp)
 10009f4:	d9800315 	stw	r6,12(sp)
 10009f8:	d9400215 	stw	r5,8(sp)
 10009fc:	d9000115 	stw	r4,4(sp)
 1000a00:	d8c00015 	stw	r3,0(sp)
 1000a04:	e1ffd117 	ldw	r7,-188(fp)
 1000a08:	f80d883a 	mov	r6,ra
 1000a0c:	b80b883a 	mov	r5,r23
 1000a10:	01004074 	movhi	r4,257
 1000a14:	212bb204 	addi	r4,r4,-20792
 1000a18:	10030c40 	call	10030c4 <alt_printf>
				alt_dcache_flush_all();
 1000a1c:	1002f3c0 	call	1002f3c <alt_dcache_flush_all>
				alt_avalon_sgdma_construct_mem_to_stream_desc(&tx_descriptor, &tx_descriptor_end, (alt_u32 *)tx_frame, 64, 0, 1, 1, 0);
 1000a20:	d8000315 	stw	zero,12(sp)
 1000a24:	00800044 	movi	r2,1
 1000a28:	d8800215 	stw	r2,8(sp)
 1000a2c:	00800044 	movi	r2,1
 1000a30:	d8800115 	stw	r2,4(sp)
 1000a34:	d8000015 	stw	zero,0(sp)
 1000a38:	01c01004 	movi	r7,64
 1000a3c:	01804074 	movhi	r6,257
 1000a40:	31b7b984 	addi	r6,r6,-8474
 1000a44:	01408034 	movhi	r5,512
 1000a48:	29400804 	addi	r5,r5,32
 1000a4c:	01008034 	movhi	r4,512
 1000a50:	21000004 	addi	r4,r4,0
 1000a54:	1003bc40 	call	1003bc4 <alt_avalon_sgdma_construct_mem_to_stream_desc>
				alt_avalon_sgdma_do_async_transfer( sgdma_tx_dev, &tx_descriptor );
 1000a58:	d0a0ec17 	ldw	r2,-31824(gp)
 1000a5c:	01408034 	movhi	r5,512
 1000a60:	29400004 	addi	r5,r5,0
 1000a64:	1009883a 	mov	r4,r2
 1000a68:	10037c00 	call	10037c0 <alt_avalon_sgdma_do_async_transfer>
				while (alt_avalon_sgdma_check_descriptor_status(&tx_descriptor) != 0);
 1000a6c:	0001883a 	nop
 1000a70:	01008034 	movhi	r4,512
 1000a74:	21000004 	addi	r4,r4,0
 1000a78:	1003dd80 	call	1003dd8 <alt_avalon_sgdma_check_descriptor_status>
 1000a7c:	103ffc1e 	bne	r2,zero,1000a70 <main+0x764>

				/********** Starting Timer for SYN packet *************************************/

				IOWR_ALTERA_AVALON_TIMER_STATUS(TIMER_0_BASE, 0x0002);
 1000a80:	00c00084 	movi	r3,2
 1000a84:	00808034 	movhi	r2,512
 1000a88:	10cd2035 	stwio	r3,13440(r2)
				IOWR_ALTERA_AVALON_TIMER_PERIODL(TIMER_0_BASE , 0xFFFF);
 1000a8c:	00ffffd4 	movui	r3,65535
 1000a90:	00808034 	movhi	r2,512
 1000a94:	10cd2235 	stwio	r3,13448(r2)
				IOWR_ALTERA_AVALON_TIMER_PERIODH(TIMER_0_BASE , 0xFFFF);
 1000a98:	00ffffd4 	movui	r3,65535
 1000a9c:	00808034 	movhi	r2,512
 1000aa0:	10cd2335 	stwio	r3,13452(r2)
				IOWR_ALTERA_AVALON_TIMER_CONTROL(TIMER_0_BASE, 0x0007);
 1000aa4:	00c001c4 	movi	r3,7
 1000aa8:	00808034 	movhi	r2,512
 1000aac:	10cd2135 	stwio	r3,13444(r2)
				/********** increment sequence number **************************************/
				TCP[0].seq_num++;
 1000ab0:	00804074 	movhi	r2,257
 1000ab4:	10b9d20b 	ldhu	r2,-6328(r2)
 1000ab8:	10800044 	addi	r2,r2,1
 1000abc:	1007883a 	mov	r3,r2
 1000ac0:	00804074 	movhi	r2,257
 1000ac4:	10f9d20d 	sth	r3,-6328(r2)
 1000ac8:	0000a006 	br	1000d4c <main+0xa40>
			}
		}

		/****** Condition for sending FIN Packet when key 1 is OFF **********************************/

		else if((flag_a == 1 )&& (in & 0x01) == 0){
 1000acc:	e0bff783 	ldbu	r2,-34(fp)
 1000ad0:	10800058 	cmpnei	r2,r2,1
 1000ad4:	10009d1e 	bne	r2,zero,1000d4c <main+0xa40>
 1000ad8:	d0a0ea17 	ldw	r2,-31832(gp)
 1000adc:	1080004c 	andi	r2,r2,1
 1000ae0:	10009a1e 	bne	r2,zero,1000d4c <main+0xa40>
				data_flag = 0;
 1000ae4:	d020eb05 	stb	zero,-31828(gp)
				flag_syn = 0;
 1000ae8:	d020e905 	stb	zero,-31836(gp)
				flag_a=0;
 1000aec:	e03ff785 	stb	zero,-34(fp)
		/******** Sending Fin packet ***************************************************/;

				create_pkt();
 1000af0:	10023880 	call	1002388 <create_pkt>
				memcpy(tx_frame+24, "\x02", 1);
 1000af4:	00804074 	movhi	r2,257
 1000af8:	10b7bf84 	addi	r2,r2,-8450
 1000afc:	01800044 	movi	r6,1
 1000b00:	01404074 	movhi	r5,257
 1000b04:	296bcc04 	addi	r5,r5,-20688
 1000b08:	1009883a 	mov	r4,r2
 1000b0c:	10025e00 	call	10025e0 <memcpy>
				alt_printf("\nFIN TX_FRAME: %x %x %x %x %x %x    %x %x %x %x %x %x    %x %x   %x %x   %x %x   %x %x   %x %x   %x \n",tx_frame[2],tx_frame[3],tx_frame[4],tx_frame[5],tx_frame[6],tx_frame[7],tx_frame[8],tx_frame[9],tx_frame[10],tx_frame[11],tx_frame[12],tx_frame[13],tx_frame[14],tx_frame[15],tx_frame[16],tx_frame[17],tx_frame[18],tx_frame[19],tx_frame[20],tx_frame[21],tx_frame[22],tx_frame[23],tx_frame[24],tx_frame[25]);
 1000b10:	00804074 	movhi	r2,257
 1000b14:	10b7ba03 	ldbu	r2,-8472(r2)
 1000b18:	15c03fcc 	andi	r23,r2,255
 1000b1c:	00804074 	movhi	r2,257
 1000b20:	10b7ba43 	ldbu	r2,-8471(r2)
 1000b24:	17c03fcc 	andi	ra,r2,255
 1000b28:	00804074 	movhi	r2,257
 1000b2c:	10b7ba83 	ldbu	r2,-8470(r2)
 1000b30:	10803fcc 	andi	r2,r2,255
 1000b34:	e0bfd115 	stw	r2,-188(fp)
 1000b38:	00804074 	movhi	r2,257
 1000b3c:	10b7bac3 	ldbu	r2,-8469(r2)
 1000b40:	10c03fcc 	andi	r3,r2,255
 1000b44:	00804074 	movhi	r2,257
 1000b48:	10b7bb03 	ldbu	r2,-8468(r2)
 1000b4c:	11003fcc 	andi	r4,r2,255
 1000b50:	00804074 	movhi	r2,257
 1000b54:	10b7bb43 	ldbu	r2,-8467(r2)
 1000b58:	11403fcc 	andi	r5,r2,255
 1000b5c:	00804074 	movhi	r2,257
 1000b60:	10b7bb83 	ldbu	r2,-8466(r2)
 1000b64:	11803fcc 	andi	r6,r2,255
 1000b68:	00804074 	movhi	r2,257
 1000b6c:	10b7bbc3 	ldbu	r2,-8465(r2)
 1000b70:	11c03fcc 	andi	r7,r2,255
 1000b74:	00804074 	movhi	r2,257
 1000b78:	10b7bc03 	ldbu	r2,-8464(r2)
 1000b7c:	12003fcc 	andi	r8,r2,255
 1000b80:	00804074 	movhi	r2,257
 1000b84:	10b7bc43 	ldbu	r2,-8463(r2)
 1000b88:	12403fcc 	andi	r9,r2,255
 1000b8c:	00804074 	movhi	r2,257
 1000b90:	10b7bc83 	ldbu	r2,-8462(r2)
 1000b94:	12803fcc 	andi	r10,r2,255
 1000b98:	00804074 	movhi	r2,257
 1000b9c:	10b7bcc3 	ldbu	r2,-8461(r2)
 1000ba0:	12c03fcc 	andi	r11,r2,255
 1000ba4:	00804074 	movhi	r2,257
 1000ba8:	10b7bd03 	ldbu	r2,-8460(r2)
 1000bac:	13003fcc 	andi	r12,r2,255
 1000bb0:	00804074 	movhi	r2,257
 1000bb4:	10b7bd43 	ldbu	r2,-8459(r2)
 1000bb8:	13403fcc 	andi	r13,r2,255
 1000bbc:	00804074 	movhi	r2,257
 1000bc0:	10b7bd83 	ldbu	r2,-8458(r2)
 1000bc4:	13803fcc 	andi	r14,r2,255
 1000bc8:	00804074 	movhi	r2,257
 1000bcc:	10b7bdc3 	ldbu	r2,-8457(r2)
 1000bd0:	13c03fcc 	andi	r15,r2,255
 1000bd4:	00804074 	movhi	r2,257
 1000bd8:	10b7be03 	ldbu	r2,-8456(r2)
 1000bdc:	14003fcc 	andi	r16,r2,255
 1000be0:	00804074 	movhi	r2,257
 1000be4:	10b7be43 	ldbu	r2,-8455(r2)
 1000be8:	14403fcc 	andi	r17,r2,255
 1000bec:	00804074 	movhi	r2,257
 1000bf0:	10b7be83 	ldbu	r2,-8454(r2)
 1000bf4:	14803fcc 	andi	r18,r2,255
 1000bf8:	00804074 	movhi	r2,257
 1000bfc:	10b7bec3 	ldbu	r2,-8453(r2)
 1000c00:	14c03fcc 	andi	r19,r2,255
 1000c04:	00804074 	movhi	r2,257
 1000c08:	10b7bf03 	ldbu	r2,-8452(r2)
 1000c0c:	15003fcc 	andi	r20,r2,255
 1000c10:	00804074 	movhi	r2,257
 1000c14:	10b7bf43 	ldbu	r2,-8451(r2)
 1000c18:	15403fcc 	andi	r21,r2,255
 1000c1c:	00804074 	movhi	r2,257
 1000c20:	10b7bf83 	ldbu	r2,-8450(r2)
 1000c24:	15803fcc 	andi	r22,r2,255
 1000c28:	00804074 	movhi	r2,257
 1000c2c:	10b7bfc3 	ldbu	r2,-8449(r2)
 1000c30:	10803fcc 	andi	r2,r2,255
 1000c34:	d8801415 	stw	r2,80(sp)
 1000c38:	dd801315 	stw	r22,76(sp)
 1000c3c:	dd401215 	stw	r21,72(sp)
 1000c40:	dd001115 	stw	r20,68(sp)
 1000c44:	dcc01015 	stw	r19,64(sp)
 1000c48:	dc800f15 	stw	r18,60(sp)
 1000c4c:	dc400e15 	stw	r17,56(sp)
 1000c50:	dc000d15 	stw	r16,52(sp)
 1000c54:	dbc00c15 	stw	r15,48(sp)
 1000c58:	db800b15 	stw	r14,44(sp)
 1000c5c:	db400a15 	stw	r13,40(sp)
 1000c60:	db000915 	stw	r12,36(sp)
 1000c64:	dac00815 	stw	r11,32(sp)
 1000c68:	da800715 	stw	r10,28(sp)
 1000c6c:	da400615 	stw	r9,24(sp)
 1000c70:	da000515 	stw	r8,20(sp)
 1000c74:	d9c00415 	stw	r7,16(sp)
 1000c78:	d9800315 	stw	r6,12(sp)
 1000c7c:	d9400215 	stw	r5,8(sp)
 1000c80:	d9000115 	stw	r4,4(sp)
 1000c84:	d8c00015 	stw	r3,0(sp)
 1000c88:	e1ffd117 	ldw	r7,-188(fp)
 1000c8c:	f80d883a 	mov	r6,ra
 1000c90:	b80b883a 	mov	r5,r23
 1000c94:	01004074 	movhi	r4,257
 1000c98:	212bcd04 	addi	r4,r4,-20684
 1000c9c:	10030c40 	call	10030c4 <alt_printf>
				alt_dcache_flush_all();
 1000ca0:	1002f3c0 	call	1002f3c <alt_dcache_flush_all>
				alt_avalon_sgdma_construct_mem_to_stream_desc(&tx_descriptor, &tx_descriptor_end, (alt_u32 *)tx_frame, 64, 0, 1, 1, 0);
 1000ca4:	d8000315 	stw	zero,12(sp)
 1000ca8:	00800044 	movi	r2,1
 1000cac:	d8800215 	stw	r2,8(sp)
 1000cb0:	00800044 	movi	r2,1
 1000cb4:	d8800115 	stw	r2,4(sp)
 1000cb8:	d8000015 	stw	zero,0(sp)
 1000cbc:	01c01004 	movi	r7,64
 1000cc0:	01804074 	movhi	r6,257
 1000cc4:	31b7b984 	addi	r6,r6,-8474
 1000cc8:	01408034 	movhi	r5,512
 1000ccc:	29400804 	addi	r5,r5,32
 1000cd0:	01008034 	movhi	r4,512
 1000cd4:	21000004 	addi	r4,r4,0
 1000cd8:	1003bc40 	call	1003bc4 <alt_avalon_sgdma_construct_mem_to_stream_desc>
				alt_avalon_sgdma_do_async_transfer( sgdma_tx_dev, &tx_descriptor );
 1000cdc:	d0a0ec17 	ldw	r2,-31824(gp)
 1000ce0:	01408034 	movhi	r5,512
 1000ce4:	29400004 	addi	r5,r5,0
 1000ce8:	1009883a 	mov	r4,r2
 1000cec:	10037c00 	call	10037c0 <alt_avalon_sgdma_do_async_transfer>
				while (alt_avalon_sgdma_check_descriptor_status(&tx_descriptor) != 0);
 1000cf0:	0001883a 	nop
 1000cf4:	01008034 	movhi	r4,512
 1000cf8:	21000004 	addi	r4,r4,0
 1000cfc:	1003dd80 	call	1003dd8 <alt_avalon_sgdma_check_descriptor_status>
 1000d00:	103ffc1e 	bne	r2,zero,1000cf4 <main+0x9e8>

		/************ Starting Timer for FIN Packet *******************************/
				IOWR_ALTERA_AVALON_TIMER_STATUS(TIMER_0_BASE, 0x0002);
 1000d04:	00c00084 	movi	r3,2
 1000d08:	00808034 	movhi	r2,512
 1000d0c:	10cd2035 	stwio	r3,13440(r2)
				IOWR_ALTERA_AVALON_TIMER_PERIODL(TIMER_0_BASE , 0xAAAA);
 1000d10:	00eaaa94 	movui	r3,43690
 1000d14:	00808034 	movhi	r2,512
 1000d18:	10cd2235 	stwio	r3,13448(r2)
				IOWR_ALTERA_AVALON_TIMER_PERIODH(TIMER_0_BASE , 0xFFFF);
 1000d1c:	00ffffd4 	movui	r3,65535
 1000d20:	00808034 	movhi	r2,512
 1000d24:	10cd2335 	stwio	r3,13452(r2)
				IOWR_ALTERA_AVALON_TIMER_CONTROL(TIMER_0_BASE, 0x0007);
 1000d28:	00c001c4 	movi	r3,7
 1000d2c:	00808034 	movhi	r2,512
 1000d30:	10cd2135 	stwio	r3,13444(r2)
				TCP[0].seq_num++;
 1000d34:	00804074 	movhi	r2,257
 1000d38:	10b9d20b 	ldhu	r2,-6328(r2)
 1000d3c:	10800044 	addi	r2,r2,1
 1000d40:	1007883a 	mov	r3,r2
 1000d44:	00804074 	movhi	r2,257
 1000d48:	10f9d20d 	sth	r3,-6328(r2)
		}

	/********* condition to check DATA transmission if key 2 are ON *************/
		if((in & 0x02) == 0x00){
 1000d4c:	d0a0ea17 	ldw	r2,-31832(gp)
 1000d50:	1080008c 	andi	r2,r2,2
 1000d54:	1000b51e 	bne	r2,zero,100102c <main+0xd20>
			delay++;
 1000d58:	e0bff617 	ldw	r2,-40(fp)
 1000d5c:	10800044 	addi	r2,r2,1
 1000d60:	e0bff615 	stw	r2,-40(fp)
	/***** setting delay to display LED blinking  *******************************/
			if(data_flag == 1 && delay == 1000000){
 1000d64:	d0a0eb03 	ldbu	r2,-31828(gp)
 1000d68:	10803fcc 	andi	r2,r2,255
 1000d6c:	10800058 	cmpnei	r2,r2,1
 1000d70:	1000a91e 	bne	r2,zero,1001018 <main+0xd0c>
 1000d74:	e0fff617 	ldw	r3,-40(fp)
 1000d78:	008003f4 	movhi	r2,15
 1000d7c:	10909004 	addi	r2,r2,16960
 1000d80:	1880a51e 	bne	r3,r2,1001018 <main+0xd0c>
				delay = 0;
 1000d84:	e03ff615 	stw	zero,-40(fp)
				data_flag = 0;
 1000d88:	d020eb05 	stb	zero,-31828(gp)
				create_pkt();
 1000d8c:	10023880 	call	1002388 <create_pkt>
				data++;
 1000d90:	e0bfd2c3 	ldbu	r2,-181(fp)
 1000d94:	10800044 	addi	r2,r2,1
 1000d98:	e0bfd2c5 	stb	r2,-181(fp)
				memcpy(tx_frame+24, "\x08",1);
 1000d9c:	00804074 	movhi	r2,257
 1000da0:	10b7bf84 	addi	r2,r2,-8450
 1000da4:	01800044 	movi	r6,1
 1000da8:	01404074 	movhi	r5,257
 1000dac:	296be704 	addi	r5,r5,-20580
 1000db0:	1009883a 	mov	r4,r2
 1000db4:	10025e00 	call	10025e0 <memcpy>
				memcpy(tx_frame+25, &data, 1);
 1000db8:	00804074 	movhi	r2,257
 1000dbc:	10b7bfc4 	addi	r2,r2,-8449
 1000dc0:	e0ffd2c3 	ldbu	r3,-181(fp)
 1000dc4:	10c00005 	stb	r3,0(r2)
				alt_printf("\n DATA TX_FRAME: %x %x %x %x %x %x    %x %x %x %x %x %x    %x %x   %x %x   %x %x   %x %x   %x %x   %x  %x\n",tx_frame[2],tx_frame[3],tx_frame[4],tx_frame[5],tx_frame[6],tx_frame[7],tx_frame[8],tx_frame[9],tx_frame[10],tx_frame[11],tx_frame[12],tx_frame[13],tx_frame[14],tx_frame[15],tx_frame[16],tx_frame[17],tx_frame[18],tx_frame[19],tx_frame[20],tx_frame[21],tx_frame[22],tx_frame[23],tx_frame[24],tx_frame[25],tx_frame[26]);
 1000dc8:	00804074 	movhi	r2,257
 1000dcc:	10b7ba03 	ldbu	r2,-8472(r2)
 1000dd0:	17c03fcc 	andi	ra,r2,255
 1000dd4:	00804074 	movhi	r2,257
 1000dd8:	10b7ba43 	ldbu	r2,-8471(r2)
 1000ddc:	10803fcc 	andi	r2,r2,255
 1000de0:	e0bfd115 	stw	r2,-188(fp)
 1000de4:	00804074 	movhi	r2,257
 1000de8:	10b7ba83 	ldbu	r2,-8470(r2)
 1000dec:	10c03fcc 	andi	r3,r2,255
 1000df0:	e0ffd015 	stw	r3,-192(fp)
 1000df4:	00804074 	movhi	r2,257
 1000df8:	10b7bac3 	ldbu	r2,-8469(r2)
 1000dfc:	11003fcc 	andi	r4,r2,255
 1000e00:	00804074 	movhi	r2,257
 1000e04:	10b7bb03 	ldbu	r2,-8468(r2)
 1000e08:	11403fcc 	andi	r5,r2,255
 1000e0c:	00804074 	movhi	r2,257
 1000e10:	10b7bb43 	ldbu	r2,-8467(r2)
 1000e14:	11803fcc 	andi	r6,r2,255
 1000e18:	00804074 	movhi	r2,257
 1000e1c:	10b7bb83 	ldbu	r2,-8466(r2)
 1000e20:	11c03fcc 	andi	r7,r2,255
 1000e24:	00804074 	movhi	r2,257
 1000e28:	10b7bbc3 	ldbu	r2,-8465(r2)
 1000e2c:	12003fcc 	andi	r8,r2,255
 1000e30:	00804074 	movhi	r2,257
 1000e34:	10b7bc03 	ldbu	r2,-8464(r2)
 1000e38:	12403fcc 	andi	r9,r2,255
 1000e3c:	00804074 	movhi	r2,257
 1000e40:	10b7bc43 	ldbu	r2,-8463(r2)
 1000e44:	12803fcc 	andi	r10,r2,255
 1000e48:	00804074 	movhi	r2,257
 1000e4c:	10b7bc83 	ldbu	r2,-8462(r2)
 1000e50:	12c03fcc 	andi	r11,r2,255
 1000e54:	00804074 	movhi	r2,257
 1000e58:	10b7bcc3 	ldbu	r2,-8461(r2)
 1000e5c:	13003fcc 	andi	r12,r2,255
 1000e60:	00804074 	movhi	r2,257
 1000e64:	10b7bd03 	ldbu	r2,-8460(r2)
 1000e68:	13403fcc 	andi	r13,r2,255
 1000e6c:	00804074 	movhi	r2,257
 1000e70:	10b7bd43 	ldbu	r2,-8459(r2)
 1000e74:	13803fcc 	andi	r14,r2,255
 1000e78:	00804074 	movhi	r2,257
 1000e7c:	10b7bd83 	ldbu	r2,-8458(r2)
 1000e80:	13c03fcc 	andi	r15,r2,255
 1000e84:	00804074 	movhi	r2,257
 1000e88:	10b7bdc3 	ldbu	r2,-8457(r2)
 1000e8c:	14003fcc 	andi	r16,r2,255
 1000e90:	00804074 	movhi	r2,257
 1000e94:	10b7be03 	ldbu	r2,-8456(r2)
 1000e98:	14403fcc 	andi	r17,r2,255
 1000e9c:	00804074 	movhi	r2,257
 1000ea0:	10b7be43 	ldbu	r2,-8455(r2)
 1000ea4:	14803fcc 	andi	r18,r2,255
 1000ea8:	00804074 	movhi	r2,257
 1000eac:	10b7be83 	ldbu	r2,-8454(r2)
 1000eb0:	14c03fcc 	andi	r19,r2,255
 1000eb4:	00804074 	movhi	r2,257
 1000eb8:	10b7bec3 	ldbu	r2,-8453(r2)
 1000ebc:	15003fcc 	andi	r20,r2,255
 1000ec0:	00804074 	movhi	r2,257
 1000ec4:	10b7bf03 	ldbu	r2,-8452(r2)
 1000ec8:	15403fcc 	andi	r21,r2,255
 1000ecc:	00804074 	movhi	r2,257
 1000ed0:	10b7bf43 	ldbu	r2,-8451(r2)
 1000ed4:	15803fcc 	andi	r22,r2,255
 1000ed8:	00804074 	movhi	r2,257
 1000edc:	10b7bf83 	ldbu	r2,-8450(r2)
 1000ee0:	15c03fcc 	andi	r23,r2,255
 1000ee4:	00804074 	movhi	r2,257
 1000ee8:	10b7bfc3 	ldbu	r2,-8449(r2)
 1000eec:	10c03fcc 	andi	r3,r2,255
 1000ef0:	00804074 	movhi	r2,257
 1000ef4:	10b7c003 	ldbu	r2,-8448(r2)
 1000ef8:	10803fcc 	andi	r2,r2,255
 1000efc:	d8801515 	stw	r2,84(sp)
 1000f00:	d8c01415 	stw	r3,80(sp)
 1000f04:	ddc01315 	stw	r23,76(sp)
 1000f08:	dd801215 	stw	r22,72(sp)
 1000f0c:	dd401115 	stw	r21,68(sp)
 1000f10:	dd001015 	stw	r20,64(sp)
 1000f14:	dcc00f15 	stw	r19,60(sp)
 1000f18:	dc800e15 	stw	r18,56(sp)
 1000f1c:	dc400d15 	stw	r17,52(sp)
 1000f20:	dc000c15 	stw	r16,48(sp)
 1000f24:	dbc00b15 	stw	r15,44(sp)
 1000f28:	db800a15 	stw	r14,40(sp)
 1000f2c:	db400915 	stw	r13,36(sp)
 1000f30:	db000815 	stw	r12,32(sp)
 1000f34:	dac00715 	stw	r11,28(sp)
 1000f38:	da800615 	stw	r10,24(sp)
 1000f3c:	da400515 	stw	r9,20(sp)
 1000f40:	da000415 	stw	r8,16(sp)
 1000f44:	d9c00315 	stw	r7,12(sp)
 1000f48:	d9800215 	stw	r6,8(sp)
 1000f4c:	d9400115 	stw	r5,4(sp)
 1000f50:	d9000015 	stw	r4,0(sp)
 1000f54:	e1ffd017 	ldw	r7,-192(fp)
 1000f58:	e1bfd117 	ldw	r6,-188(fp)
 1000f5c:	f80b883a 	mov	r5,ra
 1000f60:	01004074 	movhi	r4,257
 1000f64:	212be804 	addi	r4,r4,-20576
 1000f68:	10030c40 	call	10030c4 <alt_printf>
				alt_dcache_flush_all();
 1000f6c:	1002f3c0 	call	1002f3c <alt_dcache_flush_all>
				alt_avalon_sgdma_construct_mem_to_stream_desc(&tx_descriptor, &tx_descriptor_end, (alt_u32 *)tx_frame, 64, 0, 1, 1, 0);
 1000f70:	d8000315 	stw	zero,12(sp)
 1000f74:	00800044 	movi	r2,1
 1000f78:	d8800215 	stw	r2,8(sp)
 1000f7c:	00800044 	movi	r2,1
 1000f80:	d8800115 	stw	r2,4(sp)
 1000f84:	d8000015 	stw	zero,0(sp)
 1000f88:	01c01004 	movi	r7,64
 1000f8c:	01804074 	movhi	r6,257
 1000f90:	31b7b984 	addi	r6,r6,-8474
 1000f94:	01408034 	movhi	r5,512
 1000f98:	29400804 	addi	r5,r5,32
 1000f9c:	01008034 	movhi	r4,512
 1000fa0:	21000004 	addi	r4,r4,0
 1000fa4:	1003bc40 	call	1003bc4 <alt_avalon_sgdma_construct_mem_to_stream_desc>
				alt_avalon_sgdma_do_async_transfer( sgdma_tx_dev, &tx_descriptor );
 1000fa8:	d0a0ec17 	ldw	r2,-31824(gp)
 1000fac:	01408034 	movhi	r5,512
 1000fb0:	29400004 	addi	r5,r5,0
 1000fb4:	1009883a 	mov	r4,r2
 1000fb8:	10037c00 	call	10037c0 <alt_avalon_sgdma_do_async_transfer>
				while (alt_avalon_sgdma_check_descriptor_status(&tx_descriptor) != 0);
 1000fbc:	0001883a 	nop
 1000fc0:	01008034 	movhi	r4,512
 1000fc4:	21000004 	addi	r4,r4,0
 1000fc8:	1003dd80 	call	1003dd8 <alt_avalon_sgdma_check_descriptor_status>
 1000fcc:	103ffc1e 	bne	r2,zero,1000fc0 <main+0xcb4>

	/*** Starting Timer for DATA transmission  ****************************************/

				IOWR_ALTERA_AVALON_TIMER_STATUS(TIMER_0_BASE, 0x0002);
 1000fd0:	00c00084 	movi	r3,2
 1000fd4:	00808034 	movhi	r2,512
 1000fd8:	10cd2035 	stwio	r3,13440(r2)
				IOWR_ALTERA_AVALON_TIMER_PERIODL(TIMER_0_BASE , 0xAAAA);
 1000fdc:	00eaaa94 	movui	r3,43690
 1000fe0:	00808034 	movhi	r2,512
 1000fe4:	10cd2235 	stwio	r3,13448(r2)
				IOWR_ALTERA_AVALON_TIMER_PERIODH(TIMER_0_BASE , 0x002F);
 1000fe8:	00c00bc4 	movi	r3,47
 1000fec:	00808034 	movhi	r2,512
 1000ff0:	10cd2335 	stwio	r3,13452(r2)
				IOWR_ALTERA_AVALON_TIMER_CONTROL(TIMER_0_BASE, 0x0007);
 1000ff4:	00c001c4 	movi	r3,7
 1000ff8:	00808034 	movhi	r2,512
 1000ffc:	10cd2135 	stwio	r3,13444(r2)
				TCP[0].seq_num++;
 1001000:	00804074 	movhi	r2,257
 1001004:	10b9d20b 	ldhu	r2,-6328(r2)
 1001008:	10800044 	addi	r2,r2,1
 100100c:	1007883a 	mov	r3,r2
 1001010:	00804074 	movhi	r2,257
 1001014:	10f9d20d 	sth	r3,-6328(r2)
			}
			if (delay > 1000000){
 1001018:	e0fff617 	ldw	r3,-40(fp)
 100101c:	008003f4 	movhi	r2,15
 1001020:	10909004 	addi	r2,r2,16960
 1001024:	10c0010e 	bge	r2,r3,100102c <main+0xd20>
				delay=0;
 1001028:	e03ff615 	stw	zero,-40(fp)
			}
		}

/******* Condition to check for re transmission *************************************/
/*** Stop Retransmitting and exit if retransmit count reaches 50 (actual ethernet exits after count 16) ********************/
		n = IORD_ALTERA_AVALON_TIMER_STATUS(TIMER_0_BASE);
 100102c:	00808034 	movhi	r2,512
 1001030:	108d2037 	ldwio	r2,13440(r2)
 1001034:	e0bff215 	stw	r2,-56(fp)
		if(n == 3){
 1001038:	e0bff217 	ldw	r2,-56(fp)
 100103c:	108000d8 	cmpnei	r2,r2,3
 1001040:	103dea1e 	bne	r2,zero,10007ec <main+0x4e0>
			retr_count++;
 1001044:	d0a0e943 	ldbu	r2,-31835(gp)
 1001048:	10800044 	addi	r2,r2,1
 100104c:	d0a0e945 	stb	r2,-31835(gp)
				if(retr_count>=50){
 1001050:	d0a0e943 	ldbu	r2,-31835(gp)
 1001054:	10803fcc 	andi	r2,r2,255
 1001058:	10800cb0 	cmpltui	r2,r2,50
 100105c:	1000051e 	bne	r2,zero,1001074 <main+0xd68>
					retr_count = 0;
 1001060:	d020e945 	stb	zero,-31835(gp)
					alt_printf("\n retransmission limit exceeded, DISCONNECTED!!!");
 1001064:	01004074 	movhi	r4,257
 1001068:	212c0304 	addi	r4,r4,-20468
 100106c:	10030c40 	call	10030c4 <alt_printf>
					break;
 1001070:	00009306 	br	10012c0 <main+0xfb4>
						}
/*** Stopping Timer if already running and starting timer for Data transmission ******************************************/
			IOWR_ALTERA_AVALON_TIMER_CONTROL(TIMER_0_BASE, 0x0008);
 1001074:	00c00204 	movi	r3,8
 1001078:	00808034 	movhi	r2,512
 100107c:	10cd2135 	stwio	r3,13444(r2)
			IOWR_ALTERA_AVALON_TIMER_STATUS(TIMER_0_BASE, 0x0002);
 1001080:	00c00084 	movi	r3,2
 1001084:	00808034 	movhi	r2,512
 1001088:	10cd2035 	stwio	r3,13440(r2)

			//Transmit Function
			alt_printf("\n RE TX_FRAME: %x %x %x %x %x %x    %x %x %x %x %x %x    %x %x   %x %x   %x %x   %x %x   %x %x   %x \n",tx_frame[2],tx_frame[3],tx_frame[4],tx_frame[5],tx_frame[6],tx_frame[7],tx_frame[8],tx_frame[9],tx_frame[10],tx_frame[11],tx_frame[12],tx_frame[13],tx_frame[14],tx_frame[15],tx_frame[16],tx_frame[17],tx_frame[18],tx_frame[19],tx_frame[20],tx_frame[21],tx_frame[22],tx_frame[23],tx_frame[24],tx_frame[25]);
 100108c:	00804074 	movhi	r2,257
 1001090:	10b7ba03 	ldbu	r2,-8472(r2)
 1001094:	15c03fcc 	andi	r23,r2,255
 1001098:	00804074 	movhi	r2,257
 100109c:	10b7ba43 	ldbu	r2,-8471(r2)
 10010a0:	17c03fcc 	andi	ra,r2,255
 10010a4:	00804074 	movhi	r2,257
 10010a8:	10b7ba83 	ldbu	r2,-8470(r2)
 10010ac:	10803fcc 	andi	r2,r2,255
 10010b0:	e0bfd115 	stw	r2,-188(fp)
 10010b4:	00804074 	movhi	r2,257
 10010b8:	10b7bac3 	ldbu	r2,-8469(r2)
 10010bc:	10c03fcc 	andi	r3,r2,255
 10010c0:	00804074 	movhi	r2,257
 10010c4:	10b7bb03 	ldbu	r2,-8468(r2)
 10010c8:	11003fcc 	andi	r4,r2,255
 10010cc:	00804074 	movhi	r2,257
 10010d0:	10b7bb43 	ldbu	r2,-8467(r2)
 10010d4:	11403fcc 	andi	r5,r2,255
 10010d8:	00804074 	movhi	r2,257
 10010dc:	10b7bb83 	ldbu	r2,-8466(r2)
 10010e0:	11803fcc 	andi	r6,r2,255
 10010e4:	00804074 	movhi	r2,257
 10010e8:	10b7bbc3 	ldbu	r2,-8465(r2)
 10010ec:	11c03fcc 	andi	r7,r2,255
 10010f0:	00804074 	movhi	r2,257
 10010f4:	10b7bc03 	ldbu	r2,-8464(r2)
 10010f8:	12003fcc 	andi	r8,r2,255
 10010fc:	00804074 	movhi	r2,257
 1001100:	10b7bc43 	ldbu	r2,-8463(r2)
 1001104:	12403fcc 	andi	r9,r2,255
 1001108:	00804074 	movhi	r2,257
 100110c:	10b7bc83 	ldbu	r2,-8462(r2)
 1001110:	12803fcc 	andi	r10,r2,255
 1001114:	00804074 	movhi	r2,257
 1001118:	10b7bcc3 	ldbu	r2,-8461(r2)
 100111c:	12c03fcc 	andi	r11,r2,255
 1001120:	00804074 	movhi	r2,257
 1001124:	10b7bd03 	ldbu	r2,-8460(r2)
 1001128:	13003fcc 	andi	r12,r2,255
 100112c:	00804074 	movhi	r2,257
 1001130:	10b7bd43 	ldbu	r2,-8459(r2)
 1001134:	13403fcc 	andi	r13,r2,255
 1001138:	00804074 	movhi	r2,257
 100113c:	10b7bd83 	ldbu	r2,-8458(r2)
 1001140:	13803fcc 	andi	r14,r2,255
 1001144:	00804074 	movhi	r2,257
 1001148:	10b7bdc3 	ldbu	r2,-8457(r2)
 100114c:	13c03fcc 	andi	r15,r2,255
 1001150:	00804074 	movhi	r2,257
 1001154:	10b7be03 	ldbu	r2,-8456(r2)
 1001158:	14003fcc 	andi	r16,r2,255
 100115c:	00804074 	movhi	r2,257
 1001160:	10b7be43 	ldbu	r2,-8455(r2)
 1001164:	14403fcc 	andi	r17,r2,255
 1001168:	00804074 	movhi	r2,257
 100116c:	10b7be83 	ldbu	r2,-8454(r2)
 1001170:	14803fcc 	andi	r18,r2,255
 1001174:	00804074 	movhi	r2,257
 1001178:	10b7bec3 	ldbu	r2,-8453(r2)
 100117c:	14c03fcc 	andi	r19,r2,255
 1001180:	00804074 	movhi	r2,257
 1001184:	10b7bf03 	ldbu	r2,-8452(r2)
 1001188:	15003fcc 	andi	r20,r2,255
 100118c:	00804074 	movhi	r2,257
 1001190:	10b7bf43 	ldbu	r2,-8451(r2)
 1001194:	15403fcc 	andi	r21,r2,255
 1001198:	00804074 	movhi	r2,257
 100119c:	10b7bf83 	ldbu	r2,-8450(r2)
 10011a0:	15803fcc 	andi	r22,r2,255
 10011a4:	00804074 	movhi	r2,257
 10011a8:	10b7bfc3 	ldbu	r2,-8449(r2)
 10011ac:	10803fcc 	andi	r2,r2,255
 10011b0:	d8801415 	stw	r2,80(sp)
 10011b4:	dd801315 	stw	r22,76(sp)
 10011b8:	dd401215 	stw	r21,72(sp)
 10011bc:	dd001115 	stw	r20,68(sp)
 10011c0:	dcc01015 	stw	r19,64(sp)
 10011c4:	dc800f15 	stw	r18,60(sp)
 10011c8:	dc400e15 	stw	r17,56(sp)
 10011cc:	dc000d15 	stw	r16,52(sp)
 10011d0:	dbc00c15 	stw	r15,48(sp)
 10011d4:	db800b15 	stw	r14,44(sp)
 10011d8:	db400a15 	stw	r13,40(sp)
 10011dc:	db000915 	stw	r12,36(sp)
 10011e0:	dac00815 	stw	r11,32(sp)
 10011e4:	da800715 	stw	r10,28(sp)
 10011e8:	da400615 	stw	r9,24(sp)
 10011ec:	da000515 	stw	r8,20(sp)
 10011f0:	d9c00415 	stw	r7,16(sp)
 10011f4:	d9800315 	stw	r6,12(sp)
 10011f8:	d9400215 	stw	r5,8(sp)
 10011fc:	d9000115 	stw	r4,4(sp)
 1001200:	d8c00015 	stw	r3,0(sp)
 1001204:	e1ffd117 	ldw	r7,-188(fp)
 1001208:	f80d883a 	mov	r6,ra
 100120c:	b80b883a 	mov	r5,r23
 1001210:	01004074 	movhi	r4,257
 1001214:	212c1004 	addi	r4,r4,-20416
 1001218:	10030c40 	call	10030c4 <alt_printf>
			alt_dcache_flush_all();
 100121c:	1002f3c0 	call	1002f3c <alt_dcache_flush_all>
			alt_avalon_sgdma_construct_mem_to_stream_desc(&tx_descriptor, &tx_descriptor_end, (alt_u32 *)tx_frame, 64, 0, 1, 1, 0);
 1001220:	d8000315 	stw	zero,12(sp)
 1001224:	00800044 	movi	r2,1
 1001228:	d8800215 	stw	r2,8(sp)
 100122c:	00800044 	movi	r2,1
 1001230:	d8800115 	stw	r2,4(sp)
 1001234:	d8000015 	stw	zero,0(sp)
 1001238:	01c01004 	movi	r7,64
 100123c:	01804074 	movhi	r6,257
 1001240:	31b7b984 	addi	r6,r6,-8474
 1001244:	01408034 	movhi	r5,512
 1001248:	29400804 	addi	r5,r5,32
 100124c:	01008034 	movhi	r4,512
 1001250:	21000004 	addi	r4,r4,0
 1001254:	1003bc40 	call	1003bc4 <alt_avalon_sgdma_construct_mem_to_stream_desc>
			alt_avalon_sgdma_do_async_transfer( sgdma_tx_dev, &tx_descriptor );
 1001258:	d0a0ec17 	ldw	r2,-31824(gp)
 100125c:	01408034 	movhi	r5,512
 1001260:	29400004 	addi	r5,r5,0
 1001264:	1009883a 	mov	r4,r2
 1001268:	10037c00 	call	10037c0 <alt_avalon_sgdma_do_async_transfer>
			while (alt_avalon_sgdma_check_descriptor_status(&tx_descriptor) != 0);
 100126c:	0001883a 	nop
 1001270:	01008034 	movhi	r4,512
 1001274:	21000004 	addi	r4,r4,0
 1001278:	1003dd80 	call	1003dd8 <alt_avalon_sgdma_check_descriptor_status>
 100127c:	103ffc1e 	bne	r2,zero,1001270 <main+0xf64>

			/************************ start timer******************************************/
			IOWR_ALTERA_AVALON_TIMER_PERIODL(TIMER_0_BASE , 0xAAAA);
 1001280:	00eaaa94 	movui	r3,43690
 1001284:	00808034 	movhi	r2,512
 1001288:	10cd2235 	stwio	r3,13448(r2)
			IOWR_ALTERA_AVALON_TIMER_PERIODH(TIMER_0_BASE , 0x02FF);
 100128c:	00c0bfc4 	movi	r3,767
 1001290:	00808034 	movhi	r2,512
 1001294:	10cd2335 	stwio	r3,13452(r2)
			IOWR_ALTERA_AVALON_TIMER_CONTROL(TIMER_0_BASE, 0x0007);
 1001298:	00c001c4 	movi	r3,7
 100129c:	00808034 	movhi	r2,512
 10012a0:	10cd2135 	stwio	r3,13444(r2)
			alt_printf("\nRetx timer started for SYN, status:%d  count:%d,",IORD_ALTERA_AVALON_TIMER_STATUS(TIMER_0_BASE));
 10012a4:	00808034 	movhi	r2,512
 10012a8:	108d2037 	ldwio	r2,13440(r2)
 10012ac:	100b883a 	mov	r5,r2
 10012b0:	01004074 	movhi	r4,257
 10012b4:	212c2a04 	addi	r4,r4,-20312
 10012b8:	10030c40 	call	10030c4 <alt_printf>
		in =  IORD_ALTERA_AVALON_PIO_DATA(SWITCH_BASE); //read the input from the switch
 10012bc:	003d4b06 	br	10007ec <main+0x4e0>

		}
	}
	return 0;
 10012c0:	0005883a 	mov	r2,zero
}
 10012c4:	e6fff804 	addi	sp,fp,-32
 10012c8:	dfc00917 	ldw	ra,36(sp)
 10012cc:	df000817 	ldw	fp,32(sp)
 10012d0:	ddc00717 	ldw	r23,28(sp)
 10012d4:	dd800617 	ldw	r22,24(sp)
 10012d8:	dd400517 	ldw	r21,20(sp)
 10012dc:	dd000417 	ldw	r20,16(sp)
 10012e0:	dcc00317 	ldw	r19,12(sp)
 10012e4:	dc800217 	ldw	r18,8(sp)
 10012e8:	dc400117 	ldw	r17,4(sp)
 10012ec:	dc000017 	ldw	r16,0(sp)
 10012f0:	dec00a04 	addi	sp,sp,40
 10012f4:	f800283a 	ret

010012f8 <rx_ethernet_isr>:

/****************************************************************************************
 * Subroutine to read incoming Ethernet frames
****************************************************************************************/
void rx_ethernet_isr (void *context)
{
 10012f8:	deffdb04 	addi	sp,sp,-148
 10012fc:	dfc02415 	stw	ra,144(sp)
 1001300:	df002315 	stw	fp,140(sp)
 1001304:	ddc02215 	stw	r23,136(sp)
 1001308:	dd802115 	stw	r22,132(sp)
 100130c:	dd402015 	stw	r21,128(sp)
 1001310:	dd001f15 	stw	r20,124(sp)
 1001314:	dcc01e15 	stw	r19,120(sp)
 1001318:	dc801d15 	stw	r18,116(sp)
 100131c:	dc401c15 	stw	r17,112(sp)
 1001320:	dc001b15 	stw	r16,108(sp)
 1001324:	df002304 	addi	fp,sp,140
 1001328:	e13ff515 	stw	r4,-44(fp)
	retr_count = 0;
 100132c:	d020e945 	stb	zero,-31835(gp)
	pckt_rxed++;
 1001330:	d0a0e717 	ldw	r2,-31844(gp)
 1001334:	10800044 	addi	r2,r2,1
 1001338:	d0a0e715 	stw	r2,-31844(gp)
	in =  IORD_ALTERA_AVALON_PIO_DATA(SWITCH_BASE); //read the input from the switch
 100133c:	00808034 	movhi	r2,512
 1001340:	108d2837 	ldwio	r2,13472(r2)
 1001344:	d0a0ea15 	stw	r2,-31832(gp)

/***** If key 3 is ON drop receiving packets ***************************************/

	if((in & 0x04) == 0x00){
 1001348:	d0a0ea17 	ldw	r2,-31832(gp)
 100134c:	1080010c 	andi	r2,r2,4
 1001350:	1000141e 	bne	r2,zero,10013a4 <rx_ethernet_isr+0xac>
			while (alt_avalon_sgdma_check_descriptor_status(&rx_descriptor) != 0);
 1001354:	0001883a 	nop
 1001358:	01008034 	movhi	r4,512
 100135c:	21001004 	addi	r4,r4,64
 1001360:	1003dd80 	call	1003dd8 <alt_avalon_sgdma_check_descriptor_status>
 1001364:	103ffc1e 	bne	r2,zero,1001358 <rx_ethernet_isr+0x60>
			// Create new receive sgdma descriptor
			alt_avalon_sgdma_construct_stream_to_mem_desc( &rx_descriptor, &rx_descriptor_end, (alt_u32 *)rx_frame, 0, 0 );
 1001368:	d8000015 	stw	zero,0(sp)
 100136c:	000f883a 	mov	r7,zero
 1001370:	01804074 	movhi	r6,257
 1001374:	31b63e04 	addi	r6,r6,-9992
 1001378:	01408034 	movhi	r5,512
 100137c:	29401804 	addi	r5,r5,96
 1001380:	01008034 	movhi	r4,512
 1001384:	21001004 	addi	r4,r4,64
 1001388:	1003aec0 	call	1003aec <alt_avalon_sgdma_construct_stream_to_mem_desc>
			// Set up non-blocking transfer of sgdma receive descriptor
			alt_avalon_sgdma_do_async_transfer( sgdma_rx_dev, &rx_descriptor );
 100138c:	d0a0ed17 	ldw	r2,-31820(gp)
 1001390:	01408034 	movhi	r5,512
 1001394:	29401004 	addi	r5,r5,64
 1001398:	1009883a 	mov	r4,r2
 100139c:	10037c00 	call	10037c0 <alt_avalon_sgdma_do_async_transfer>
			return;
 10013a0:	0003ec06 	br	1002354 <rx_ethernet_isr+0x105c>
	}
    int sucessFrm;
    int crcErrorFrm;
    sucessFrm=*(tse+0x1B);
 10013a4:	d0a00017 	ldw	r2,-32768(gp)
 10013a8:	10801b17 	ldw	r2,108(r2)
 10013ac:	e0bff715 	stw	r2,-36(fp)
    crcErrorFrm=*(tse+0x1C);
 10013b0:	d0a00017 	ldw	r2,-32768(gp)
 10013b4:	10801c17 	ldw	r2,112(r2)
 10013b8:	e0bff615 	stw	r2,-40(fp)
	alt_printf("\nRX_FRAME: %x %x %x %x %x %x   %x %x %x %x %x %x    %x %x   %x %x   %x %x   %x %x   %x %x  %x  %x\n",rx_frame[2],rx_frame[3],rx_frame[4],rx_frame[5],rx_frame[6],rx_frame[7],rx_frame[8],rx_frame[9],rx_frame[10],rx_frame[11],rx_frame[12],rx_frame[13],rx_frame[14],rx_frame[15],rx_frame[16],rx_frame[17],rx_frame[18],rx_frame[19],rx_frame[20],rx_frame[21],rx_frame[22],rx_frame[23],rx_frame[24],rx_frame[25],rx_frame[26]);
 10013bc:	00804074 	movhi	r2,257
 10013c0:	10b63e83 	ldbu	r2,-9990(r2)
 10013c4:	17c03fcc 	andi	ra,r2,255
 10013c8:	00804074 	movhi	r2,257
 10013cc:	10b63ec3 	ldbu	r2,-9989(r2)
 10013d0:	10803fcc 	andi	r2,r2,255
 10013d4:	e0bff415 	stw	r2,-48(fp)
 10013d8:	00804074 	movhi	r2,257
 10013dc:	10b63f03 	ldbu	r2,-9988(r2)
 10013e0:	10c03fcc 	andi	r3,r2,255
 10013e4:	e0fff315 	stw	r3,-52(fp)
 10013e8:	00804074 	movhi	r2,257
 10013ec:	10b63f43 	ldbu	r2,-9987(r2)
 10013f0:	11003fcc 	andi	r4,r2,255
 10013f4:	00804074 	movhi	r2,257
 10013f8:	10b63f83 	ldbu	r2,-9986(r2)
 10013fc:	11403fcc 	andi	r5,r2,255
 1001400:	00804074 	movhi	r2,257
 1001404:	10b63fc3 	ldbu	r2,-9985(r2)
 1001408:	11803fcc 	andi	r6,r2,255
 100140c:	00804074 	movhi	r2,257
 1001410:	10b64003 	ldbu	r2,-9984(r2)
 1001414:	11c03fcc 	andi	r7,r2,255
 1001418:	00804074 	movhi	r2,257
 100141c:	10b64043 	ldbu	r2,-9983(r2)
 1001420:	12003fcc 	andi	r8,r2,255
 1001424:	00804074 	movhi	r2,257
 1001428:	10b64083 	ldbu	r2,-9982(r2)
 100142c:	12403fcc 	andi	r9,r2,255
 1001430:	00804074 	movhi	r2,257
 1001434:	10b640c3 	ldbu	r2,-9981(r2)
 1001438:	12803fcc 	andi	r10,r2,255
 100143c:	00804074 	movhi	r2,257
 1001440:	10b64103 	ldbu	r2,-9980(r2)
 1001444:	12c03fcc 	andi	r11,r2,255
 1001448:	00804074 	movhi	r2,257
 100144c:	10b64143 	ldbu	r2,-9979(r2)
 1001450:	13003fcc 	andi	r12,r2,255
 1001454:	00804074 	movhi	r2,257
 1001458:	10b64183 	ldbu	r2,-9978(r2)
 100145c:	13403fcc 	andi	r13,r2,255
 1001460:	00804074 	movhi	r2,257
 1001464:	10b641c3 	ldbu	r2,-9977(r2)
 1001468:	13803fcc 	andi	r14,r2,255
 100146c:	00804074 	movhi	r2,257
 1001470:	10b64203 	ldbu	r2,-9976(r2)
 1001474:	13c03fcc 	andi	r15,r2,255
 1001478:	00804074 	movhi	r2,257
 100147c:	10b64243 	ldbu	r2,-9975(r2)
 1001480:	14003fcc 	andi	r16,r2,255
 1001484:	00804074 	movhi	r2,257
 1001488:	10b64283 	ldbu	r2,-9974(r2)
 100148c:	14403fcc 	andi	r17,r2,255
 1001490:	00804074 	movhi	r2,257
 1001494:	10b642c3 	ldbu	r2,-9973(r2)
 1001498:	14803fcc 	andi	r18,r2,255
 100149c:	00804074 	movhi	r2,257
 10014a0:	10b64303 	ldbu	r2,-9972(r2)
 10014a4:	14c03fcc 	andi	r19,r2,255
 10014a8:	00804074 	movhi	r2,257
 10014ac:	10b64343 	ldbu	r2,-9971(r2)
 10014b0:	15003fcc 	andi	r20,r2,255
 10014b4:	00804074 	movhi	r2,257
 10014b8:	10b64383 	ldbu	r2,-9970(r2)
 10014bc:	15403fcc 	andi	r21,r2,255
 10014c0:	00804074 	movhi	r2,257
 10014c4:	10b643c3 	ldbu	r2,-9969(r2)
 10014c8:	15803fcc 	andi	r22,r2,255
 10014cc:	00804074 	movhi	r2,257
 10014d0:	10b64403 	ldbu	r2,-9968(r2)
 10014d4:	15c03fcc 	andi	r23,r2,255
 10014d8:	00804074 	movhi	r2,257
 10014dc:	10b64443 	ldbu	r2,-9967(r2)
 10014e0:	10c03fcc 	andi	r3,r2,255
 10014e4:	00804074 	movhi	r2,257
 10014e8:	10b64483 	ldbu	r2,-9966(r2)
 10014ec:	10803fcc 	andi	r2,r2,255
 10014f0:	d8801515 	stw	r2,84(sp)
 10014f4:	d8c01415 	stw	r3,80(sp)
 10014f8:	ddc01315 	stw	r23,76(sp)
 10014fc:	dd801215 	stw	r22,72(sp)
 1001500:	dd401115 	stw	r21,68(sp)
 1001504:	dd001015 	stw	r20,64(sp)
 1001508:	dcc00f15 	stw	r19,60(sp)
 100150c:	dc800e15 	stw	r18,56(sp)
 1001510:	dc400d15 	stw	r17,52(sp)
 1001514:	dc000c15 	stw	r16,48(sp)
 1001518:	dbc00b15 	stw	r15,44(sp)
 100151c:	db800a15 	stw	r14,40(sp)
 1001520:	db400915 	stw	r13,36(sp)
 1001524:	db000815 	stw	r12,32(sp)
 1001528:	dac00715 	stw	r11,28(sp)
 100152c:	da800615 	stw	r10,24(sp)
 1001530:	da400515 	stw	r9,20(sp)
 1001534:	da000415 	stw	r8,16(sp)
 1001538:	d9c00315 	stw	r7,12(sp)
 100153c:	d9800215 	stw	r6,8(sp)
 1001540:	d9400115 	stw	r5,4(sp)
 1001544:	d9000015 	stw	r4,0(sp)
 1001548:	e1fff317 	ldw	r7,-52(fp)
 100154c:	e1bff417 	ldw	r6,-48(fp)
 1001550:	f80b883a 	mov	r5,ra
 1001554:	01004074 	movhi	r4,257
 1001558:	212c3704 	addi	r4,r4,-20260
 100155c:	10030c40 	call	10030c4 <alt_printf>
		alt_printf("Number of successful frames:%x\n",sucessFrm);
 1001560:	e17ff717 	ldw	r5,-36(fp)
 1001564:	01004074 	movhi	r4,257
 1001568:	212c5004 	addi	r4,r4,-20160
 100156c:	10030c40 	call	10030c4 <alt_printf>
	alt_printf("The number of receive frames with CRC error:%x\n",crcErrorFrm);
 1001570:	e17ff617 	ldw	r5,-40(fp)
 1001574:	01004074 	movhi	r4,257
 1001578:	212c5804 	addi	r4,r4,-20128
 100157c:	10030c40 	call	10030c4 <alt_printf>
	alt_dcache_flush_all();
 1001580:	1002f3c0 	call	1002f3c <alt_dcache_flush_all>

	IOWR_ALTERA_AVALON_TIMER_CONTROL(TIMER_0_BASE, 0x0008);
 1001584:	00c00204 	movi	r3,8
 1001588:	00808034 	movhi	r2,512
 100158c:	10cd2135 	stwio	r3,13444(r2)
	IOWR_ALTERA_AVALON_TIMER_STATUS(TIMER_0_BASE, 0x0000);
 1001590:	0007883a 	mov	r3,zero
 1001594:	00808034 	movhi	r2,512
 1001598:	10cd2035 	stwio	r3,13440(r2)

	succ_rxed++; // successfully received frame incrementing upon reception
 100159c:	d0a0e817 	ldw	r2,-31840(gp)
 10015a0:	10800044 	addi	r2,r2,1
 10015a4:	d0a0e815 	stw	r2,-31840(gp)
	/**** check if SYN frame is received *********************************************/
		if ( rx_frame [24] == 0x01) {
 10015a8:	00804074 	movhi	r2,257
 10015ac:	10b64403 	ldbu	r2,-9968(r2)
 10015b0:	10803fcc 	andi	r2,r2,255
 10015b4:	10800058 	cmpnei	r2,r2,1
 10015b8:	1000921e 	bne	r2,zero,1001804 <rx_ethernet_isr+0x50c>
			TCP[0].link = 1;
 10015bc:	00c00044 	movi	r3,1
 10015c0:	00804074 	movhi	r2,257
 10015c4:	10f9cd05 	stb	r3,-6348(r2)

	/******* Sending SYN-ACK Frame ***************************************/

			TCP[0].ack_num++;
 10015c8:	00804074 	movhi	r2,257
 10015cc:	10b9d18b 	ldhu	r2,-6330(r2)
 10015d0:	10800044 	addi	r2,r2,1
 10015d4:	1007883a 	mov	r3,r2
 10015d8:	00804074 	movhi	r2,257
 10015dc:	10f9d18d 	sth	r3,-6330(r2)
			create_pkt();
 10015e0:	10023880 	call	1002388 <create_pkt>
			memmove(tx_frame+24,"\x05",1);//Setting syn-ack
 10015e4:	00804074 	movhi	r2,257
 10015e8:	10b7bf84 	addi	r2,r2,-8450
 10015ec:	00c00144 	movi	r3,5
 10015f0:	10c00005 	stb	r3,0(r2)

			//transmit_packet();
			alt_printf("\n SYN/ACK TX_FRAME: %x %x %x %x %x %x    %x %x %x %x %x %x    %x %x   %x %x   %x %x   %x %x   %x %x   %x \n",tx_frame[2],tx_frame[3],tx_frame[4],tx_frame[5],tx_frame[6],tx_frame[7],tx_frame[8],tx_frame[9],tx_frame[10],tx_frame[11],tx_frame[12],tx_frame[13],tx_frame[14],tx_frame[15],tx_frame[16],tx_frame[17],tx_frame[18],tx_frame[19],tx_frame[20],tx_frame[21],tx_frame[22],tx_frame[23],tx_frame[24],tx_frame[25]);
 10015f4:	00804074 	movhi	r2,257
 10015f8:	10b7ba03 	ldbu	r2,-8472(r2)
 10015fc:	15c03fcc 	andi	r23,r2,255
 1001600:	00804074 	movhi	r2,257
 1001604:	10b7ba43 	ldbu	r2,-8471(r2)
 1001608:	17c03fcc 	andi	ra,r2,255
 100160c:	00804074 	movhi	r2,257
 1001610:	10b7ba83 	ldbu	r2,-8470(r2)
 1001614:	10803fcc 	andi	r2,r2,255
 1001618:	e0bff415 	stw	r2,-48(fp)
 100161c:	00804074 	movhi	r2,257
 1001620:	10b7bac3 	ldbu	r2,-8469(r2)
 1001624:	10c03fcc 	andi	r3,r2,255
 1001628:	00804074 	movhi	r2,257
 100162c:	10b7bb03 	ldbu	r2,-8468(r2)
 1001630:	11003fcc 	andi	r4,r2,255
 1001634:	00804074 	movhi	r2,257
 1001638:	10b7bb43 	ldbu	r2,-8467(r2)
 100163c:	11403fcc 	andi	r5,r2,255
 1001640:	00804074 	movhi	r2,257
 1001644:	10b7bb83 	ldbu	r2,-8466(r2)
 1001648:	11803fcc 	andi	r6,r2,255
 100164c:	00804074 	movhi	r2,257
 1001650:	10b7bbc3 	ldbu	r2,-8465(r2)
 1001654:	11c03fcc 	andi	r7,r2,255
 1001658:	00804074 	movhi	r2,257
 100165c:	10b7bc03 	ldbu	r2,-8464(r2)
 1001660:	12003fcc 	andi	r8,r2,255
 1001664:	00804074 	movhi	r2,257
 1001668:	10b7bc43 	ldbu	r2,-8463(r2)
 100166c:	12403fcc 	andi	r9,r2,255
 1001670:	00804074 	movhi	r2,257
 1001674:	10b7bc83 	ldbu	r2,-8462(r2)
 1001678:	12803fcc 	andi	r10,r2,255
 100167c:	00804074 	movhi	r2,257
 1001680:	10b7bcc3 	ldbu	r2,-8461(r2)
 1001684:	12c03fcc 	andi	r11,r2,255
 1001688:	00804074 	movhi	r2,257
 100168c:	10b7bd03 	ldbu	r2,-8460(r2)
 1001690:	13003fcc 	andi	r12,r2,255
 1001694:	00804074 	movhi	r2,257
 1001698:	10b7bd43 	ldbu	r2,-8459(r2)
 100169c:	13403fcc 	andi	r13,r2,255
 10016a0:	00804074 	movhi	r2,257
 10016a4:	10b7bd83 	ldbu	r2,-8458(r2)
 10016a8:	13803fcc 	andi	r14,r2,255
 10016ac:	00804074 	movhi	r2,257
 10016b0:	10b7bdc3 	ldbu	r2,-8457(r2)
 10016b4:	13c03fcc 	andi	r15,r2,255
 10016b8:	00804074 	movhi	r2,257
 10016bc:	10b7be03 	ldbu	r2,-8456(r2)
 10016c0:	14003fcc 	andi	r16,r2,255
 10016c4:	00804074 	movhi	r2,257
 10016c8:	10b7be43 	ldbu	r2,-8455(r2)
 10016cc:	14403fcc 	andi	r17,r2,255
 10016d0:	00804074 	movhi	r2,257
 10016d4:	10b7be83 	ldbu	r2,-8454(r2)
 10016d8:	14803fcc 	andi	r18,r2,255
 10016dc:	00804074 	movhi	r2,257
 10016e0:	10b7bec3 	ldbu	r2,-8453(r2)
 10016e4:	14c03fcc 	andi	r19,r2,255
 10016e8:	00804074 	movhi	r2,257
 10016ec:	10b7bf03 	ldbu	r2,-8452(r2)
 10016f0:	15003fcc 	andi	r20,r2,255
 10016f4:	00804074 	movhi	r2,257
 10016f8:	10b7bf43 	ldbu	r2,-8451(r2)
 10016fc:	15403fcc 	andi	r21,r2,255
 1001700:	00804074 	movhi	r2,257
 1001704:	10b7bf83 	ldbu	r2,-8450(r2)
 1001708:	15803fcc 	andi	r22,r2,255
 100170c:	00804074 	movhi	r2,257
 1001710:	10b7bfc3 	ldbu	r2,-8449(r2)
 1001714:	10803fcc 	andi	r2,r2,255
 1001718:	d8801415 	stw	r2,80(sp)
 100171c:	dd801315 	stw	r22,76(sp)
 1001720:	dd401215 	stw	r21,72(sp)
 1001724:	dd001115 	stw	r20,68(sp)
 1001728:	dcc01015 	stw	r19,64(sp)
 100172c:	dc800f15 	stw	r18,60(sp)
 1001730:	dc400e15 	stw	r17,56(sp)
 1001734:	dc000d15 	stw	r16,52(sp)
 1001738:	dbc00c15 	stw	r15,48(sp)
 100173c:	db800b15 	stw	r14,44(sp)
 1001740:	db400a15 	stw	r13,40(sp)
 1001744:	db000915 	stw	r12,36(sp)
 1001748:	dac00815 	stw	r11,32(sp)
 100174c:	da800715 	stw	r10,28(sp)
 1001750:	da400615 	stw	r9,24(sp)
 1001754:	da000515 	stw	r8,20(sp)
 1001758:	d9c00415 	stw	r7,16(sp)
 100175c:	d9800315 	stw	r6,12(sp)
 1001760:	d9400215 	stw	r5,8(sp)
 1001764:	d9000115 	stw	r4,4(sp)
 1001768:	d8c00015 	stw	r3,0(sp)
 100176c:	e1fff417 	ldw	r7,-48(fp)
 1001770:	f80d883a 	mov	r6,ra
 1001774:	b80b883a 	mov	r5,r23
 1001778:	01004074 	movhi	r4,257
 100177c:	212c6404 	addi	r4,r4,-20080
 1001780:	10030c40 	call	10030c4 <alt_printf>
			alt_dcache_flush_all();
 1001784:	1002f3c0 	call	1002f3c <alt_dcache_flush_all>
			alt_avalon_sgdma_construct_mem_to_stream_desc(&tx_descriptor, &tx_descriptor_end, (alt_u32 *)tx_frame, 64, 0, 1, 1, 0);
 1001788:	d8000315 	stw	zero,12(sp)
 100178c:	00800044 	movi	r2,1
 1001790:	d8800215 	stw	r2,8(sp)
 1001794:	00800044 	movi	r2,1
 1001798:	d8800115 	stw	r2,4(sp)
 100179c:	d8000015 	stw	zero,0(sp)
 10017a0:	01c01004 	movi	r7,64
 10017a4:	01804074 	movhi	r6,257
 10017a8:	31b7b984 	addi	r6,r6,-8474
 10017ac:	01408034 	movhi	r5,512
 10017b0:	29400804 	addi	r5,r5,32
 10017b4:	01008034 	movhi	r4,512
 10017b8:	21000004 	addi	r4,r4,0
 10017bc:	1003bc40 	call	1003bc4 <alt_avalon_sgdma_construct_mem_to_stream_desc>
			alt_avalon_sgdma_do_async_transfer( sgdma_tx_dev, &tx_descriptor );
 10017c0:	d0a0ec17 	ldw	r2,-31824(gp)
 10017c4:	01408034 	movhi	r5,512
 10017c8:	29400004 	addi	r5,r5,0
 10017cc:	1009883a 	mov	r4,r2
 10017d0:	10037c00 	call	10037c0 <alt_avalon_sgdma_do_async_transfer>
			while (alt_avalon_sgdma_check_descriptor_status(&tx_descriptor) != 0);
 10017d4:	0001883a 	nop
 10017d8:	01008034 	movhi	r4,512
 10017dc:	21000004 	addi	r4,r4,0
 10017e0:	1003dd80 	call	1003dd8 <alt_avalon_sgdma_check_descriptor_status>
 10017e4:	103ffc1e 	bne	r2,zero,10017d8 <rx_ethernet_isr+0x4e0>
			TCP[0].seq_num++;
 10017e8:	00804074 	movhi	r2,257
 10017ec:	10b9d20b 	ldhu	r2,-6328(r2)
 10017f0:	10800044 	addi	r2,r2,1
 10017f4:	1007883a 	mov	r3,r2
 10017f8:	00804074 	movhi	r2,257
 10017fc:	10f9d20d 	sth	r3,-6328(r2)
 1001800:	0002c106 	br	1002308 <rx_ethernet_isr+0x1010>
		}

	/******************** Syn-Ack recieved *************************************************/
		else if((rx_frame[24]) == 0x05){
 1001804:	00804074 	movhi	r2,257
 1001808:	10b64403 	ldbu	r2,-9968(r2)
 100180c:	10803fcc 	andi	r2,r2,255
 1001810:	10800158 	cmpnei	r2,r2,5
 1001814:	1000941e 	bne	r2,zero,1001a68 <rx_ethernet_isr+0x770>
			TCP[0].link = 1;
 1001818:	00c00044 	movi	r3,1
 100181c:	00804074 	movhi	r2,257
 1001820:	10f9cd05 	stb	r3,-6348(r2)

	/**************** Send ACknowledgement ************************************************/
			TCP[0].ack_num++;
 1001824:	00804074 	movhi	r2,257
 1001828:	10b9d18b 	ldhu	r2,-6330(r2)
 100182c:	10800044 	addi	r2,r2,1
 1001830:	1007883a 	mov	r3,r2
 1001834:	00804074 	movhi	r2,257
 1001838:	10f9d18d 	sth	r3,-6330(r2)
			create_pkt();
 100183c:	10023880 	call	1002388 <create_pkt>
			memmove(tx_frame+24,"\x04",1);//setting ack
 1001840:	00804074 	movhi	r2,257
 1001844:	10b7bf84 	addi	r2,r2,-8450
 1001848:	00c00104 	movi	r3,4
 100184c:	10c00005 	stb	r3,0(r2)

			//transmit_packet();
			alt_printf("\n Conn Est Ack TX_FRAME: %x %x %x %x %x %x    %x %x %x %x %x %x    %x %x   %x %x   %x %x   %x %x   %x %x   %x \n",tx_frame[2],tx_frame[3],tx_frame[4],tx_frame[5],tx_frame[6],tx_frame[7],tx_frame[8],tx_frame[9],tx_frame[10],tx_frame[11],tx_frame[12],tx_frame[13],tx_frame[14],tx_frame[15],tx_frame[16],tx_frame[17],tx_frame[18],tx_frame[19],tx_frame[20],tx_frame[21],tx_frame[22],tx_frame[23],tx_frame[24],tx_frame[25]);
 1001850:	00804074 	movhi	r2,257
 1001854:	10b7ba03 	ldbu	r2,-8472(r2)
 1001858:	15c03fcc 	andi	r23,r2,255
 100185c:	00804074 	movhi	r2,257
 1001860:	10b7ba43 	ldbu	r2,-8471(r2)
 1001864:	17c03fcc 	andi	ra,r2,255
 1001868:	00804074 	movhi	r2,257
 100186c:	10b7ba83 	ldbu	r2,-8470(r2)
 1001870:	10803fcc 	andi	r2,r2,255
 1001874:	e0bff415 	stw	r2,-48(fp)
 1001878:	00804074 	movhi	r2,257
 100187c:	10b7bac3 	ldbu	r2,-8469(r2)
 1001880:	10c03fcc 	andi	r3,r2,255
 1001884:	00804074 	movhi	r2,257
 1001888:	10b7bb03 	ldbu	r2,-8468(r2)
 100188c:	11003fcc 	andi	r4,r2,255
 1001890:	00804074 	movhi	r2,257
 1001894:	10b7bb43 	ldbu	r2,-8467(r2)
 1001898:	11403fcc 	andi	r5,r2,255
 100189c:	00804074 	movhi	r2,257
 10018a0:	10b7bb83 	ldbu	r2,-8466(r2)
 10018a4:	11803fcc 	andi	r6,r2,255
 10018a8:	00804074 	movhi	r2,257
 10018ac:	10b7bbc3 	ldbu	r2,-8465(r2)
 10018b0:	11c03fcc 	andi	r7,r2,255
 10018b4:	00804074 	movhi	r2,257
 10018b8:	10b7bc03 	ldbu	r2,-8464(r2)
 10018bc:	12003fcc 	andi	r8,r2,255
 10018c0:	00804074 	movhi	r2,257
 10018c4:	10b7bc43 	ldbu	r2,-8463(r2)
 10018c8:	12403fcc 	andi	r9,r2,255
 10018cc:	00804074 	movhi	r2,257
 10018d0:	10b7bc83 	ldbu	r2,-8462(r2)
 10018d4:	12803fcc 	andi	r10,r2,255
 10018d8:	00804074 	movhi	r2,257
 10018dc:	10b7bcc3 	ldbu	r2,-8461(r2)
 10018e0:	12c03fcc 	andi	r11,r2,255
 10018e4:	00804074 	movhi	r2,257
 10018e8:	10b7bd03 	ldbu	r2,-8460(r2)
 10018ec:	13003fcc 	andi	r12,r2,255
 10018f0:	00804074 	movhi	r2,257
 10018f4:	10b7bd43 	ldbu	r2,-8459(r2)
 10018f8:	13403fcc 	andi	r13,r2,255
 10018fc:	00804074 	movhi	r2,257
 1001900:	10b7bd83 	ldbu	r2,-8458(r2)
 1001904:	13803fcc 	andi	r14,r2,255
 1001908:	00804074 	movhi	r2,257
 100190c:	10b7bdc3 	ldbu	r2,-8457(r2)
 1001910:	13c03fcc 	andi	r15,r2,255
 1001914:	00804074 	movhi	r2,257
 1001918:	10b7be03 	ldbu	r2,-8456(r2)
 100191c:	14003fcc 	andi	r16,r2,255
 1001920:	00804074 	movhi	r2,257
 1001924:	10b7be43 	ldbu	r2,-8455(r2)
 1001928:	14403fcc 	andi	r17,r2,255
 100192c:	00804074 	movhi	r2,257
 1001930:	10b7be83 	ldbu	r2,-8454(r2)
 1001934:	14803fcc 	andi	r18,r2,255
 1001938:	00804074 	movhi	r2,257
 100193c:	10b7bec3 	ldbu	r2,-8453(r2)
 1001940:	14c03fcc 	andi	r19,r2,255
 1001944:	00804074 	movhi	r2,257
 1001948:	10b7bf03 	ldbu	r2,-8452(r2)
 100194c:	15003fcc 	andi	r20,r2,255
 1001950:	00804074 	movhi	r2,257
 1001954:	10b7bf43 	ldbu	r2,-8451(r2)
 1001958:	15403fcc 	andi	r21,r2,255
 100195c:	00804074 	movhi	r2,257
 1001960:	10b7bf83 	ldbu	r2,-8450(r2)
 1001964:	15803fcc 	andi	r22,r2,255
 1001968:	00804074 	movhi	r2,257
 100196c:	10b7bfc3 	ldbu	r2,-8449(r2)
 1001970:	10803fcc 	andi	r2,r2,255
 1001974:	d8801415 	stw	r2,80(sp)
 1001978:	dd801315 	stw	r22,76(sp)
 100197c:	dd401215 	stw	r21,72(sp)
 1001980:	dd001115 	stw	r20,68(sp)
 1001984:	dcc01015 	stw	r19,64(sp)
 1001988:	dc800f15 	stw	r18,60(sp)
 100198c:	dc400e15 	stw	r17,56(sp)
 1001990:	dc000d15 	stw	r16,52(sp)
 1001994:	dbc00c15 	stw	r15,48(sp)
 1001998:	db800b15 	stw	r14,44(sp)
 100199c:	db400a15 	stw	r13,40(sp)
 10019a0:	db000915 	stw	r12,36(sp)
 10019a4:	dac00815 	stw	r11,32(sp)
 10019a8:	da800715 	stw	r10,28(sp)
 10019ac:	da400615 	stw	r9,24(sp)
 10019b0:	da000515 	stw	r8,20(sp)
 10019b4:	d9c00415 	stw	r7,16(sp)
 10019b8:	d9800315 	stw	r6,12(sp)
 10019bc:	d9400215 	stw	r5,8(sp)
 10019c0:	d9000115 	stw	r4,4(sp)
 10019c4:	d8c00015 	stw	r3,0(sp)
 10019c8:	e1fff417 	ldw	r7,-48(fp)
 10019cc:	f80d883a 	mov	r6,ra
 10019d0:	b80b883a 	mov	r5,r23
 10019d4:	01004074 	movhi	r4,257
 10019d8:	212c7f04 	addi	r4,r4,-19972
 10019dc:	10030c40 	call	10030c4 <alt_printf>
			alt_dcache_flush_all();
 10019e0:	1002f3c0 	call	1002f3c <alt_dcache_flush_all>
			alt_avalon_sgdma_construct_mem_to_stream_desc(&tx_descriptor, &tx_descriptor_end, (alt_u32 *)tx_frame, 64, 0, 1, 1, 0);
 10019e4:	d8000315 	stw	zero,12(sp)
 10019e8:	00800044 	movi	r2,1
 10019ec:	d8800215 	stw	r2,8(sp)
 10019f0:	00800044 	movi	r2,1
 10019f4:	d8800115 	stw	r2,4(sp)
 10019f8:	d8000015 	stw	zero,0(sp)
 10019fc:	01c01004 	movi	r7,64
 1001a00:	01804074 	movhi	r6,257
 1001a04:	31b7b984 	addi	r6,r6,-8474
 1001a08:	01408034 	movhi	r5,512
 1001a0c:	29400804 	addi	r5,r5,32
 1001a10:	01008034 	movhi	r4,512
 1001a14:	21000004 	addi	r4,r4,0
 1001a18:	1003bc40 	call	1003bc4 <alt_avalon_sgdma_construct_mem_to_stream_desc>
			alt_avalon_sgdma_do_async_transfer( sgdma_tx_dev, &tx_descriptor );
 1001a1c:	d0a0ec17 	ldw	r2,-31824(gp)
 1001a20:	01408034 	movhi	r5,512
 1001a24:	29400004 	addi	r5,r5,0
 1001a28:	1009883a 	mov	r4,r2
 1001a2c:	10037c00 	call	10037c0 <alt_avalon_sgdma_do_async_transfer>
			while (alt_avalon_sgdma_check_descriptor_status(&tx_descriptor) != 0);
 1001a30:	0001883a 	nop
 1001a34:	01008034 	movhi	r4,512
 1001a38:	21000004 	addi	r4,r4,0
 1001a3c:	1003dd80 	call	1003dd8 <alt_avalon_sgdma_check_descriptor_status>
 1001a40:	103ffc1e 	bne	r2,zero,1001a34 <rx_ethernet_isr+0x73c>

			data_flag = 1;
 1001a44:	00800044 	movi	r2,1
 1001a48:	d0a0eb05 	stb	r2,-31828(gp)
			TCP[0].seq_num++;
 1001a4c:	00804074 	movhi	r2,257
 1001a50:	10b9d20b 	ldhu	r2,-6328(r2)
 1001a54:	10800044 	addi	r2,r2,1
 1001a58:	1007883a 	mov	r3,r2
 1001a5c:	00804074 	movhi	r2,257
 1001a60:	10f9d20d 	sth	r3,-6328(r2)
 1001a64:	00022806 	br	1002308 <rx_ethernet_isr+0x1010>
		}

	/***************** FIN Recieved *************************************************/
		else if((rx_frame[24]) == 0x02){
 1001a68:	00804074 	movhi	r2,257
 1001a6c:	10b64403 	ldbu	r2,-9968(r2)
 1001a70:	10803fcc 	andi	r2,r2,255
 1001a74:	10800098 	cmpnei	r2,r2,2
 1001a78:	1000921e 	bne	r2,zero,1001cc4 <rx_ethernet_isr+0x9cc>
			TCP[0].link = 0;
 1001a7c:	00804074 	movhi	r2,257
 1001a80:	1039cd05 	stb	zero,-6348(r2)
			data_flag = 0;
 1001a84:	d020eb05 	stb	zero,-31828(gp)
	/***************** Sending FIN-ACK **********************************************/
			TCP[0].ack_num++;
 1001a88:	00804074 	movhi	r2,257
 1001a8c:	10b9d18b 	ldhu	r2,-6330(r2)
 1001a90:	10800044 	addi	r2,r2,1
 1001a94:	1007883a 	mov	r3,r2
 1001a98:	00804074 	movhi	r2,257
 1001a9c:	10f9d18d 	sth	r3,-6330(r2)
			create_pkt();
 1001aa0:	10023880 	call	1002388 <create_pkt>
			memmove(tx_frame+24,"\x06",1);
 1001aa4:	00804074 	movhi	r2,257
 1001aa8:	10b7bf84 	addi	r2,r2,-8450
 1001aac:	00c00184 	movi	r3,6
 1001ab0:	10c00005 	stb	r3,0(r2)

			//transmit_packet();
			alt_printf("\n FIN/ACK TX_FRAME: %x %x %x %x %x %x    %x %x %x %x %x %x    %x %x   %x %x   %x %x   %x %x   %x %x   %x \n",tx_frame[2],tx_frame[3],tx_frame[4],tx_frame[5],tx_frame[6],tx_frame[7],tx_frame[8],tx_frame[9],tx_frame[10],tx_frame[11],tx_frame[12],tx_frame[13],tx_frame[14],tx_frame[15],tx_frame[16],tx_frame[17],tx_frame[18],tx_frame[19],tx_frame[20],tx_frame[21],tx_frame[22],tx_frame[23],tx_frame[24],tx_frame[25]);
 1001ab4:	00804074 	movhi	r2,257
 1001ab8:	10b7ba03 	ldbu	r2,-8472(r2)
 1001abc:	15c03fcc 	andi	r23,r2,255
 1001ac0:	00804074 	movhi	r2,257
 1001ac4:	10b7ba43 	ldbu	r2,-8471(r2)
 1001ac8:	17c03fcc 	andi	ra,r2,255
 1001acc:	00804074 	movhi	r2,257
 1001ad0:	10b7ba83 	ldbu	r2,-8470(r2)
 1001ad4:	10803fcc 	andi	r2,r2,255
 1001ad8:	e0bff415 	stw	r2,-48(fp)
 1001adc:	00804074 	movhi	r2,257
 1001ae0:	10b7bac3 	ldbu	r2,-8469(r2)
 1001ae4:	10c03fcc 	andi	r3,r2,255
 1001ae8:	00804074 	movhi	r2,257
 1001aec:	10b7bb03 	ldbu	r2,-8468(r2)
 1001af0:	11003fcc 	andi	r4,r2,255
 1001af4:	00804074 	movhi	r2,257
 1001af8:	10b7bb43 	ldbu	r2,-8467(r2)
 1001afc:	11403fcc 	andi	r5,r2,255
 1001b00:	00804074 	movhi	r2,257
 1001b04:	10b7bb83 	ldbu	r2,-8466(r2)
 1001b08:	11803fcc 	andi	r6,r2,255
 1001b0c:	00804074 	movhi	r2,257
 1001b10:	10b7bbc3 	ldbu	r2,-8465(r2)
 1001b14:	11c03fcc 	andi	r7,r2,255
 1001b18:	00804074 	movhi	r2,257
 1001b1c:	10b7bc03 	ldbu	r2,-8464(r2)
 1001b20:	12003fcc 	andi	r8,r2,255
 1001b24:	00804074 	movhi	r2,257
 1001b28:	10b7bc43 	ldbu	r2,-8463(r2)
 1001b2c:	12403fcc 	andi	r9,r2,255
 1001b30:	00804074 	movhi	r2,257
 1001b34:	10b7bc83 	ldbu	r2,-8462(r2)
 1001b38:	12803fcc 	andi	r10,r2,255
 1001b3c:	00804074 	movhi	r2,257
 1001b40:	10b7bcc3 	ldbu	r2,-8461(r2)
 1001b44:	12c03fcc 	andi	r11,r2,255
 1001b48:	00804074 	movhi	r2,257
 1001b4c:	10b7bd03 	ldbu	r2,-8460(r2)
 1001b50:	13003fcc 	andi	r12,r2,255
 1001b54:	00804074 	movhi	r2,257
 1001b58:	10b7bd43 	ldbu	r2,-8459(r2)
 1001b5c:	13403fcc 	andi	r13,r2,255
 1001b60:	00804074 	movhi	r2,257
 1001b64:	10b7bd83 	ldbu	r2,-8458(r2)
 1001b68:	13803fcc 	andi	r14,r2,255
 1001b6c:	00804074 	movhi	r2,257
 1001b70:	10b7bdc3 	ldbu	r2,-8457(r2)
 1001b74:	13c03fcc 	andi	r15,r2,255
 1001b78:	00804074 	movhi	r2,257
 1001b7c:	10b7be03 	ldbu	r2,-8456(r2)
 1001b80:	14003fcc 	andi	r16,r2,255
 1001b84:	00804074 	movhi	r2,257
 1001b88:	10b7be43 	ldbu	r2,-8455(r2)
 1001b8c:	14403fcc 	andi	r17,r2,255
 1001b90:	00804074 	movhi	r2,257
 1001b94:	10b7be83 	ldbu	r2,-8454(r2)
 1001b98:	14803fcc 	andi	r18,r2,255
 1001b9c:	00804074 	movhi	r2,257
 1001ba0:	10b7bec3 	ldbu	r2,-8453(r2)
 1001ba4:	14c03fcc 	andi	r19,r2,255
 1001ba8:	00804074 	movhi	r2,257
 1001bac:	10b7bf03 	ldbu	r2,-8452(r2)
 1001bb0:	15003fcc 	andi	r20,r2,255
 1001bb4:	00804074 	movhi	r2,257
 1001bb8:	10b7bf43 	ldbu	r2,-8451(r2)
 1001bbc:	15403fcc 	andi	r21,r2,255
 1001bc0:	00804074 	movhi	r2,257
 1001bc4:	10b7bf83 	ldbu	r2,-8450(r2)
 1001bc8:	15803fcc 	andi	r22,r2,255
 1001bcc:	00804074 	movhi	r2,257
 1001bd0:	10b7bfc3 	ldbu	r2,-8449(r2)
 1001bd4:	10803fcc 	andi	r2,r2,255
 1001bd8:	d8801415 	stw	r2,80(sp)
 1001bdc:	dd801315 	stw	r22,76(sp)
 1001be0:	dd401215 	stw	r21,72(sp)
 1001be4:	dd001115 	stw	r20,68(sp)
 1001be8:	dcc01015 	stw	r19,64(sp)
 1001bec:	dc800f15 	stw	r18,60(sp)
 1001bf0:	dc400e15 	stw	r17,56(sp)
 1001bf4:	dc000d15 	stw	r16,52(sp)
 1001bf8:	dbc00c15 	stw	r15,48(sp)
 1001bfc:	db800b15 	stw	r14,44(sp)
 1001c00:	db400a15 	stw	r13,40(sp)
 1001c04:	db000915 	stw	r12,36(sp)
 1001c08:	dac00815 	stw	r11,32(sp)
 1001c0c:	da800715 	stw	r10,28(sp)
 1001c10:	da400615 	stw	r9,24(sp)
 1001c14:	da000515 	stw	r8,20(sp)
 1001c18:	d9c00415 	stw	r7,16(sp)
 1001c1c:	d9800315 	stw	r6,12(sp)
 1001c20:	d9400215 	stw	r5,8(sp)
 1001c24:	d9000115 	stw	r4,4(sp)
 1001c28:	d8c00015 	stw	r3,0(sp)
 1001c2c:	e1fff417 	ldw	r7,-48(fp)
 1001c30:	f80d883a 	mov	r6,ra
 1001c34:	b80b883a 	mov	r5,r23
 1001c38:	01004074 	movhi	r4,257
 1001c3c:	212c9b04 	addi	r4,r4,-19860
 1001c40:	10030c40 	call	10030c4 <alt_printf>
			alt_dcache_flush_all();
 1001c44:	1002f3c0 	call	1002f3c <alt_dcache_flush_all>
			alt_avalon_sgdma_construct_mem_to_stream_desc(&tx_descriptor, &tx_descriptor_end, (alt_u32 *)tx_frame, 64, 0, 1, 1, 0);
 1001c48:	d8000315 	stw	zero,12(sp)
 1001c4c:	00800044 	movi	r2,1
 1001c50:	d8800215 	stw	r2,8(sp)
 1001c54:	00800044 	movi	r2,1
 1001c58:	d8800115 	stw	r2,4(sp)
 1001c5c:	d8000015 	stw	zero,0(sp)
 1001c60:	01c01004 	movi	r7,64
 1001c64:	01804074 	movhi	r6,257
 1001c68:	31b7b984 	addi	r6,r6,-8474
 1001c6c:	01408034 	movhi	r5,512
 1001c70:	29400804 	addi	r5,r5,32
 1001c74:	01008034 	movhi	r4,512
 1001c78:	21000004 	addi	r4,r4,0
 1001c7c:	1003bc40 	call	1003bc4 <alt_avalon_sgdma_construct_mem_to_stream_desc>
			alt_avalon_sgdma_do_async_transfer( sgdma_tx_dev, &tx_descriptor );
 1001c80:	d0a0ec17 	ldw	r2,-31824(gp)
 1001c84:	01408034 	movhi	r5,512
 1001c88:	29400004 	addi	r5,r5,0
 1001c8c:	1009883a 	mov	r4,r2
 1001c90:	10037c00 	call	10037c0 <alt_avalon_sgdma_do_async_transfer>
			while (alt_avalon_sgdma_check_descriptor_status(&tx_descriptor) != 0);
 1001c94:	0001883a 	nop
 1001c98:	01008034 	movhi	r4,512
 1001c9c:	21000004 	addi	r4,r4,0
 1001ca0:	1003dd80 	call	1003dd8 <alt_avalon_sgdma_check_descriptor_status>
 1001ca4:	103ffc1e 	bne	r2,zero,1001c98 <rx_ethernet_isr+0x9a0>
			TCP[0].seq_num++;
 1001ca8:	00804074 	movhi	r2,257
 1001cac:	10b9d20b 	ldhu	r2,-6328(r2)
 1001cb0:	10800044 	addi	r2,r2,1
 1001cb4:	1007883a 	mov	r3,r2
 1001cb8:	00804074 	movhi	r2,257
 1001cbc:	10f9d20d 	sth	r3,-6328(r2)
 1001cc0:	00019106 	br	1002308 <rx_ethernet_isr+0x1010>
		}

	/***************** Fin-Ack received **************************************************************/

		else if(rx_frame[24] == 0x06){
 1001cc4:	00804074 	movhi	r2,257
 1001cc8:	10b64403 	ldbu	r2,-9968(r2)
 1001ccc:	10803fcc 	andi	r2,r2,255
 1001cd0:	10800198 	cmpnei	r2,r2,6
 1001cd4:	1000a91e 	bne	r2,zero,1001f7c <rx_ethernet_isr+0xc84>
			TCP[0].link = 0;
 1001cd8:	00804074 	movhi	r2,257
 1001cdc:	1039cd05 	stb	zero,-6348(r2)
			//ack_send();
			TCP[0].ack_num++;
 1001ce0:	00804074 	movhi	r2,257
 1001ce4:	10b9d18b 	ldhu	r2,-6330(r2)
 1001ce8:	10800044 	addi	r2,r2,1
 1001cec:	1007883a 	mov	r3,r2
 1001cf0:	00804074 	movhi	r2,257
 1001cf4:	10f9d18d 	sth	r3,-6330(r2)
			create_pkt();
 1001cf8:	10023880 	call	1002388 <create_pkt>
			memmove(tx_frame+24,"\x04",1);//setting ack
 1001cfc:	00804074 	movhi	r2,257
 1001d00:	10b7bf84 	addi	r2,r2,-8450
 1001d04:	00c00104 	movi	r3,4
 1001d08:	10c00005 	stb	r3,0(r2)

			//transmit_packet();
			alt_printf("\n Conn Closed ACK TX_FRAME: %x %x %x %x %x %x    %x %x %x %x %x %x    %x %x   %x %x   %x %x   %x %x   %x %x   %x \n",tx_frame[2],tx_frame[3],tx_frame[4],tx_frame[5],tx_frame[6],tx_frame[7],tx_frame[8],tx_frame[9],tx_frame[10],tx_frame[11],tx_frame[12],tx_frame[13],tx_frame[14],tx_frame[15],tx_frame[16],tx_frame[17],tx_frame[18],tx_frame[19],tx_frame[20],tx_frame[21],tx_frame[22],tx_frame[23],tx_frame[24],tx_frame[25]);
 1001d0c:	00804074 	movhi	r2,257
 1001d10:	10b7ba03 	ldbu	r2,-8472(r2)
 1001d14:	15c03fcc 	andi	r23,r2,255
 1001d18:	00804074 	movhi	r2,257
 1001d1c:	10b7ba43 	ldbu	r2,-8471(r2)
 1001d20:	17c03fcc 	andi	ra,r2,255
 1001d24:	00804074 	movhi	r2,257
 1001d28:	10b7ba83 	ldbu	r2,-8470(r2)
 1001d2c:	10803fcc 	andi	r2,r2,255
 1001d30:	e0bff415 	stw	r2,-48(fp)
 1001d34:	00804074 	movhi	r2,257
 1001d38:	10b7bac3 	ldbu	r2,-8469(r2)
 1001d3c:	10c03fcc 	andi	r3,r2,255
 1001d40:	00804074 	movhi	r2,257
 1001d44:	10b7bb03 	ldbu	r2,-8468(r2)
 1001d48:	11003fcc 	andi	r4,r2,255
 1001d4c:	00804074 	movhi	r2,257
 1001d50:	10b7bb43 	ldbu	r2,-8467(r2)
 1001d54:	11403fcc 	andi	r5,r2,255
 1001d58:	00804074 	movhi	r2,257
 1001d5c:	10b7bb83 	ldbu	r2,-8466(r2)
 1001d60:	11803fcc 	andi	r6,r2,255
 1001d64:	00804074 	movhi	r2,257
 1001d68:	10b7bbc3 	ldbu	r2,-8465(r2)
 1001d6c:	11c03fcc 	andi	r7,r2,255
 1001d70:	00804074 	movhi	r2,257
 1001d74:	10b7bc03 	ldbu	r2,-8464(r2)
 1001d78:	12003fcc 	andi	r8,r2,255
 1001d7c:	00804074 	movhi	r2,257
 1001d80:	10b7bc43 	ldbu	r2,-8463(r2)
 1001d84:	12403fcc 	andi	r9,r2,255
 1001d88:	00804074 	movhi	r2,257
 1001d8c:	10b7bc83 	ldbu	r2,-8462(r2)
 1001d90:	12803fcc 	andi	r10,r2,255
 1001d94:	00804074 	movhi	r2,257
 1001d98:	10b7bcc3 	ldbu	r2,-8461(r2)
 1001d9c:	12c03fcc 	andi	r11,r2,255
 1001da0:	00804074 	movhi	r2,257
 1001da4:	10b7bd03 	ldbu	r2,-8460(r2)
 1001da8:	13003fcc 	andi	r12,r2,255
 1001dac:	00804074 	movhi	r2,257
 1001db0:	10b7bd43 	ldbu	r2,-8459(r2)
 1001db4:	13403fcc 	andi	r13,r2,255
 1001db8:	00804074 	movhi	r2,257
 1001dbc:	10b7bd83 	ldbu	r2,-8458(r2)
 1001dc0:	13803fcc 	andi	r14,r2,255
 1001dc4:	00804074 	movhi	r2,257
 1001dc8:	10b7bdc3 	ldbu	r2,-8457(r2)
 1001dcc:	13c03fcc 	andi	r15,r2,255
 1001dd0:	00804074 	movhi	r2,257
 1001dd4:	10b7be03 	ldbu	r2,-8456(r2)
 1001dd8:	14003fcc 	andi	r16,r2,255
 1001ddc:	00804074 	movhi	r2,257
 1001de0:	10b7be43 	ldbu	r2,-8455(r2)
 1001de4:	14403fcc 	andi	r17,r2,255
 1001de8:	00804074 	movhi	r2,257
 1001dec:	10b7be83 	ldbu	r2,-8454(r2)
 1001df0:	14803fcc 	andi	r18,r2,255
 1001df4:	00804074 	movhi	r2,257
 1001df8:	10b7bec3 	ldbu	r2,-8453(r2)
 1001dfc:	14c03fcc 	andi	r19,r2,255
 1001e00:	00804074 	movhi	r2,257
 1001e04:	10b7bf03 	ldbu	r2,-8452(r2)
 1001e08:	15003fcc 	andi	r20,r2,255
 1001e0c:	00804074 	movhi	r2,257
 1001e10:	10b7bf43 	ldbu	r2,-8451(r2)
 1001e14:	15403fcc 	andi	r21,r2,255
 1001e18:	00804074 	movhi	r2,257
 1001e1c:	10b7bf83 	ldbu	r2,-8450(r2)
 1001e20:	15803fcc 	andi	r22,r2,255
 1001e24:	00804074 	movhi	r2,257
 1001e28:	10b7bfc3 	ldbu	r2,-8449(r2)
 1001e2c:	10803fcc 	andi	r2,r2,255
 1001e30:	d8801415 	stw	r2,80(sp)
 1001e34:	dd801315 	stw	r22,76(sp)
 1001e38:	dd401215 	stw	r21,72(sp)
 1001e3c:	dd001115 	stw	r20,68(sp)
 1001e40:	dcc01015 	stw	r19,64(sp)
 1001e44:	dc800f15 	stw	r18,60(sp)
 1001e48:	dc400e15 	stw	r17,56(sp)
 1001e4c:	dc000d15 	stw	r16,52(sp)
 1001e50:	dbc00c15 	stw	r15,48(sp)
 1001e54:	db800b15 	stw	r14,44(sp)
 1001e58:	db400a15 	stw	r13,40(sp)
 1001e5c:	db000915 	stw	r12,36(sp)
 1001e60:	dac00815 	stw	r11,32(sp)
 1001e64:	da800715 	stw	r10,28(sp)
 1001e68:	da400615 	stw	r9,24(sp)
 1001e6c:	da000515 	stw	r8,20(sp)
 1001e70:	d9c00415 	stw	r7,16(sp)
 1001e74:	d9800315 	stw	r6,12(sp)
 1001e78:	d9400215 	stw	r5,8(sp)
 1001e7c:	d9000115 	stw	r4,4(sp)
 1001e80:	d8c00015 	stw	r3,0(sp)
 1001e84:	e1fff417 	ldw	r7,-48(fp)
 1001e88:	f80d883a 	mov	r6,ra
 1001e8c:	b80b883a 	mov	r5,r23
 1001e90:	01004074 	movhi	r4,257
 1001e94:	212cb604 	addi	r4,r4,-19752
 1001e98:	10030c40 	call	10030c4 <alt_printf>
			alt_dcache_flush_all();
 1001e9c:	1002f3c0 	call	1002f3c <alt_dcache_flush_all>
			alt_avalon_sgdma_construct_mem_to_stream_desc(&tx_descriptor, &tx_descriptor_end, (alt_u32 *)tx_frame, 64, 0, 1, 1, 0);
 1001ea0:	d8000315 	stw	zero,12(sp)
 1001ea4:	00800044 	movi	r2,1
 1001ea8:	d8800215 	stw	r2,8(sp)
 1001eac:	00800044 	movi	r2,1
 1001eb0:	d8800115 	stw	r2,4(sp)
 1001eb4:	d8000015 	stw	zero,0(sp)
 1001eb8:	01c01004 	movi	r7,64
 1001ebc:	01804074 	movhi	r6,257
 1001ec0:	31b7b984 	addi	r6,r6,-8474
 1001ec4:	01408034 	movhi	r5,512
 1001ec8:	29400804 	addi	r5,r5,32
 1001ecc:	01008034 	movhi	r4,512
 1001ed0:	21000004 	addi	r4,r4,0
 1001ed4:	1003bc40 	call	1003bc4 <alt_avalon_sgdma_construct_mem_to_stream_desc>
			alt_avalon_sgdma_do_async_transfer( sgdma_tx_dev, &tx_descriptor );
 1001ed8:	d0a0ec17 	ldw	r2,-31824(gp)
 1001edc:	01408034 	movhi	r5,512
 1001ee0:	29400004 	addi	r5,r5,0
 1001ee4:	1009883a 	mov	r4,r2
 1001ee8:	10037c00 	call	10037c0 <alt_avalon_sgdma_do_async_transfer>
			while (alt_avalon_sgdma_check_descriptor_status(&tx_descriptor) != 0);
 1001eec:	0001883a 	nop
 1001ef0:	01008034 	movhi	r4,512
 1001ef4:	21000004 	addi	r4,r4,0
 1001ef8:	1003dd80 	call	1003dd8 <alt_avalon_sgdma_check_descriptor_status>
 1001efc:	103ffc1e 	bne	r2,zero,1001ef0 <rx_ethernet_isr+0xbf8>
			printf("\n Connection closed");
 1001f00:	01004074 	movhi	r4,257
 1001f04:	212cd304 	addi	r4,r4,-19636
 1001f08:	10026640 	call	1002664 <printf>
			printf("\n********************* Statistics - TCP **********************");
 1001f0c:	01004074 	movhi	r4,257
 1001f10:	212cd804 	addi	r4,r4,-19616
 1001f14:	10026640 	call	1002664 <printf>
			printf("\nRxed Packets : %x",pckt_rxed);
 1001f18:	d0a0e717 	ldw	r2,-31844(gp)
 1001f1c:	100b883a 	mov	r5,r2
 1001f20:	01004074 	movhi	r4,257
 1001f24:	212ce804 	addi	r4,r4,-19552
 1001f28:	10026640 	call	1002664 <printf>
			printf("\nSuccessfull Packets Rxed : %x",succ_rxed);
 1001f2c:	d0a0e817 	ldw	r2,-31840(gp)
 1001f30:	100b883a 	mov	r5,r2
 1001f34:	01004074 	movhi	r4,257
 1001f38:	212ced04 	addi	r4,r4,-19532
 1001f3c:	10026640 	call	1002664 <printf>
			printf("\nDropped Packets : %x",(pckt_rxed - succ_rxed));
 1001f40:	d0e0e717 	ldw	r3,-31844(gp)
 1001f44:	d0a0e817 	ldw	r2,-31840(gp)
 1001f48:	1885c83a 	sub	r2,r3,r2
 1001f4c:	100b883a 	mov	r5,r2
 1001f50:	01004074 	movhi	r4,257
 1001f54:	212cf504 	addi	r4,r4,-19500
 1001f58:	10026640 	call	1002664 <printf>
			statistics_counter();
 1001f5c:	10025300 	call	1002530 <statistics_counter>

			TCP[0].seq_num++;
 1001f60:	00804074 	movhi	r2,257
 1001f64:	10b9d20b 	ldhu	r2,-6328(r2)
 1001f68:	10800044 	addi	r2,r2,1
 1001f6c:	1007883a 	mov	r3,r2
 1001f70:	00804074 	movhi	r2,257
 1001f74:	10f9d20d 	sth	r3,-6328(r2)
 1001f78:	0000e306 	br	1002308 <rx_ethernet_isr+0x1010>
		}

	/*****************  ACK Received *******************************************************/
		else if(rx_frame[24] == 0x04){
 1001f7c:	00804074 	movhi	r2,257
 1001f80:	10b64403 	ldbu	r2,-9968(r2)
 1001f84:	10803fcc 	andi	r2,r2,255
 1001f88:	10800118 	cmpnei	r2,r2,4
 1001f8c:	1000301e 	bne	r2,zero,1002050 <rx_ethernet_isr+0xd58>
				//ack();
			if(TCP[0].link == 1){
 1001f90:	00804074 	movhi	r2,257
 1001f94:	10b9cd03 	ldbu	r2,-6348(r2)
 1001f98:	10803fcc 	andi	r2,r2,255
 1001f9c:	10800058 	cmpnei	r2,r2,1
 1001fa0:	10000c1e 	bne	r2,zero,1001fd4 <rx_ethernet_isr+0xcdc>
				alt_printf("\n Connection establishment ack received");
 1001fa4:	01004074 	movhi	r4,257
 1001fa8:	212cfb04 	addi	r4,r4,-19476
 1001fac:	10030c40 	call	10030c4 <alt_printf>
				data_flag = 1;
 1001fb0:	00800044 	movi	r2,1
 1001fb4:	d0a0eb05 	stb	r2,-31828(gp)
				TCP[0].ack_num++;
 1001fb8:	00804074 	movhi	r2,257
 1001fbc:	10b9d18b 	ldhu	r2,-6330(r2)
 1001fc0:	10800044 	addi	r2,r2,1
 1001fc4:	1007883a 	mov	r3,r2
 1001fc8:	00804074 	movhi	r2,257
 1001fcc:	10f9d18d 	sth	r3,-6330(r2)
 1001fd0:	0000cd06 	br	1002308 <rx_ethernet_isr+0x1010>
			}
			else {

	/***************** PRINT TCP STATISTICS ***********************************************/
				alt_printf("\n Connection closed");
 1001fd4:	01004074 	movhi	r4,257
 1001fd8:	212cd304 	addi	r4,r4,-19636
 1001fdc:	10030c40 	call	10030c4 <alt_printf>
				alt_printf("\n********************* Statistics - TCP **********************");
 1001fe0:	01004074 	movhi	r4,257
 1001fe4:	212cd804 	addi	r4,r4,-19616
 1001fe8:	10030c40 	call	10030c4 <alt_printf>
				alt_printf("\nRxed Packets : %x",pckt_rxed);
 1001fec:	d0a0e717 	ldw	r2,-31844(gp)
 1001ff0:	100b883a 	mov	r5,r2
 1001ff4:	01004074 	movhi	r4,257
 1001ff8:	212ce804 	addi	r4,r4,-19552
 1001ffc:	10030c40 	call	10030c4 <alt_printf>
				alt_printf("\nSuccessfull Packets Rxed : %x",succ_rxed);
 1002000:	d0a0e817 	ldw	r2,-31840(gp)
 1002004:	100b883a 	mov	r5,r2
 1002008:	01004074 	movhi	r4,257
 100200c:	212ced04 	addi	r4,r4,-19532
 1002010:	10030c40 	call	10030c4 <alt_printf>
				alt_printf("\nDropped Packets : %x",(pckt_rxed - succ_rxed));
 1002014:	d0e0e717 	ldw	r3,-31844(gp)
 1002018:	d0a0e817 	ldw	r2,-31840(gp)
 100201c:	1885c83a 	sub	r2,r3,r2
 1002020:	100b883a 	mov	r5,r2
 1002024:	01004074 	movhi	r4,257
 1002028:	212cf504 	addi	r4,r4,-19500
 100202c:	10030c40 	call	10030c4 <alt_printf>

	/********** Calling function for printing Ethernet statistics ***************************/
				statistics_counter();
 1002030:	10025300 	call	1002530 <statistics_counter>
				TCP[0].ack_num++;
 1002034:	00804074 	movhi	r2,257
 1002038:	10b9d18b 	ldhu	r2,-6330(r2)
 100203c:	10800044 	addi	r2,r2,1
 1002040:	1007883a 	mov	r3,r2
 1002044:	00804074 	movhi	r2,257
 1002048:	10f9d18d 	sth	r3,-6330(r2)
 100204c:	0000ae06 	br	1002308 <rx_ethernet_isr+0x1010>
			}
		}

/******************Data pkt received and sent to LED's**********/
		else if(rx_frame[24] == 0x08){
 1002050:	00804074 	movhi	r2,257
 1002054:	10b64403 	ldbu	r2,-9968(r2)
 1002058:	10803fcc 	andi	r2,r2,255
 100205c:	10800218 	cmpnei	r2,r2,8
 1002060:	1000991e 	bne	r2,zero,10022c8 <rx_ethernet_isr+0xfd0>
			TCP[0].ack_num++;
 1002064:	00804074 	movhi	r2,257
 1002068:	10b9d18b 	ldhu	r2,-6330(r2)
 100206c:	10800044 	addi	r2,r2,1
 1002070:	1007883a 	mov	r3,r2
 1002074:	00804074 	movhi	r2,257
 1002078:	10f9d18d 	sth	r3,-6330(r2)
			IOWR_ALTERA_AVALON_PIO_DATA(LED_BASE,rx_frame[25]);
 100207c:	00804074 	movhi	r2,257
 1002080:	10b64443 	ldbu	r2,-9967(r2)
 1002084:	10c03fcc 	andi	r3,r2,255
 1002088:	00808034 	movhi	r2,512
 100208c:	10cd2c35 	stwio	r3,13488(r2)
			create_pkt();
 1002090:	10023880 	call	1002388 <create_pkt>
			memmove(tx_frame+24,"\x0C",1);
 1002094:	00804074 	movhi	r2,257
 1002098:	10b7bf84 	addi	r2,r2,-8450
 100209c:	00c00304 	movi	r3,12
 10020a0:	10c00005 	stb	r3,0(r2)
			alt_printf("\n DATA ACK TX_FRAME: %x %x %x %x %x %x    %x %x %x %x %x %x    %x %x   %x %x   %x %x   %x %x   %x %x   %x  %x \n",tx_frame[2],tx_frame[3],tx_frame[4],tx_frame[5],tx_frame[6],tx_frame[7],tx_frame[8],tx_frame[9],tx_frame[10],tx_frame[11],tx_frame[12],tx_frame[13],tx_frame[14],tx_frame[15],tx_frame[16],tx_frame[17],tx_frame[18],tx_frame[19],tx_frame[20],tx_frame[21],tx_frame[22],tx_frame[23],tx_frame[24],tx_frame[25],tx_frame[26]);
 10020a4:	00804074 	movhi	r2,257
 10020a8:	10b7ba03 	ldbu	r2,-8472(r2)
 10020ac:	17c03fcc 	andi	ra,r2,255
 10020b0:	00804074 	movhi	r2,257
 10020b4:	10b7ba43 	ldbu	r2,-8471(r2)
 10020b8:	10803fcc 	andi	r2,r2,255
 10020bc:	e0bff415 	stw	r2,-48(fp)
 10020c0:	00804074 	movhi	r2,257
 10020c4:	10b7ba83 	ldbu	r2,-8470(r2)
 10020c8:	10c03fcc 	andi	r3,r2,255
 10020cc:	e0fff315 	stw	r3,-52(fp)
 10020d0:	00804074 	movhi	r2,257
 10020d4:	10b7bac3 	ldbu	r2,-8469(r2)
 10020d8:	11003fcc 	andi	r4,r2,255
 10020dc:	00804074 	movhi	r2,257
 10020e0:	10b7bb03 	ldbu	r2,-8468(r2)
 10020e4:	11403fcc 	andi	r5,r2,255
 10020e8:	00804074 	movhi	r2,257
 10020ec:	10b7bb43 	ldbu	r2,-8467(r2)
 10020f0:	11803fcc 	andi	r6,r2,255
 10020f4:	00804074 	movhi	r2,257
 10020f8:	10b7bb83 	ldbu	r2,-8466(r2)
 10020fc:	11c03fcc 	andi	r7,r2,255
 1002100:	00804074 	movhi	r2,257
 1002104:	10b7bbc3 	ldbu	r2,-8465(r2)
 1002108:	12003fcc 	andi	r8,r2,255
 100210c:	00804074 	movhi	r2,257
 1002110:	10b7bc03 	ldbu	r2,-8464(r2)
 1002114:	12403fcc 	andi	r9,r2,255
 1002118:	00804074 	movhi	r2,257
 100211c:	10b7bc43 	ldbu	r2,-8463(r2)
 1002120:	12803fcc 	andi	r10,r2,255
 1002124:	00804074 	movhi	r2,257
 1002128:	10b7bc83 	ldbu	r2,-8462(r2)
 100212c:	12c03fcc 	andi	r11,r2,255
 1002130:	00804074 	movhi	r2,257
 1002134:	10b7bcc3 	ldbu	r2,-8461(r2)
 1002138:	13003fcc 	andi	r12,r2,255
 100213c:	00804074 	movhi	r2,257
 1002140:	10b7bd03 	ldbu	r2,-8460(r2)
 1002144:	13403fcc 	andi	r13,r2,255
 1002148:	00804074 	movhi	r2,257
 100214c:	10b7bd43 	ldbu	r2,-8459(r2)
 1002150:	13803fcc 	andi	r14,r2,255
 1002154:	00804074 	movhi	r2,257
 1002158:	10b7bd83 	ldbu	r2,-8458(r2)
 100215c:	13c03fcc 	andi	r15,r2,255
 1002160:	00804074 	movhi	r2,257
 1002164:	10b7bdc3 	ldbu	r2,-8457(r2)
 1002168:	14003fcc 	andi	r16,r2,255
 100216c:	00804074 	movhi	r2,257
 1002170:	10b7be03 	ldbu	r2,-8456(r2)
 1002174:	14403fcc 	andi	r17,r2,255
 1002178:	00804074 	movhi	r2,257
 100217c:	10b7be43 	ldbu	r2,-8455(r2)
 1002180:	14803fcc 	andi	r18,r2,255
 1002184:	00804074 	movhi	r2,257
 1002188:	10b7be83 	ldbu	r2,-8454(r2)
 100218c:	14c03fcc 	andi	r19,r2,255
 1002190:	00804074 	movhi	r2,257
 1002194:	10b7bec3 	ldbu	r2,-8453(r2)
 1002198:	15003fcc 	andi	r20,r2,255
 100219c:	00804074 	movhi	r2,257
 10021a0:	10b7bf03 	ldbu	r2,-8452(r2)
 10021a4:	15403fcc 	andi	r21,r2,255
 10021a8:	00804074 	movhi	r2,257
 10021ac:	10b7bf43 	ldbu	r2,-8451(r2)
 10021b0:	15803fcc 	andi	r22,r2,255
 10021b4:	00804074 	movhi	r2,257
 10021b8:	10b7bf83 	ldbu	r2,-8450(r2)
 10021bc:	15c03fcc 	andi	r23,r2,255
 10021c0:	00804074 	movhi	r2,257
 10021c4:	10b7bfc3 	ldbu	r2,-8449(r2)
 10021c8:	10c03fcc 	andi	r3,r2,255
 10021cc:	00804074 	movhi	r2,257
 10021d0:	10b7c003 	ldbu	r2,-8448(r2)
 10021d4:	10803fcc 	andi	r2,r2,255
 10021d8:	d8801515 	stw	r2,84(sp)
 10021dc:	d8c01415 	stw	r3,80(sp)
 10021e0:	ddc01315 	stw	r23,76(sp)
 10021e4:	dd801215 	stw	r22,72(sp)
 10021e8:	dd401115 	stw	r21,68(sp)
 10021ec:	dd001015 	stw	r20,64(sp)
 10021f0:	dcc00f15 	stw	r19,60(sp)
 10021f4:	dc800e15 	stw	r18,56(sp)
 10021f8:	dc400d15 	stw	r17,52(sp)
 10021fc:	dc000c15 	stw	r16,48(sp)
 1002200:	dbc00b15 	stw	r15,44(sp)
 1002204:	db800a15 	stw	r14,40(sp)
 1002208:	db400915 	stw	r13,36(sp)
 100220c:	db000815 	stw	r12,32(sp)
 1002210:	dac00715 	stw	r11,28(sp)
 1002214:	da800615 	stw	r10,24(sp)
 1002218:	da400515 	stw	r9,20(sp)
 100221c:	da000415 	stw	r8,16(sp)
 1002220:	d9c00315 	stw	r7,12(sp)
 1002224:	d9800215 	stw	r6,8(sp)
 1002228:	d9400115 	stw	r5,4(sp)
 100222c:	d9000015 	stw	r4,0(sp)
 1002230:	e1fff317 	ldw	r7,-52(fp)
 1002234:	e1bff417 	ldw	r6,-48(fp)
 1002238:	f80b883a 	mov	r5,ra
 100223c:	01004074 	movhi	r4,257
 1002240:	212d0504 	addi	r4,r4,-19436
 1002244:	10030c40 	call	10030c4 <alt_printf>
			alt_dcache_flush_all();
 1002248:	1002f3c0 	call	1002f3c <alt_dcache_flush_all>
			alt_avalon_sgdma_construct_mem_to_stream_desc(&tx_descriptor, &tx_descriptor_end, (alt_u32 *)tx_frame, 64, 0, 1, 1, 0);
 100224c:	d8000315 	stw	zero,12(sp)
 1002250:	00800044 	movi	r2,1
 1002254:	d8800215 	stw	r2,8(sp)
 1002258:	00800044 	movi	r2,1
 100225c:	d8800115 	stw	r2,4(sp)
 1002260:	d8000015 	stw	zero,0(sp)
 1002264:	01c01004 	movi	r7,64
 1002268:	01804074 	movhi	r6,257
 100226c:	31b7b984 	addi	r6,r6,-8474
 1002270:	01408034 	movhi	r5,512
 1002274:	29400804 	addi	r5,r5,32
 1002278:	01008034 	movhi	r4,512
 100227c:	21000004 	addi	r4,r4,0
 1002280:	1003bc40 	call	1003bc4 <alt_avalon_sgdma_construct_mem_to_stream_desc>
			alt_avalon_sgdma_do_async_transfer( sgdma_tx_dev, &tx_descriptor );
 1002284:	d0a0ec17 	ldw	r2,-31824(gp)
 1002288:	01408034 	movhi	r5,512
 100228c:	29400004 	addi	r5,r5,0
 1002290:	1009883a 	mov	r4,r2
 1002294:	10037c00 	call	10037c0 <alt_avalon_sgdma_do_async_transfer>
			while (alt_avalon_sgdma_check_descriptor_status(&tx_descriptor) != 0);
 1002298:	0001883a 	nop
 100229c:	01008034 	movhi	r4,512
 10022a0:	21000004 	addi	r4,r4,0
 10022a4:	1003dd80 	call	1003dd8 <alt_avalon_sgdma_check_descriptor_status>
 10022a8:	103ffc1e 	bne	r2,zero,100229c <rx_ethernet_isr+0xfa4>
			TCP[0].seq_num++;
 10022ac:	00804074 	movhi	r2,257
 10022b0:	10b9d20b 	ldhu	r2,-6328(r2)
 10022b4:	10800044 	addi	r2,r2,1
 10022b8:	1007883a 	mov	r3,r2
 10022bc:	00804074 	movhi	r2,257
 10022c0:	10f9d20d 	sth	r3,-6328(r2)
 10022c4:	00001006 	br	1002308 <rx_ethernet_isr+0x1010>
		}
	/********************* DATA ACKNOWLEDGEMENT RECEIVED***********************************/
		else if(rx_frame[24] == 0x0C){
 10022c8:	00804074 	movhi	r2,257
 10022cc:	10b64403 	ldbu	r2,-9968(r2)
 10022d0:	10803fcc 	andi	r2,r2,255
 10022d4:	10800318 	cmpnei	r2,r2,12
 10022d8:	10000b1e 	bne	r2,zero,1002308 <rx_ethernet_isr+0x1010>
			TCP[0].ack_num++;
 10022dc:	00804074 	movhi	r2,257
 10022e0:	10b9d18b 	ldhu	r2,-6330(r2)
 10022e4:	10800044 	addi	r2,r2,1
 10022e8:	1007883a 	mov	r3,r2
 10022ec:	00804074 	movhi	r2,257
 10022f0:	10f9d18d 	sth	r3,-6330(r2)
			alt_printf("\n Data ACK received");
 10022f4:	01004074 	movhi	r4,257
 10022f8:	212d2104 	addi	r4,r4,-19324
 10022fc:	10030c40 	call	10030c4 <alt_printf>
			data_flag = 1;
 1002300:	00800044 	movi	r2,1
 1002304:	d0a0eb05 	stb	r2,-31828(gp)
		}

	// Wait until receive descriptor transfer is complete
	while (alt_avalon_sgdma_check_descriptor_status(&rx_descriptor) != 0);
 1002308:	0001883a 	nop
 100230c:	01008034 	movhi	r4,512
 1002310:	21001004 	addi	r4,r4,64
 1002314:	1003dd80 	call	1003dd8 <alt_avalon_sgdma_check_descriptor_status>
 1002318:	103ffc1e 	bne	r2,zero,100230c <rx_ethernet_isr+0x1014>
	// Create new receive sgdma descriptor
	alt_avalon_sgdma_construct_stream_to_mem_desc( &rx_descriptor, &rx_descriptor_end, (alt_u32 *)rx_frame, 0, 0 );
 100231c:	d8000015 	stw	zero,0(sp)
 1002320:	000f883a 	mov	r7,zero
 1002324:	01804074 	movhi	r6,257
 1002328:	31b63e04 	addi	r6,r6,-9992
 100232c:	01408034 	movhi	r5,512
 1002330:	29401804 	addi	r5,r5,96
 1002334:	01008034 	movhi	r4,512
 1002338:	21001004 	addi	r4,r4,64
 100233c:	1003aec0 	call	1003aec <alt_avalon_sgdma_construct_stream_to_mem_desc>
	// Set up non-blocking transfer of sgdma receive descriptor
	alt_avalon_sgdma_do_async_transfer( sgdma_rx_dev, &rx_descriptor );
 1002340:	d0a0ed17 	ldw	r2,-31820(gp)
 1002344:	01408034 	movhi	r5,512
 1002348:	29401004 	addi	r5,r5,64
 100234c:	1009883a 	mov	r4,r2
 1002350:	10037c00 	call	10037c0 <alt_avalon_sgdma_do_async_transfer>


}
 1002354:	e6fff804 	addi	sp,fp,-32
 1002358:	dfc00917 	ldw	ra,36(sp)
 100235c:	df000817 	ldw	fp,32(sp)
 1002360:	ddc00717 	ldw	r23,28(sp)
 1002364:	dd800617 	ldw	r22,24(sp)
 1002368:	dd400517 	ldw	r21,20(sp)
 100236c:	dd000417 	ldw	r20,16(sp)
 1002370:	dcc00317 	ldw	r19,12(sp)
 1002374:	dc800217 	ldw	r18,8(sp)
 1002378:	dc400117 	ldw	r17,4(sp)
 100237c:	dc000017 	ldw	r16,0(sp)
 1002380:	dec00a04 	addi	sp,sp,40
 1002384:	f800283a 	ret

01002388 <create_pkt>:

/********* Function for Creating Packet before transmission ***********************/
void create_pkt(){
 1002388:	defffe04 	addi	sp,sp,-8
 100238c:	dfc00115 	stw	ra,4(sp)
 1002390:	df000015 	stw	fp,0(sp)
 1002394:	d839883a 	mov	fp,sp
	memset(tx_frame+26,0,37);
 1002398:	00804074 	movhi	r2,257
 100239c:	10b7c004 	addi	r2,r2,-8448
 10023a0:	01800944 	movi	r6,37
 10023a4:	000b883a 	mov	r5,zero
 10023a8:	1009883a 	mov	r4,r2
 10023ac:	10026080 	call	1002608 <memset>
	memcpy(tx_frame+20, &TCP[0].seq_num, 2);
 10023b0:	00804074 	movhi	r2,257
 10023b4:	10b7be84 	addi	r2,r2,-8454
 10023b8:	01800084 	movi	r6,2
 10023bc:	01404074 	movhi	r5,257
 10023c0:	2979d204 	addi	r5,r5,-6328
 10023c4:	1009883a 	mov	r4,r2
 10023c8:	10025e00 	call	10025e0 <memcpy>
	memcpy(tx_frame+22, &TCP[0].ack_num, 2);
 10023cc:	00804074 	movhi	r2,257
 10023d0:	10b7bf04 	addi	r2,r2,-8452
 10023d4:	01800084 	movi	r6,2
 10023d8:	01404074 	movhi	r5,257
 10023dc:	2979d184 	addi	r5,r5,-6330
 10023e0:	1009883a 	mov	r4,r2
 10023e4:	10025e00 	call	10025e0 <memcpy>
	memcpy(tx_frame+24, "\x00", 1);
 10023e8:	00804074 	movhi	r2,257
 10023ec:	10b7bf84 	addi	r2,r2,-8450
 10023f0:	01800044 	movi	r6,1
 10023f4:	01404074 	movhi	r5,257
 10023f8:	296d2604 	addi	r5,r5,-19304
 10023fc:	1009883a 	mov	r4,r2
 1002400:	10025e00 	call	10025e0 <memcpy>
	memmove(tx_frame, "\x00\x00",2);
 1002404:	00804074 	movhi	r2,257
 1002408:	10ed2703 	ldbu	r3,-19300(r2)
 100240c:	00804074 	movhi	r2,257
 1002410:	10f7b985 	stb	r3,-8474(r2)
 1002414:	00804074 	movhi	r2,257
 1002418:	10ed2743 	ldbu	r3,-19299(r2)
 100241c:	00804074 	movhi	r2,257
 1002420:	10f7b9c5 	stb	r3,-8473(r2)
	memmove(tx_frame+2, &TCP[0].dest_mac,6);
 1002424:	00804074 	movhi	r2,257
 1002428:	10b7ba04 	addi	r2,r2,-8472
 100242c:	00c04074 	movhi	r3,257
 1002430:	18f9cd43 	ldbu	r3,-6347(r3)
 1002434:	10c00005 	stb	r3,0(r2)
 1002438:	00c04074 	movhi	r3,257
 100243c:	18f9cd83 	ldbu	r3,-6346(r3)
 1002440:	10c00045 	stb	r3,1(r2)
 1002444:	00c04074 	movhi	r3,257
 1002448:	18f9cdc3 	ldbu	r3,-6345(r3)
 100244c:	10c00085 	stb	r3,2(r2)
 1002450:	00c04074 	movhi	r3,257
 1002454:	18f9ce03 	ldbu	r3,-6344(r3)
 1002458:	10c000c5 	stb	r3,3(r2)
 100245c:	00c04074 	movhi	r3,257
 1002460:	18f9ce43 	ldbu	r3,-6343(r3)
 1002464:	10c00105 	stb	r3,4(r2)
 1002468:	00c04074 	movhi	r3,257
 100246c:	18f9ce83 	ldbu	r3,-6342(r3)
 1002470:	10c00145 	stb	r3,5(r2)
	memmove(tx_frame+8, &TCP[0].source_mac,6);
 1002474:	00804074 	movhi	r2,257
 1002478:	10b7bb84 	addi	r2,r2,-8466
 100247c:	00c04074 	movhi	r3,257
 1002480:	18f9cec3 	ldbu	r3,-6341(r3)
 1002484:	10c00005 	stb	r3,0(r2)
 1002488:	00c04074 	movhi	r3,257
 100248c:	18f9cf03 	ldbu	r3,-6340(r3)
 1002490:	10c00045 	stb	r3,1(r2)
 1002494:	00c04074 	movhi	r3,257
 1002498:	18f9cf43 	ldbu	r3,-6339(r3)
 100249c:	10c00085 	stb	r3,2(r2)
 10024a0:	00c04074 	movhi	r3,257
 10024a4:	18f9cf83 	ldbu	r3,-6338(r3)
 10024a8:	10c000c5 	stb	r3,3(r2)
 10024ac:	00c04074 	movhi	r3,257
 10024b0:	18f9cfc3 	ldbu	r3,-6337(r3)
 10024b4:	10c00105 	stb	r3,4(r2)
 10024b8:	00c04074 	movhi	r3,257
 10024bc:	18f9d003 	ldbu	r3,-6336(r3)
 10024c0:	10c00145 	stb	r3,5(r2)
	memmove(tx_frame+14, "\x2E\x00", 2);
 10024c4:	00804074 	movhi	r2,257
 10024c8:	10b7bd04 	addi	r2,r2,-8460
 10024cc:	00c00b84 	movi	r3,46
 10024d0:	10c00005 	stb	r3,0(r2)
 10024d4:	10000045 	stb	zero,1(r2)
	memmove(tx_frame+16, &TCP[0].source_port, 2);
 10024d8:	00804074 	movhi	r2,257
 10024dc:	10b7bd84 	addi	r2,r2,-8458
 10024e0:	00c04074 	movhi	r3,257
 10024e4:	18f9d083 	ldbu	r3,-6334(r3)
 10024e8:	10c00005 	stb	r3,0(r2)
 10024ec:	00c04074 	movhi	r3,257
 10024f0:	18f9d0c3 	ldbu	r3,-6333(r3)
 10024f4:	10c00045 	stb	r3,1(r2)
	memmove(tx_frame+18, &TCP[0].dest_port, 2);
 10024f8:	00804074 	movhi	r2,257
 10024fc:	10b7be04 	addi	r2,r2,-8456
 1002500:	00c04074 	movhi	r3,257
 1002504:	18f9d103 	ldbu	r3,-6332(r3)
 1002508:	10c00005 	stb	r3,0(r2)
 100250c:	00c04074 	movhi	r3,257
 1002510:	18f9d143 	ldbu	r3,-6331(r3)
 1002514:	10c00045 	stb	r3,1(r2)
}
 1002518:	0001883a 	nop
 100251c:	e037883a 	mov	sp,fp
 1002520:	dfc00117 	ldw	ra,4(sp)
 1002524:	df000017 	ldw	fp,0(sp)
 1002528:	dec00204 	addi	sp,sp,8
 100252c:	f800283a 	ret

01002530 <statistics_counter>:

/******* Printing  Ethernet Statistics *********************************************/
void statistics_counter(){
 1002530:	defffd04 	addi	sp,sp,-12
 1002534:	dfc00215 	stw	ra,8(sp)
 1002538:	df000115 	stw	fp,4(sp)
 100253c:	df000104 	addi	fp,sp,4
	volatile int *tse = (int *)TSE_BASE;
 1002540:	00808034 	movhi	r2,512
 1002544:	108c0004 	addi	r2,r2,12288
 1002548:	e0bfff15 	stw	r2,-4(fp)
	alt_printf("\n********************* Statistics - Ethernet **********************");
 100254c:	01004074 	movhi	r4,257
 1002550:	212d2804 	addi	r4,r4,-19296
 1002554:	10030c40 	call	10030c4 <alt_printf>
	alt_printf("\nnum frames successfully received: %x ", *(tse + 0x1B));
 1002558:	e0bfff17 	ldw	r2,-4(fp)
 100255c:	10801b04 	addi	r2,r2,108
 1002560:	10800017 	ldw	r2,0(r2)
 1002564:	100b883a 	mov	r5,r2
 1002568:	01004074 	movhi	r4,257
 100256c:	212d3904 	addi	r4,r4,-19228
 1002570:	10030c40 	call	10030c4 <alt_printf>
	alt_printf("\nnum error frames received: %x ", *(tse + 0x22));
 1002574:	e0bfff17 	ldw	r2,-4(fp)
 1002578:	10802204 	addi	r2,r2,136
 100257c:	10800017 	ldw	r2,0(r2)
 1002580:	100b883a 	mov	r5,r2
 1002584:	01004074 	movhi	r4,257
 1002588:	212d4304 	addi	r4,r4,-19188
 100258c:	10030c40 	call	10030c4 <alt_printf>
	alt_printf("\nnum frames correctly received: %x ", *(tse + 0x1B) - *(tse + 0x22));
 1002590:	e0bfff17 	ldw	r2,-4(fp)
 1002594:	10801b04 	addi	r2,r2,108
 1002598:	10c00017 	ldw	r3,0(r2)
 100259c:	e0bfff17 	ldw	r2,-4(fp)
 10025a0:	10802204 	addi	r2,r2,136
 10025a4:	10800017 	ldw	r2,0(r2)
 10025a8:	1885c83a 	sub	r2,r3,r2
 10025ac:	100b883a 	mov	r5,r2
 10025b0:	01004074 	movhi	r4,257
 10025b4:	212d4b04 	addi	r4,r4,-19156
 10025b8:	10030c40 	call	10030c4 <alt_printf>
	alt_printf("\n******************************************************************");
 10025bc:	01004074 	movhi	r4,257
 10025c0:	212d5404 	addi	r4,r4,-19120
 10025c4:	10030c40 	call	10030c4 <alt_printf>
}
 10025c8:	0001883a 	nop
 10025cc:	e037883a 	mov	sp,fp
 10025d0:	dfc00117 	ldw	ra,4(sp)
 10025d4:	df000017 	ldw	fp,0(sp)
 10025d8:	dec00204 	addi	sp,sp,8
 10025dc:	f800283a 	ret

010025e0 <memcpy>:
 10025e0:	2005883a 	mov	r2,r4
 10025e4:	0007883a 	mov	r3,zero
 10025e8:	30c0011e 	bne	r6,r3,10025f0 <memcpy+0x10>
 10025ec:	f800283a 	ret
 10025f0:	28cf883a 	add	r7,r5,r3
 10025f4:	39c00003 	ldbu	r7,0(r7)
 10025f8:	10c9883a 	add	r4,r2,r3
 10025fc:	18c00044 	addi	r3,r3,1
 1002600:	21c00005 	stb	r7,0(r4)
 1002604:	003ff806 	br	10025e8 <memcpy+0x8>

01002608 <memset>:
 1002608:	2005883a 	mov	r2,r4
 100260c:	218d883a 	add	r6,r4,r6
 1002610:	2007883a 	mov	r3,r4
 1002614:	1980011e 	bne	r3,r6,100261c <memset+0x14>
 1002618:	f800283a 	ret
 100261c:	18c00044 	addi	r3,r3,1
 1002620:	197fffc5 	stb	r5,-1(r3)
 1002624:	003ffb06 	br	1002614 <memset+0xc>

01002628 <_printf_r>:
 1002628:	defffd04 	addi	sp,sp,-12
 100262c:	dfc00015 	stw	ra,0(sp)
 1002630:	d9800115 	stw	r6,4(sp)
 1002634:	d9c00215 	stw	r7,8(sp)
 1002638:	21800217 	ldw	r6,8(r4)
 100263c:	00804034 	movhi	r2,256
 1002640:	108b1204 	addi	r2,r2,11336
 1002644:	30800115 	stw	r2,4(r6)
 1002648:	280d883a 	mov	r6,r5
 100264c:	21400217 	ldw	r5,8(r4)
 1002650:	d9c00104 	addi	r7,sp,4
 1002654:	10027180 	call	1002718 <___vfprintf_internal_r>
 1002658:	dfc00017 	ldw	ra,0(sp)
 100265c:	dec00304 	addi	sp,sp,12
 1002660:	f800283a 	ret

01002664 <printf>:
 1002664:	defffc04 	addi	sp,sp,-16
 1002668:	dfc00015 	stw	ra,0(sp)
 100266c:	d9400115 	stw	r5,4(sp)
 1002670:	d9800215 	stw	r6,8(sp)
 1002674:	d9c00315 	stw	r7,12(sp)
 1002678:	00804074 	movhi	r2,257
 100267c:	10f54717 	ldw	r3,-10980(r2)
 1002680:	00804034 	movhi	r2,256
 1002684:	108b1204 	addi	r2,r2,11336
 1002688:	19400217 	ldw	r5,8(r3)
 100268c:	d9800104 	addi	r6,sp,4
 1002690:	28800115 	stw	r2,4(r5)
 1002694:	200b883a 	mov	r5,r4
 1002698:	19000217 	ldw	r4,8(r3)
 100269c:	1002c300 	call	1002c30 <__vfprintf_internal>
 10026a0:	dfc00017 	ldw	ra,0(sp)
 10026a4:	dec00404 	addi	sp,sp,16
 10026a8:	f800283a 	ret

010026ac <print_repeat>:
 10026ac:	defffb04 	addi	sp,sp,-20
 10026b0:	dc800315 	stw	r18,12(sp)
 10026b4:	dc400215 	stw	r17,8(sp)
 10026b8:	dc000115 	stw	r16,4(sp)
 10026bc:	dfc00415 	stw	ra,16(sp)
 10026c0:	2025883a 	mov	r18,r4
 10026c4:	2823883a 	mov	r17,r5
 10026c8:	d9800005 	stb	r6,0(sp)
 10026cc:	3821883a 	mov	r16,r7
 10026d0:	04000716 	blt	zero,r16,10026f0 <print_repeat+0x44>
 10026d4:	0005883a 	mov	r2,zero
 10026d8:	dfc00417 	ldw	ra,16(sp)
 10026dc:	dc800317 	ldw	r18,12(sp)
 10026e0:	dc400217 	ldw	r17,8(sp)
 10026e4:	dc000117 	ldw	r16,4(sp)
 10026e8:	dec00504 	addi	sp,sp,20
 10026ec:	f800283a 	ret
 10026f0:	88800117 	ldw	r2,4(r17)
 10026f4:	01c00044 	movi	r7,1
 10026f8:	d80d883a 	mov	r6,sp
 10026fc:	880b883a 	mov	r5,r17
 1002700:	9009883a 	mov	r4,r18
 1002704:	103ee83a 	callr	r2
 1002708:	843fffc4 	addi	r16,r16,-1
 100270c:	103ff026 	beq	r2,zero,10026d0 <print_repeat+0x24>
 1002710:	00bfffc4 	movi	r2,-1
 1002714:	003ff006 	br	10026d8 <print_repeat+0x2c>

01002718 <___vfprintf_internal_r>:
 1002718:	deffe604 	addi	sp,sp,-104
 100271c:	df001815 	stw	fp,96(sp)
 1002720:	ddc01715 	stw	r23,92(sp)
 1002724:	dd801615 	stw	r22,88(sp)
 1002728:	dd001415 	stw	r20,80(sp)
 100272c:	dcc01315 	stw	r19,76(sp)
 1002730:	dc801215 	stw	r18,72(sp)
 1002734:	dc401115 	stw	r17,68(sp)
 1002738:	dc001015 	stw	r16,64(sp)
 100273c:	dfc01915 	stw	ra,100(sp)
 1002740:	dd401515 	stw	r21,84(sp)
 1002744:	2021883a 	mov	r16,r4
 1002748:	282d883a 	mov	r22,r5
 100274c:	d9800515 	stw	r6,20(sp)
 1002750:	382f883a 	mov	r23,r7
 1002754:	0039883a 	mov	fp,zero
 1002758:	d8000215 	stw	zero,8(sp)
 100275c:	0027883a 	mov	r19,zero
 1002760:	0029883a 	mov	r20,zero
 1002764:	0025883a 	mov	r18,zero
 1002768:	0023883a 	mov	r17,zero
 100276c:	d8000115 	stw	zero,4(sp)
 1002770:	d8000015 	stw	zero,0(sp)
 1002774:	0005883a 	mov	r2,zero
 1002778:	00000506 	br	1002790 <___vfprintf_internal_r+0x78>
 100277c:	11800060 	cmpeqi	r6,r2,1
 1002780:	3000331e 	bne	r6,zero,1002850 <___vfprintf_internal_r+0x138>
 1002784:	11800088 	cmpgei	r6,r2,2
 1002788:	30000a1e 	bne	r6,zero,10027b4 <___vfprintf_internal_r+0x9c>
 100278c:	10001826 	beq	r2,zero,10027f0 <___vfprintf_internal_r+0xd8>
 1002790:	d8c00517 	ldw	r3,20(sp)
 1002794:	18c00044 	addi	r3,r3,1
 1002798:	197fffc3 	ldbu	r5,-1(r3)
 100279c:	d8c00515 	stw	r3,20(sp)
 10027a0:	29003fcc 	andi	r4,r5,255
 10027a4:	2100201c 	xori	r4,r4,128
 10027a8:	213fe004 	addi	r4,r4,-128
 10027ac:	203ff31e 	bne	r4,zero,100277c <___vfprintf_internal_r+0x64>
 10027b0:	00001a06 	br	100281c <___vfprintf_internal_r+0x104>
 10027b4:	118000a0 	cmpeqi	r6,r2,2
 10027b8:	3000291e 	bne	r6,zero,1002860 <___vfprintf_internal_r+0x148>
 10027bc:	118000e0 	cmpeqi	r6,r2,3
 10027c0:	303ff326 	beq	r6,zero,1002790 <___vfprintf_internal_r+0x78>
 10027c4:	297ff404 	addi	r5,r5,-48
 10027c8:	29403fcc 	andi	r5,r5,255
 10027cc:	298002a8 	cmpgeui	r6,r5,10
 10027d0:	3000391e 	bne	r6,zero,10028b8 <___vfprintf_internal_r+0x1a0>
 10027d4:	913fffe0 	cmpeqi	r4,r18,-1
 10027d8:	2000351e 	bne	r4,zero,10028b0 <___vfprintf_internal_r+0x198>
 10027dc:	900890ba 	slli	r4,r18,2
 10027e0:	24a5883a 	add	r18,r4,r18
 10027e4:	9024907a 	slli	r18,r18,1
 10027e8:	2ca5883a 	add	r18,r5,r18
 10027ec:	003fe806 	br	1002790 <___vfprintf_internal_r+0x78>
 10027f0:	21000960 	cmpeqi	r4,r4,37
 10027f4:	2000fe1e 	bne	r4,zero,1002bf0 <___vfprintf_internal_r+0x4d8>
 10027f8:	b0800117 	ldw	r2,4(r22)
 10027fc:	d9400805 	stb	r5,32(sp)
 1002800:	01c00044 	movi	r7,1
 1002804:	d9800804 	addi	r6,sp,32
 1002808:	b00b883a 	mov	r5,r22
 100280c:	8009883a 	mov	r4,r16
 1002810:	103ee83a 	callr	r2
 1002814:	10001e26 	beq	r2,zero,1002890 <___vfprintf_internal_r+0x178>
 1002818:	073fffc4 	movi	fp,-1
 100281c:	e005883a 	mov	r2,fp
 1002820:	dfc01917 	ldw	ra,100(sp)
 1002824:	df001817 	ldw	fp,96(sp)
 1002828:	ddc01717 	ldw	r23,92(sp)
 100282c:	dd801617 	ldw	r22,88(sp)
 1002830:	dd401517 	ldw	r21,84(sp)
 1002834:	dd001417 	ldw	r20,80(sp)
 1002838:	dcc01317 	ldw	r19,76(sp)
 100283c:	dc801217 	ldw	r18,72(sp)
 1002840:	dc401117 	ldw	r17,68(sp)
 1002844:	dc001017 	ldw	r16,64(sp)
 1002848:	dec01a04 	addi	sp,sp,104
 100284c:	f800283a 	ret
 1002850:	20800c20 	cmpeqi	r2,r4,48
 1002854:	1000ef1e 	bne	r2,zero,1002c14 <___vfprintf_internal_r+0x4fc>
 1002858:	20800958 	cmpnei	r2,r4,37
 100285c:	103fe626 	beq	r2,zero,10027f8 <___vfprintf_internal_r+0xe0>
 1002860:	29bff404 	addi	r6,r5,-48
 1002864:	31803fcc 	andi	r6,r6,255
 1002868:	308002a8 	cmpgeui	r2,r6,10
 100286c:	10000c1e 	bne	r2,zero,10028a0 <___vfprintf_internal_r+0x188>
 1002870:	88bfffe0 	cmpeqi	r2,r17,-1
 1002874:	1000081e 	bne	r2,zero,1002898 <___vfprintf_internal_r+0x180>
 1002878:	880490ba 	slli	r2,r17,2
 100287c:	1463883a 	add	r17,r2,r17
 1002880:	8822907a 	slli	r17,r17,1
 1002884:	3463883a 	add	r17,r6,r17
 1002888:	00800084 	movi	r2,2
 100288c:	003fc006 	br	1002790 <___vfprintf_internal_r+0x78>
 1002890:	e7000044 	addi	fp,fp,1
 1002894:	003fbe06 	br	1002790 <___vfprintf_internal_r+0x78>
 1002898:	0023883a 	mov	r17,zero
 100289c:	003ff906 	br	1002884 <___vfprintf_internal_r+0x16c>
 10028a0:	20800ba0 	cmpeqi	r2,r4,46
 10028a4:	1000e01e 	bne	r2,zero,1002c28 <___vfprintf_internal_r+0x510>
 10028a8:	00800084 	movi	r2,2
 10028ac:	003fc506 	br	10027c4 <___vfprintf_internal_r+0xac>
 10028b0:	0025883a 	mov	r18,zero
 10028b4:	003fcc06 	br	10027e8 <___vfprintf_internal_r+0xd0>
 10028b8:	20801b20 	cmpeqi	r2,r4,108
 10028bc:	1000d81e 	bne	r2,zero,1002c20 <___vfprintf_internal_r+0x508>
 10028c0:	90bfffe0 	cmpeqi	r2,r18,-1
 10028c4:	10000e1e 	bne	r2,zero,1002900 <___vfprintf_internal_r+0x1e8>
 10028c8:	d8000015 	stw	zero,0(sp)
 10028cc:	20801a60 	cmpeqi	r2,r4,105
 10028d0:	1000201e 	bne	r2,zero,1002954 <___vfprintf_internal_r+0x23c>
 10028d4:	20801a88 	cmpgei	r2,r4,106
 10028d8:	10000b1e 	bne	r2,zero,1002908 <___vfprintf_internal_r+0x1f0>
 10028dc:	208018e0 	cmpeqi	r2,r4,99
 10028e0:	1000911e 	bne	r2,zero,1002b28 <___vfprintf_internal_r+0x410>
 10028e4:	20801920 	cmpeqi	r2,r4,100
 10028e8:	10001a1e 	bne	r2,zero,1002954 <___vfprintf_internal_r+0x23c>
 10028ec:	21001620 	cmpeqi	r4,r4,88
 10028f0:	203fa026 	beq	r4,zero,1002774 <___vfprintf_internal_r+0x5c>
 10028f4:	00800044 	movi	r2,1
 10028f8:	d8800215 	stw	r2,8(sp)
 10028fc:	00001306 	br	100294c <___vfprintf_internal_r+0x234>
 1002900:	04800044 	movi	r18,1
 1002904:	003ff106 	br	10028cc <___vfprintf_internal_r+0x1b4>
 1002908:	20801ce0 	cmpeqi	r2,r4,115
 100290c:	10009d1e 	bne	r2,zero,1002b84 <___vfprintf_internal_r+0x46c>
 1002910:	20801d08 	cmpgei	r2,r4,116
 1002914:	1000091e 	bne	r2,zero,100293c <___vfprintf_internal_r+0x224>
 1002918:	21001be0 	cmpeqi	r4,r4,111
 100291c:	203f9526 	beq	r4,zero,1002774 <___vfprintf_internal_r+0x5c>
 1002920:	05000204 	movi	r20,8
 1002924:	b8800104 	addi	r2,r23,4
 1002928:	d8800415 	stw	r2,16(sp)
 100292c:	bd400017 	ldw	r21,0(r23)
 1002930:	0027883a 	mov	r19,zero
 1002934:	0007883a 	mov	r3,zero
 1002938:	00001006 	br	100297c <___vfprintf_internal_r+0x264>
 100293c:	20801d60 	cmpeqi	r2,r4,117
 1002940:	103ff81e 	bne	r2,zero,1002924 <___vfprintf_internal_r+0x20c>
 1002944:	21001e20 	cmpeqi	r4,r4,120
 1002948:	203f8a26 	beq	r4,zero,1002774 <___vfprintf_internal_r+0x5c>
 100294c:	05000404 	movi	r20,16
 1002950:	003ff406 	br	1002924 <___vfprintf_internal_r+0x20c>
 1002954:	b8800104 	addi	r2,r23,4
 1002958:	d8800415 	stw	r2,16(sp)
 100295c:	983ff126 	beq	r19,zero,1002924 <___vfprintf_internal_r+0x20c>
 1002960:	bd400017 	ldw	r21,0(r23)
 1002964:	a8000216 	blt	r21,zero,1002970 <___vfprintf_internal_r+0x258>
 1002968:	04c00044 	movi	r19,1
 100296c:	003ff106 	br	1002934 <___vfprintf_internal_r+0x21c>
 1002970:	056bc83a 	sub	r21,zero,r21
 1002974:	04c00044 	movi	r19,1
 1002978:	00c00044 	movi	r3,1
 100297c:	ddc00804 	addi	r23,sp,32
 1002980:	b80d883a 	mov	r6,r23
 1002984:	a8002e1e 	bne	r21,zero,1002a40 <___vfprintf_internal_r+0x328>
 1002988:	b985c83a 	sub	r2,r23,r6
 100298c:	d8800315 	stw	r2,12(sp)
 1002990:	9085c83a 	sub	r2,r18,r2
 1002994:	0080090e 	bge	zero,r2,10029bc <___vfprintf_internal_r+0x2a4>
 1002998:	b885883a 	add	r2,r23,r2
 100299c:	d9001004 	addi	r4,sp,64
 10029a0:	b900042e 	bgeu	r23,r4,10029b4 <___vfprintf_internal_r+0x29c>
 10029a4:	bdc00044 	addi	r23,r23,1
 10029a8:	01000c04 	movi	r4,48
 10029ac:	b93fffc5 	stb	r4,-1(r23)
 10029b0:	b8bffa1e 	bne	r23,r2,100299c <___vfprintf_internal_r+0x284>
 10029b4:	b985c83a 	sub	r2,r23,r6
 10029b8:	d8800315 	stw	r2,12(sp)
 10029bc:	d8800317 	ldw	r2,12(sp)
 10029c0:	1895883a 	add	r10,r3,r2
 10029c4:	d8800017 	ldw	r2,0(sp)
 10029c8:	8aabc83a 	sub	r21,r17,r10
 10029cc:	10003526 	beq	r2,zero,1002aa4 <___vfprintf_internal_r+0x38c>
 10029d0:	18000a26 	beq	r3,zero,10029fc <___vfprintf_internal_r+0x2e4>
 10029d4:	00800b44 	movi	r2,45
 10029d8:	d88007c5 	stb	r2,31(sp)
 10029dc:	b0800117 	ldw	r2,4(r22)
 10029e0:	01c00044 	movi	r7,1
 10029e4:	d98007c4 	addi	r6,sp,31
 10029e8:	b00b883a 	mov	r5,r22
 10029ec:	8009883a 	mov	r4,r16
 10029f0:	103ee83a 	callr	r2
 10029f4:	103f881e 	bne	r2,zero,1002818 <___vfprintf_internal_r+0x100>
 10029f8:	e7000044 	addi	fp,fp,1
 10029fc:	0540070e 	bge	zero,r21,1002a1c <___vfprintf_internal_r+0x304>
 1002a00:	a80f883a 	mov	r7,r21
 1002a04:	01800c04 	movi	r6,48
 1002a08:	b00b883a 	mov	r5,r22
 1002a0c:	8009883a 	mov	r4,r16
 1002a10:	10026ac0 	call	10026ac <print_repeat>
 1002a14:	103f801e 	bne	r2,zero,1002818 <___vfprintf_internal_r+0x100>
 1002a18:	e579883a 	add	fp,fp,r21
 1002a1c:	d8800317 	ldw	r2,12(sp)
 1002a20:	e5f9883a 	add	fp,fp,r23
 1002a24:	15ebc83a 	sub	r21,r2,r23
 1002a28:	adc5883a 	add	r2,r21,r23
 1002a2c:	e5c7c83a 	sub	r3,fp,r23
 1002a30:	00803216 	blt	zero,r2,1002afc <___vfprintf_internal_r+0x3e4>
 1002a34:	ddc00417 	ldw	r23,16(sp)
 1002a38:	1839883a 	mov	fp,r3
 1002a3c:	003f4d06 	br	1002774 <___vfprintf_internal_r+0x5c>
 1002a40:	a00b883a 	mov	r5,r20
 1002a44:	a809883a 	mov	r4,r21
 1002a48:	d8c00615 	stw	r3,24(sp)
 1002a4c:	1002e540 	call	1002e54 <__udivsi3>
 1002a50:	1009883a 	mov	r4,r2
 1002a54:	a00b883a 	mov	r5,r20
 1002a58:	d8800315 	stw	r2,12(sp)
 1002a5c:	1002f140 	call	1002f14 <__mulsi3>
 1002a60:	a885c83a 	sub	r2,r21,r2
 1002a64:	11000288 	cmpgei	r4,r2,10
 1002a68:	d9c00317 	ldw	r7,12(sp)
 1002a6c:	d8c00617 	ldw	r3,24(sp)
 1002a70:	d9800804 	addi	r6,sp,32
 1002a74:	2000051e 	bne	r4,zero,1002a8c <___vfprintf_internal_r+0x374>
 1002a78:	10800c04 	addi	r2,r2,48
 1002a7c:	bdc00044 	addi	r23,r23,1
 1002a80:	b8bfffc5 	stb	r2,-1(r23)
 1002a84:	382b883a 	mov	r21,r7
 1002a88:	003fbe06 	br	1002984 <___vfprintf_internal_r+0x26c>
 1002a8c:	d9000217 	ldw	r4,8(sp)
 1002a90:	20000226 	beq	r4,zero,1002a9c <___vfprintf_internal_r+0x384>
 1002a94:	10800dc4 	addi	r2,r2,55
 1002a98:	003ff806 	br	1002a7c <___vfprintf_internal_r+0x364>
 1002a9c:	108015c4 	addi	r2,r2,87
 1002aa0:	003ff606 	br	1002a7c <___vfprintf_internal_r+0x364>
 1002aa4:	0540090e 	bge	zero,r21,1002acc <___vfprintf_internal_r+0x3b4>
 1002aa8:	a80f883a 	mov	r7,r21
 1002aac:	01800804 	movi	r6,32
 1002ab0:	b00b883a 	mov	r5,r22
 1002ab4:	8009883a 	mov	r4,r16
 1002ab8:	d8c00615 	stw	r3,24(sp)
 1002abc:	10026ac0 	call	10026ac <print_repeat>
 1002ac0:	103f551e 	bne	r2,zero,1002818 <___vfprintf_internal_r+0x100>
 1002ac4:	d8c00617 	ldw	r3,24(sp)
 1002ac8:	e579883a 	add	fp,fp,r21
 1002acc:	183fd326 	beq	r3,zero,1002a1c <___vfprintf_internal_r+0x304>
 1002ad0:	00800b44 	movi	r2,45
 1002ad4:	d88007c5 	stb	r2,31(sp)
 1002ad8:	b0800117 	ldw	r2,4(r22)
 1002adc:	01c00044 	movi	r7,1
 1002ae0:	d98007c4 	addi	r6,sp,31
 1002ae4:	b00b883a 	mov	r5,r22
 1002ae8:	8009883a 	mov	r4,r16
 1002aec:	103ee83a 	callr	r2
 1002af0:	103f491e 	bne	r2,zero,1002818 <___vfprintf_internal_r+0x100>
 1002af4:	e7000044 	addi	fp,fp,1
 1002af8:	003fc806 	br	1002a1c <___vfprintf_internal_r+0x304>
 1002afc:	bdffffc4 	addi	r23,r23,-1
 1002b00:	b8800003 	ldbu	r2,0(r23)
 1002b04:	01c00044 	movi	r7,1
 1002b08:	d98007c4 	addi	r6,sp,31
 1002b0c:	d88007c5 	stb	r2,31(sp)
 1002b10:	b0800117 	ldw	r2,4(r22)
 1002b14:	b00b883a 	mov	r5,r22
 1002b18:	8009883a 	mov	r4,r16
 1002b1c:	103ee83a 	callr	r2
 1002b20:	103fc126 	beq	r2,zero,1002a28 <___vfprintf_internal_r+0x310>
 1002b24:	003f3c06 	br	1002818 <___vfprintf_internal_r+0x100>
 1002b28:	88800090 	cmplti	r2,r17,2
 1002b2c:	1000081e 	bne	r2,zero,1002b50 <___vfprintf_internal_r+0x438>
 1002b30:	8d7fffc4 	addi	r21,r17,-1
 1002b34:	a80f883a 	mov	r7,r21
 1002b38:	01800804 	movi	r6,32
 1002b3c:	b00b883a 	mov	r5,r22
 1002b40:	8009883a 	mov	r4,r16
 1002b44:	10026ac0 	call	10026ac <print_repeat>
 1002b48:	103f331e 	bne	r2,zero,1002818 <___vfprintf_internal_r+0x100>
 1002b4c:	e579883a 	add	fp,fp,r21
 1002b50:	b8800017 	ldw	r2,0(r23)
 1002b54:	01c00044 	movi	r7,1
 1002b58:	d9800804 	addi	r6,sp,32
 1002b5c:	d8800805 	stb	r2,32(sp)
 1002b60:	b0800117 	ldw	r2,4(r22)
 1002b64:	b00b883a 	mov	r5,r22
 1002b68:	8009883a 	mov	r4,r16
 1002b6c:	bd400104 	addi	r21,r23,4
 1002b70:	103ee83a 	callr	r2
 1002b74:	103f281e 	bne	r2,zero,1002818 <___vfprintf_internal_r+0x100>
 1002b78:	e7000044 	addi	fp,fp,1
 1002b7c:	a82f883a 	mov	r23,r21
 1002b80:	003f0306 	br	1002790 <___vfprintf_internal_r+0x78>
 1002b84:	bd400017 	ldw	r21,0(r23)
 1002b88:	b8800104 	addi	r2,r23,4
 1002b8c:	d8800315 	stw	r2,12(sp)
 1002b90:	a809883a 	mov	r4,r21
 1002b94:	1002cf00 	call	1002cf0 <strlen>
 1002b98:	8895c83a 	sub	r10,r17,r2
 1002b9c:	102f883a 	mov	r23,r2
 1002ba0:	0280090e 	bge	zero,r10,1002bc8 <___vfprintf_internal_r+0x4b0>
 1002ba4:	500f883a 	mov	r7,r10
 1002ba8:	01800804 	movi	r6,32
 1002bac:	b00b883a 	mov	r5,r22
 1002bb0:	8009883a 	mov	r4,r16
 1002bb4:	da800415 	stw	r10,16(sp)
 1002bb8:	10026ac0 	call	10026ac <print_repeat>
 1002bbc:	103f161e 	bne	r2,zero,1002818 <___vfprintf_internal_r+0x100>
 1002bc0:	da800417 	ldw	r10,16(sp)
 1002bc4:	e2b9883a 	add	fp,fp,r10
 1002bc8:	b0800117 	ldw	r2,4(r22)
 1002bcc:	b80f883a 	mov	r7,r23
 1002bd0:	a80d883a 	mov	r6,r21
 1002bd4:	b00b883a 	mov	r5,r22
 1002bd8:	8009883a 	mov	r4,r16
 1002bdc:	103ee83a 	callr	r2
 1002be0:	103f0d1e 	bne	r2,zero,1002818 <___vfprintf_internal_r+0x100>
 1002be4:	e5f9883a 	add	fp,fp,r23
 1002be8:	ddc00317 	ldw	r23,12(sp)
 1002bec:	003ee806 	br	1002790 <___vfprintf_internal_r+0x78>
 1002bf0:	d8000215 	stw	zero,8(sp)
 1002bf4:	d8000115 	stw	zero,4(sp)
 1002bf8:	d8000015 	stw	zero,0(sp)
 1002bfc:	04c00044 	movi	r19,1
 1002c00:	05000284 	movi	r20,10
 1002c04:	04bfffc4 	movi	r18,-1
 1002c08:	047fffc4 	movi	r17,-1
 1002c0c:	00800044 	movi	r2,1
 1002c10:	003edf06 	br	1002790 <___vfprintf_internal_r+0x78>
 1002c14:	00800044 	movi	r2,1
 1002c18:	d8800015 	stw	r2,0(sp)
 1002c1c:	003f1a06 	br	1002888 <___vfprintf_internal_r+0x170>
 1002c20:	00800044 	movi	r2,1
 1002c24:	d8800115 	stw	r2,4(sp)
 1002c28:	008000c4 	movi	r2,3
 1002c2c:	003ed806 	br	1002790 <___vfprintf_internal_r+0x78>

01002c30 <__vfprintf_internal>:
 1002c30:	00804074 	movhi	r2,257
 1002c34:	300f883a 	mov	r7,r6
 1002c38:	280d883a 	mov	r6,r5
 1002c3c:	200b883a 	mov	r5,r4
 1002c40:	11354717 	ldw	r4,-10980(r2)
 1002c44:	10027181 	jmpi	1002718 <___vfprintf_internal_r>

01002c48 <__sfvwrite_small_dev>:
 1002c48:	2880000b 	ldhu	r2,0(r5)
 1002c4c:	1080020c 	andi	r2,r2,8
 1002c50:	10002526 	beq	r2,zero,1002ce8 <__sfvwrite_small_dev+0xa0>
 1002c54:	2880008f 	ldh	r2,2(r5)
 1002c58:	defffb04 	addi	sp,sp,-20
 1002c5c:	dcc00315 	stw	r19,12(sp)
 1002c60:	dc800215 	stw	r18,8(sp)
 1002c64:	dc400115 	stw	r17,4(sp)
 1002c68:	dc000015 	stw	r16,0(sp)
 1002c6c:	dfc00415 	stw	ra,16(sp)
 1002c70:	2027883a 	mov	r19,r4
 1002c74:	2821883a 	mov	r16,r5
 1002c78:	3025883a 	mov	r18,r6
 1002c7c:	3823883a 	mov	r17,r7
 1002c80:	1000100e 	bge	r2,zero,1002cc4 <__sfvwrite_small_dev+0x7c>
 1002c84:	8080000b 	ldhu	r2,0(r16)
 1002c88:	10801014 	ori	r2,r2,64
 1002c8c:	8080000d 	sth	r2,0(r16)
 1002c90:	00bfffc4 	movi	r2,-1
 1002c94:	00000d06 	br	1002ccc <__sfvwrite_small_dev+0x84>
 1002c98:	88810050 	cmplti	r2,r17,1025
 1002c9c:	880f883a 	mov	r7,r17
 1002ca0:	1000011e 	bne	r2,zero,1002ca8 <__sfvwrite_small_dev+0x60>
 1002ca4:	01c10004 	movi	r7,1024
 1002ca8:	8140008f 	ldh	r5,2(r16)
 1002cac:	900d883a 	mov	r6,r18
 1002cb0:	9809883a 	mov	r4,r19
 1002cb4:	1002d0c0 	call	1002d0c <_write_r>
 1002cb8:	00bff20e 	bge	zero,r2,1002c84 <__sfvwrite_small_dev+0x3c>
 1002cbc:	88a3c83a 	sub	r17,r17,r2
 1002cc0:	90a5883a 	add	r18,r18,r2
 1002cc4:	047ff416 	blt	zero,r17,1002c98 <__sfvwrite_small_dev+0x50>
 1002cc8:	0005883a 	mov	r2,zero
 1002ccc:	dfc00417 	ldw	ra,16(sp)
 1002cd0:	dcc00317 	ldw	r19,12(sp)
 1002cd4:	dc800217 	ldw	r18,8(sp)
 1002cd8:	dc400117 	ldw	r17,4(sp)
 1002cdc:	dc000017 	ldw	r16,0(sp)
 1002ce0:	dec00504 	addi	sp,sp,20
 1002ce4:	f800283a 	ret
 1002ce8:	00bfffc4 	movi	r2,-1
 1002cec:	f800283a 	ret

01002cf0 <strlen>:
 1002cf0:	2005883a 	mov	r2,r4
 1002cf4:	10c00007 	ldb	r3,0(r2)
 1002cf8:	1800021e 	bne	r3,zero,1002d04 <strlen+0x14>
 1002cfc:	1105c83a 	sub	r2,r2,r4
 1002d00:	f800283a 	ret
 1002d04:	10800044 	addi	r2,r2,1
 1002d08:	003ffa06 	br	1002cf4 <strlen+0x4>

01002d0c <_write_r>:
 1002d0c:	defffe04 	addi	sp,sp,-8
 1002d10:	dc000015 	stw	r16,0(sp)
 1002d14:	00804074 	movhi	r2,257
 1002d18:	2021883a 	mov	r16,r4
 1002d1c:	2809883a 	mov	r4,r5
 1002d20:	300b883a 	mov	r5,r6
 1002d24:	380d883a 	mov	r6,r7
 1002d28:	dfc00115 	stw	ra,4(sp)
 1002d2c:	10363315 	stw	zero,-10036(r2)
 1002d30:	100335c0 	call	100335c <write>
 1002d34:	10ffffd8 	cmpnei	r3,r2,-1
 1002d38:	1800041e 	bne	r3,zero,1002d4c <_write_r+0x40>
 1002d3c:	00c04074 	movhi	r3,257
 1002d40:	18f63317 	ldw	r3,-10036(r3)
 1002d44:	18000126 	beq	r3,zero,1002d4c <_write_r+0x40>
 1002d48:	80c00015 	stw	r3,0(r16)
 1002d4c:	dfc00117 	ldw	ra,4(sp)
 1002d50:	dc000017 	ldw	r16,0(sp)
 1002d54:	dec00204 	addi	sp,sp,8
 1002d58:	f800283a 	ret

01002d5c <__divsi3>:
 1002d5c:	20001a16 	blt	r4,zero,1002dc8 <__divsi3+0x6c>
 1002d60:	000f883a 	mov	r7,zero
 1002d64:	2800020e 	bge	r5,zero,1002d70 <__divsi3+0x14>
 1002d68:	014bc83a 	sub	r5,zero,r5
 1002d6c:	39c0005c 	xori	r7,r7,1
 1002d70:	200d883a 	mov	r6,r4
 1002d74:	00c00044 	movi	r3,1
 1002d78:	2900092e 	bgeu	r5,r4,1002da0 <__divsi3+0x44>
 1002d7c:	00800804 	movi	r2,32
 1002d80:	00c00044 	movi	r3,1
 1002d84:	00000106 	br	1002d8c <__divsi3+0x30>
 1002d88:	10001226 	beq	r2,zero,1002dd4 <__divsi3+0x78>
 1002d8c:	294b883a 	add	r5,r5,r5
 1002d90:	10bfffc4 	addi	r2,r2,-1
 1002d94:	18c7883a 	add	r3,r3,r3
 1002d98:	293ffb36 	bltu	r5,r4,1002d88 <__divsi3+0x2c>
 1002d9c:	18000d26 	beq	r3,zero,1002dd4 <__divsi3+0x78>
 1002da0:	0005883a 	mov	r2,zero
 1002da4:	31400236 	bltu	r6,r5,1002db0 <__divsi3+0x54>
 1002da8:	314dc83a 	sub	r6,r6,r5
 1002dac:	10c4b03a 	or	r2,r2,r3
 1002db0:	1806d07a 	srli	r3,r3,1
 1002db4:	280ad07a 	srli	r5,r5,1
 1002db8:	183ffa1e 	bne	r3,zero,1002da4 <__divsi3+0x48>
 1002dbc:	38000126 	beq	r7,zero,1002dc4 <__divsi3+0x68>
 1002dc0:	0085c83a 	sub	r2,zero,r2
 1002dc4:	f800283a 	ret
 1002dc8:	0109c83a 	sub	r4,zero,r4
 1002dcc:	01c00044 	movi	r7,1
 1002dd0:	003fe406 	br	1002d64 <__divsi3+0x8>
 1002dd4:	0005883a 	mov	r2,zero
 1002dd8:	003ff806 	br	1002dbc <__divsi3+0x60>

01002ddc <__modsi3>:
 1002ddc:	20001a16 	blt	r4,zero,1002e48 <__modsi3+0x6c>
 1002de0:	000f883a 	mov	r7,zero
 1002de4:	2005883a 	mov	r2,r4
 1002de8:	2800010e 	bge	r5,zero,1002df0 <__modsi3+0x14>
 1002dec:	014bc83a 	sub	r5,zero,r5
 1002df0:	00c00044 	movi	r3,1
 1002df4:	2900092e 	bgeu	r5,r4,1002e1c <__modsi3+0x40>
 1002df8:	01800804 	movi	r6,32
 1002dfc:	00c00044 	movi	r3,1
 1002e00:	00000106 	br	1002e08 <__modsi3+0x2c>
 1002e04:	30000d26 	beq	r6,zero,1002e3c <__modsi3+0x60>
 1002e08:	294b883a 	add	r5,r5,r5
 1002e0c:	31bfffc4 	addi	r6,r6,-1
 1002e10:	18c7883a 	add	r3,r3,r3
 1002e14:	293ffb36 	bltu	r5,r4,1002e04 <__modsi3+0x28>
 1002e18:	18000826 	beq	r3,zero,1002e3c <__modsi3+0x60>
 1002e1c:	1806d07a 	srli	r3,r3,1
 1002e20:	11400136 	bltu	r2,r5,1002e28 <__modsi3+0x4c>
 1002e24:	1145c83a 	sub	r2,r2,r5
 1002e28:	280ad07a 	srli	r5,r5,1
 1002e2c:	183ffb1e 	bne	r3,zero,1002e1c <__modsi3+0x40>
 1002e30:	38000126 	beq	r7,zero,1002e38 <__modsi3+0x5c>
 1002e34:	0085c83a 	sub	r2,zero,r2
 1002e38:	f800283a 	ret
 1002e3c:	2005883a 	mov	r2,r4
 1002e40:	383ffd26 	beq	r7,zero,1002e38 <__modsi3+0x5c>
 1002e44:	003ffb06 	br	1002e34 <__modsi3+0x58>
 1002e48:	0109c83a 	sub	r4,zero,r4
 1002e4c:	01c00044 	movi	r7,1
 1002e50:	003fe406 	br	1002de4 <__modsi3+0x8>

01002e54 <__udivsi3>:
 1002e54:	200d883a 	mov	r6,r4
 1002e58:	2900152e 	bgeu	r5,r4,1002eb0 <__udivsi3+0x5c>
 1002e5c:	28001416 	blt	r5,zero,1002eb0 <__udivsi3+0x5c>
 1002e60:	00800804 	movi	r2,32
 1002e64:	00c00044 	movi	r3,1
 1002e68:	00000206 	br	1002e74 <__udivsi3+0x20>
 1002e6c:	10000e26 	beq	r2,zero,1002ea8 <__udivsi3+0x54>
 1002e70:	28000516 	blt	r5,zero,1002e88 <__udivsi3+0x34>
 1002e74:	294b883a 	add	r5,r5,r5
 1002e78:	10bfffc4 	addi	r2,r2,-1
 1002e7c:	18c7883a 	add	r3,r3,r3
 1002e80:	293ffa36 	bltu	r5,r4,1002e6c <__udivsi3+0x18>
 1002e84:	18000826 	beq	r3,zero,1002ea8 <__udivsi3+0x54>
 1002e88:	0005883a 	mov	r2,zero
 1002e8c:	31400236 	bltu	r6,r5,1002e98 <__udivsi3+0x44>
 1002e90:	314dc83a 	sub	r6,r6,r5
 1002e94:	10c4b03a 	or	r2,r2,r3
 1002e98:	1806d07a 	srli	r3,r3,1
 1002e9c:	280ad07a 	srli	r5,r5,1
 1002ea0:	183ffa1e 	bne	r3,zero,1002e8c <__udivsi3+0x38>
 1002ea4:	f800283a 	ret
 1002ea8:	0005883a 	mov	r2,zero
 1002eac:	f800283a 	ret
 1002eb0:	00c00044 	movi	r3,1
 1002eb4:	003ff406 	br	1002e88 <__udivsi3+0x34>

01002eb8 <__umodsi3>:
 1002eb8:	2005883a 	mov	r2,r4
 1002ebc:	2900132e 	bgeu	r5,r4,1002f0c <__umodsi3+0x54>
 1002ec0:	28001216 	blt	r5,zero,1002f0c <__umodsi3+0x54>
 1002ec4:	01800804 	movi	r6,32
 1002ec8:	00c00044 	movi	r3,1
 1002ecc:	00000206 	br	1002ed8 <__umodsi3+0x20>
 1002ed0:	30000c26 	beq	r6,zero,1002f04 <__umodsi3+0x4c>
 1002ed4:	28000516 	blt	r5,zero,1002eec <__umodsi3+0x34>
 1002ed8:	294b883a 	add	r5,r5,r5
 1002edc:	31bfffc4 	addi	r6,r6,-1
 1002ee0:	18c7883a 	add	r3,r3,r3
 1002ee4:	293ffa36 	bltu	r5,r4,1002ed0 <__umodsi3+0x18>
 1002ee8:	18000626 	beq	r3,zero,1002f04 <__umodsi3+0x4c>
 1002eec:	1806d07a 	srli	r3,r3,1
 1002ef0:	11400136 	bltu	r2,r5,1002ef8 <__umodsi3+0x40>
 1002ef4:	1145c83a 	sub	r2,r2,r5
 1002ef8:	280ad07a 	srli	r5,r5,1
 1002efc:	183ffb1e 	bne	r3,zero,1002eec <__umodsi3+0x34>
 1002f00:	f800283a 	ret
 1002f04:	2005883a 	mov	r2,r4
 1002f08:	f800283a 	ret
 1002f0c:	00c00044 	movi	r3,1
 1002f10:	003ff606 	br	1002eec <__umodsi3+0x34>

01002f14 <__mulsi3>:
 1002f14:	0005883a 	mov	r2,zero
 1002f18:	20000726 	beq	r4,zero,1002f38 <__mulsi3+0x24>
 1002f1c:	20c0004c 	andi	r3,r4,1
 1002f20:	2008d07a 	srli	r4,r4,1
 1002f24:	18000126 	beq	r3,zero,1002f2c <__mulsi3+0x18>
 1002f28:	1145883a 	add	r2,r2,r5
 1002f2c:	294b883a 	add	r5,r5,r5
 1002f30:	203ffa1e 	bne	r4,zero,1002f1c <__mulsi3+0x8>
 1002f34:	f800283a 	ret
 1002f38:	f800283a 	ret

01002f3c <alt_dcache_flush_all>:
/*
 * alt_dcache_flush_all() is called to flush the entire data cache.
 */

void alt_dcache_flush_all (void)
{
 1002f3c:	deffff04 	addi	sp,sp,-4
 1002f40:	df000015 	stw	fp,0(sp)
 1002f44:	d839883a 	mov	fp,sp
  for (i = (char*) 0; i < (char*) NIOS2_DCACHE_SIZE; i+= NIOS2_DCACHE_LINE_SIZE)
  { 
    __asm__ volatile ("flushd (%0)" :: "r" (i));
  }
#endif /* NIOS2_DCACHE_SIZE > 0 */
}
 1002f48:	0001883a 	nop
 1002f4c:	e037883a 	mov	sp,fp
 1002f50:	df000017 	ldw	fp,0(sp)
 1002f54:	dec00104 	addi	sp,sp,4
 1002f58:	f800283a 	ret

01002f5c <alt_load_section>:
 */

static void ALT_INLINE alt_load_section (alt_u32* from, 
                                         alt_u32* to, 
                                         alt_u32* end)
{
 1002f5c:	defffc04 	addi	sp,sp,-16
 1002f60:	df000315 	stw	fp,12(sp)
 1002f64:	df000304 	addi	fp,sp,12
 1002f68:	e13fff15 	stw	r4,-4(fp)
 1002f6c:	e17ffe15 	stw	r5,-8(fp)
 1002f70:	e1bffd15 	stw	r6,-12(fp)
  if (to != from)
 1002f74:	e0fffe17 	ldw	r3,-8(fp)
 1002f78:	e0bfff17 	ldw	r2,-4(fp)
 1002f7c:	18800c26 	beq	r3,r2,1002fb0 <alt_load_section+0x54>
  {
    while( to != end )
 1002f80:	00000806 	br	1002fa4 <alt_load_section+0x48>
    {
      *to++ = *from++;
 1002f84:	e0ffff17 	ldw	r3,-4(fp)
 1002f88:	18800104 	addi	r2,r3,4
 1002f8c:	e0bfff15 	stw	r2,-4(fp)
 1002f90:	e0bffe17 	ldw	r2,-8(fp)
 1002f94:	11000104 	addi	r4,r2,4
 1002f98:	e13ffe15 	stw	r4,-8(fp)
 1002f9c:	18c00017 	ldw	r3,0(r3)
 1002fa0:	10c00015 	stw	r3,0(r2)
    while( to != end )
 1002fa4:	e0fffe17 	ldw	r3,-8(fp)
 1002fa8:	e0bffd17 	ldw	r2,-12(fp)
 1002fac:	18bff51e 	bne	r3,r2,1002f84 <alt_load_section+0x28>
    }
  }
}
 1002fb0:	0001883a 	nop
 1002fb4:	e037883a 	mov	sp,fp
 1002fb8:	df000017 	ldw	fp,0(sp)
 1002fbc:	dec00104 	addi	sp,sp,4
 1002fc0:	f800283a 	ret

01002fc4 <alt_load>:
 * there is no bootloader, so this application is responsible for loading to
 * RAM any sections that are required.
 */  

void alt_load (void)
{
 1002fc4:	defffe04 	addi	sp,sp,-8
 1002fc8:	dfc00115 	stw	ra,4(sp)
 1002fcc:	df000015 	stw	fp,0(sp)
 1002fd0:	d839883a 	mov	fp,sp
  /* 
   * Copy the .rwdata section. 
   */

  alt_load_section (&__flash_rwdata_start, 
 1002fd4:	01804074 	movhi	r6,257
 1002fd8:	31b55504 	addi	r6,r6,-10924
 1002fdc:	01404074 	movhi	r5,257
 1002fe0:	29747f04 	addi	r5,r5,-11780
 1002fe4:	01004074 	movhi	r4,257
 1002fe8:	21355504 	addi	r4,r4,-10924
 1002fec:	1002f5c0 	call	1002f5c <alt_load_section>

  /*
   * Copy the exception handler.
   */

  alt_load_section (&__flash_exceptions_start, 
 1002ff0:	01804034 	movhi	r6,256
 1002ff4:	31808904 	addi	r6,r6,548
 1002ff8:	01404034 	movhi	r5,256
 1002ffc:	29400804 	addi	r5,r5,32
 1003000:	01004034 	movhi	r4,256
 1003004:	21000804 	addi	r4,r4,32
 1003008:	1002f5c0 	call	1002f5c <alt_load_section>

  /*
   * Copy the .rodata section.
   */

  alt_load_section (&__flash_rodata_start, 
 100300c:	01804074 	movhi	r6,257
 1003010:	31b47f04 	addi	r6,r6,-11780
 1003014:	01404074 	movhi	r5,257
 1003018:	296b4e04 	addi	r5,r5,-21192
 100301c:	01004074 	movhi	r4,257
 1003020:	212b4e04 	addi	r4,r4,-21192
 1003024:	1002f5c0 	call	1002f5c <alt_load_section>
  
  /*
   * Now ensure that the caches are in synch.
   */
  
  alt_dcache_flush_all();
 1003028:	1002f3c0 	call	1002f3c <alt_dcache_flush_all>
  alt_icache_flush_all();
 100302c:	10099140 	call	1009914 <alt_icache_flush_all>
}
 1003030:	0001883a 	nop
 1003034:	e037883a 	mov	sp,fp
 1003038:	dfc00117 	ldw	ra,4(sp)
 100303c:	df000017 	ldw	fp,0(sp)
 1003040:	dec00204 	addi	sp,sp,8
 1003044:	f800283a 	ret

01003048 <alt_main>:
 * devices/filesystems/components in the system; and call the entry point for
 * the users application, i.e. main().
 */

void alt_main (void)
{
 1003048:	defffd04 	addi	sp,sp,-12
 100304c:	dfc00215 	stw	ra,8(sp)
 1003050:	df000115 	stw	fp,4(sp)
 1003054:	df000104 	addi	fp,sp,4
#endif

  /* ALT LOG - please see HAL/sys/alt_log_printf.h for details */
  ALT_LOG_PRINT_BOOT("[alt_main.c] Entering alt_main, calling alt_irq_init.\r\n");
  /* Initialize the interrupt controller. */
  alt_irq_init (NULL);
 1003058:	0009883a 	mov	r4,zero
 100305c:	10034940 	call	1003494 <alt_irq_init>

  /* Initialize the operating system */
  ALT_LOG_PRINT_BOOT("[alt_main.c] Done alt_irq_init, calling alt_os_init.\r\n");
  ALT_OS_INIT();
 1003060:	0001883a 	nop
  ALT_LOG_PRINT_BOOT("[alt_main.c] Done OS Init, calling alt_sem_create.\r\n");
  ALT_SEM_CREATE (&alt_fd_list_lock, 1);

  /* Initialize the device drivers/software components. */
  ALT_LOG_PRINT_BOOT("[alt_main.c] Calling alt_sys_init.\r\n");
  alt_sys_init();
 1003064:	10034cc0 	call	10034cc <alt_sys_init>
   * devices be present (not equal to /dev/null) and if direct drivers
   * aren't being used.
   */

    ALT_LOG_PRINT_BOOT("[alt_main.c] Redirecting IO.\r\n");
    alt_io_redirect(ALT_STDOUT, ALT_STDIN, ALT_STDERR);
 1003068:	01804074 	movhi	r6,257
 100306c:	31ad6504 	addi	r6,r6,-19052
 1003070:	01404074 	movhi	r5,257
 1003074:	296d6504 	addi	r5,r5,-19052
 1003078:	01004074 	movhi	r4,257
 100307c:	212d6504 	addi	r4,r4,-19052
 1003080:	1009c9c0 	call	1009c9c <alt_io_redirect>
  /* 
   * Call the C++ constructors 
   */

  ALT_LOG_PRINT_BOOT("[alt_main.c] Calling C++ constructors.\r\n");
  _do_ctors ();
 1003084:	10097c40 	call	10097c4 <_do_ctors>
   * redefined as _exit()). This is in the interest of reducing code footprint,
   * in that the atexit() overhead is removed when it's not needed.
   */

  ALT_LOG_PRINT_BOOT("[alt_main.c] Calling atexit.\r\n");
  atexit (_do_dtors);
 1003088:	01004074 	movhi	r4,257
 100308c:	21260904 	addi	r4,r4,-26588
 1003090:	100a5a80 	call	100a5a8 <atexit>
  ALT_LOG_PRINT_BOOT("[alt_main.c] Calling main.\r\n");

#ifdef ALT_NO_EXIT
  main (alt_argc, alt_argv, alt_envp);
#else
  result = main (alt_argc, alt_argv, alt_envp);
 1003094:	d0a0ef17 	ldw	r2,-31812(gp)
 1003098:	d0e0f017 	ldw	r3,-31808(gp)
 100309c:	d120f117 	ldw	r4,-31804(gp)
 10030a0:	200d883a 	mov	r6,r4
 10030a4:	180b883a 	mov	r5,r3
 10030a8:	1009883a 	mov	r4,r2
 10030ac:	100030c0 	call	100030c <main>
 10030b0:	e0bfff15 	stw	r2,-4(fp)
  close(STDOUT_FILENO);
 10030b4:	01000044 	movi	r4,1
 10030b8:	10095b40 	call	10095b4 <close>
  exit (result);
 10030bc:	e13fff17 	ldw	r4,-4(fp)
 10030c0:	100a5bc0 	call	100a5bc <exit>

010030c4 <alt_printf>:
/* 
 * ALT printf function 
 */
void 
alt_printf(const char* fmt, ... )
{
 10030c4:	defff204 	addi	sp,sp,-56
 10030c8:	dfc00a15 	stw	ra,40(sp)
 10030cc:	df000915 	stw	fp,36(sp)
 10030d0:	df000904 	addi	fp,sp,36
 10030d4:	e13ff715 	stw	r4,-36(fp)
 10030d8:	e1400215 	stw	r5,8(fp)
 10030dc:	e1800315 	stw	r6,12(fp)
 10030e0:	e1c00415 	stw	r7,16(fp)
	va_list args;
	va_start(args, fmt);
 10030e4:	e0800204 	addi	r2,fp,8
 10030e8:	e0bff815 	stw	r2,-32(fp)
    const char *w;
    char c;

    /* Process format string. */
    w = fmt;
 10030ec:	e0bff717 	ldw	r2,-36(fp)
 10030f0:	e0bfff15 	stw	r2,-4(fp)
    while ((c = *w++) != 0)
 10030f4:	00006f06 	br	10032b4 <alt_printf+0x1f0>
    {
        /* If not a format escape character, just print  */
        /* character.  Otherwise, process format string. */
        if (c != '%')
 10030f8:	e0bffec7 	ldb	r2,-5(fp)
 10030fc:	10800960 	cmpeqi	r2,r2,37
 1003100:	1000041e 	bne	r2,zero,1003114 <alt_printf+0x50>
        {
            alt_putchar(c);
 1003104:	e0bffec7 	ldb	r2,-5(fp)
 1003108:	1009883a 	mov	r4,r2
 100310c:	10032f00 	call	10032f0 <alt_putchar>
 1003110:	00006806 	br	10032b4 <alt_printf+0x1f0>
        }
        else
        {
            /* Get format character.  If none     */
            /* available, processing is complete. */
            if ((c = *w++) != 0)
 1003114:	e0bfff17 	ldw	r2,-4(fp)
 1003118:	10c00044 	addi	r3,r2,1
 100311c:	e0ffff15 	stw	r3,-4(fp)
 1003120:	10800003 	ldbu	r2,0(r2)
 1003124:	e0bffec5 	stb	r2,-5(fp)
 1003128:	e0bffec7 	ldb	r2,-5(fp)
 100312c:	10006926 	beq	r2,zero,10032d4 <alt_printf+0x210>
            {
                if (c == '%')
 1003130:	e0bffec7 	ldb	r2,-5(fp)
 1003134:	10800958 	cmpnei	r2,r2,37
 1003138:	1000041e 	bne	r2,zero,100314c <alt_printf+0x88>
                {
                    /* Process "%" escape sequence. */
                    alt_putchar(c);
 100313c:	e0bffec7 	ldb	r2,-5(fp)
 1003140:	1009883a 	mov	r4,r2
 1003144:	10032f00 	call	10032f0 <alt_putchar>
 1003148:	00005a06 	br	10032b4 <alt_printf+0x1f0>
                } 
                else if (c == 'c')
 100314c:	e0bffec7 	ldb	r2,-5(fp)
 1003150:	108018d8 	cmpnei	r2,r2,99
 1003154:	1000081e 	bne	r2,zero,1003178 <alt_printf+0xb4>
                {
                    int v = va_arg(args, int);
 1003158:	e0bff817 	ldw	r2,-32(fp)
 100315c:	10c00104 	addi	r3,r2,4
 1003160:	e0fff815 	stw	r3,-32(fp)
 1003164:	10800017 	ldw	r2,0(r2)
 1003168:	e0bffb15 	stw	r2,-20(fp)
                    alt_putchar(v);
 100316c:	e13ffb17 	ldw	r4,-20(fp)
 1003170:	10032f00 	call	10032f0 <alt_putchar>
 1003174:	00004f06 	br	10032b4 <alt_printf+0x1f0>
                }
                else if (c == 'x')
 1003178:	e0bffec7 	ldb	r2,-5(fp)
 100317c:	10801e18 	cmpnei	r2,r2,120
 1003180:	1000341e 	bne	r2,zero,1003254 <alt_printf+0x190>
                {
                    /* Process hexadecimal number format. */
                    unsigned long v = va_arg(args, unsigned long);
 1003184:	e0bff817 	ldw	r2,-32(fp)
 1003188:	10c00104 	addi	r3,r2,4
 100318c:	e0fff815 	stw	r3,-32(fp)
 1003190:	10800017 	ldw	r2,0(r2)
 1003194:	e0bffa15 	stw	r2,-24(fp)
                    unsigned long digit;
                    int digit_shift;

                    /* If the number value is zero, just print and continue. */
                    if (v == 0)
 1003198:	e0bffa17 	ldw	r2,-24(fp)
 100319c:	1000031e 	bne	r2,zero,10031ac <alt_printf+0xe8>
                    {
                        alt_putchar('0');
 10031a0:	01000c04 	movi	r4,48
 10031a4:	10032f00 	call	10032f0 <alt_putchar>
                        continue;
 10031a8:	00004206 	br	10032b4 <alt_printf+0x1f0>
                    }

                    /* Find first non-zero digit. */
                    digit_shift = 28;
 10031ac:	00800704 	movi	r2,28
 10031b0:	e0bffd15 	stw	r2,-12(fp)
                    while (!(v & (0xF << digit_shift)))
 10031b4:	00000306 	br	10031c4 <alt_printf+0x100>
                        digit_shift -= 4;
 10031b8:	e0bffd17 	ldw	r2,-12(fp)
 10031bc:	10bfff04 	addi	r2,r2,-4
 10031c0:	e0bffd15 	stw	r2,-12(fp)
                    while (!(v & (0xF << digit_shift)))
 10031c4:	00c003c4 	movi	r3,15
 10031c8:	e0bffd17 	ldw	r2,-12(fp)
 10031cc:	1884983a 	sll	r2,r3,r2
 10031d0:	1007883a 	mov	r3,r2
 10031d4:	e0bffa17 	ldw	r2,-24(fp)
 10031d8:	1884703a 	and	r2,r3,r2
 10031dc:	103ff626 	beq	r2,zero,10031b8 <alt_printf+0xf4>

                    /* Print digits. */
                    for (; digit_shift >= 0; digit_shift -= 4)
 10031e0:	00001906 	br	1003248 <alt_printf+0x184>
                    {
                        digit = (v & (0xF << digit_shift)) >> digit_shift;
 10031e4:	00c003c4 	movi	r3,15
 10031e8:	e0bffd17 	ldw	r2,-12(fp)
 10031ec:	1884983a 	sll	r2,r3,r2
 10031f0:	1007883a 	mov	r3,r2
 10031f4:	e0bffa17 	ldw	r2,-24(fp)
 10031f8:	1886703a 	and	r3,r3,r2
 10031fc:	e0bffd17 	ldw	r2,-12(fp)
 1003200:	1884d83a 	srl	r2,r3,r2
 1003204:	e0bff915 	stw	r2,-28(fp)
                        if (digit <= 9)
 1003208:	e0bff917 	ldw	r2,-28(fp)
 100320c:	108002a8 	cmpgeui	r2,r2,10
 1003210:	1000041e 	bne	r2,zero,1003224 <alt_printf+0x160>
                            c = '0' + digit;
 1003214:	e0bff917 	ldw	r2,-28(fp)
 1003218:	10800c04 	addi	r2,r2,48
 100321c:	e0bffec5 	stb	r2,-5(fp)
 1003220:	00000306 	br	1003230 <alt_printf+0x16c>
                        else
                            c = 'a' + digit - 10;
 1003224:	e0bff917 	ldw	r2,-28(fp)
 1003228:	108015c4 	addi	r2,r2,87
 100322c:	e0bffec5 	stb	r2,-5(fp)
                        alt_putchar(c);
 1003230:	e0bffec7 	ldb	r2,-5(fp)
 1003234:	1009883a 	mov	r4,r2
 1003238:	10032f00 	call	10032f0 <alt_putchar>
                    for (; digit_shift >= 0; digit_shift -= 4)
 100323c:	e0bffd17 	ldw	r2,-12(fp)
 1003240:	10bfff04 	addi	r2,r2,-4
 1003244:	e0bffd15 	stw	r2,-12(fp)
 1003248:	e0bffd17 	ldw	r2,-12(fp)
 100324c:	103fe50e 	bge	r2,zero,10031e4 <alt_printf+0x120>
 1003250:	00001806 	br	10032b4 <alt_printf+0x1f0>
                    }
                }
                else if (c == 's')
 1003254:	e0bffec7 	ldb	r2,-5(fp)
 1003258:	10801cd8 	cmpnei	r2,r2,115
 100325c:	1000151e 	bne	r2,zero,10032b4 <alt_printf+0x1f0>
                {
                    /* Process string format. */
                    char *s = va_arg(args, char *);
 1003260:	e0bff817 	ldw	r2,-32(fp)
 1003264:	10c00104 	addi	r3,r2,4
 1003268:	e0fff815 	stw	r3,-32(fp)
 100326c:	10800017 	ldw	r2,0(r2)
 1003270:	e0bffc15 	stw	r2,-16(fp)

                    while(*s)
 1003274:	00000906 	br	100329c <alt_printf+0x1d8>
                      alt_putchar(*s++);
 1003278:	e0bffc17 	ldw	r2,-16(fp)
 100327c:	10c00044 	addi	r3,r2,1
 1003280:	e0fffc15 	stw	r3,-16(fp)
 1003284:	10800003 	ldbu	r2,0(r2)
 1003288:	10803fcc 	andi	r2,r2,255
 100328c:	1080201c 	xori	r2,r2,128
 1003290:	10bfe004 	addi	r2,r2,-128
 1003294:	1009883a 	mov	r4,r2
 1003298:	10032f00 	call	10032f0 <alt_putchar>
                    while(*s)
 100329c:	e0bffc17 	ldw	r2,-16(fp)
 10032a0:	10800003 	ldbu	r2,0(r2)
 10032a4:	10803fcc 	andi	r2,r2,255
 10032a8:	1080201c 	xori	r2,r2,128
 10032ac:	10bfe004 	addi	r2,r2,-128
 10032b0:	103ff11e 	bne	r2,zero,1003278 <alt_printf+0x1b4>
    while ((c = *w++) != 0)
 10032b4:	e0bfff17 	ldw	r2,-4(fp)
 10032b8:	10c00044 	addi	r3,r2,1
 10032bc:	e0ffff15 	stw	r3,-4(fp)
 10032c0:	10800003 	ldbu	r2,0(r2)
 10032c4:	e0bffec5 	stb	r2,-5(fp)
 10032c8:	e0bffec7 	ldb	r2,-5(fp)
 10032cc:	103f8a1e 	bne	r2,zero,10030f8 <alt_printf+0x34>
        }
    }
#ifdef ALT_SEMIHOSTING
    alt_putbufflush();
#endif
}
 10032d0:	00000106 	br	10032d8 <alt_printf+0x214>
                break;
 10032d4:	0001883a 	nop
}
 10032d8:	0001883a 	nop
 10032dc:	e037883a 	mov	sp,fp
 10032e0:	dfc00117 	ldw	ra,4(sp)
 10032e4:	df000017 	ldw	fp,0(sp)
 10032e8:	dec00504 	addi	sp,sp,20
 10032ec:	f800283a 	ret

010032f0 <alt_putchar>:
 * Uses the ALT_DRIVER_WRITE() macro to call directly to driver if available.
 * Otherwise, uses newlib provided putchar() routine.
 */
int 
alt_putchar(int c)
{
 10032f0:	defffd04 	addi	sp,sp,-12
 10032f4:	dfc00215 	stw	ra,8(sp)
 10032f8:	df000115 	stw	fp,4(sp)
 10032fc:	df000104 	addi	fp,sp,4
 1003300:	e13fff15 	stw	r4,-4(fp)
    if (ALT_DRIVER_WRITE(ALT_STDOUT_DEV, &c1, 1, 0) == -1) {
        return -1;
    }
    return c;
#else
    return putchar(c);
 1003304:	e13fff17 	ldw	r4,-4(fp)
 1003308:	100a8a00 	call	100a8a0 <putchar>
#endif
#endif
}
 100330c:	e037883a 	mov	sp,fp
 1003310:	dfc00117 	ldw	ra,4(sp)
 1003314:	df000017 	ldw	fp,0(sp)
 1003318:	dec00204 	addi	sp,sp,8
 100331c:	f800283a 	ret

01003320 <alt_get_errno>:
#undef errno

extern int errno;

static ALT_INLINE int* alt_get_errno(void)
{
 1003320:	defffe04 	addi	sp,sp,-8
 1003324:	dfc00115 	stw	ra,4(sp)
 1003328:	df000015 	stw	fp,0(sp)
 100332c:	d839883a 	mov	fp,sp
  return ((alt_errno) ? alt_errno() : &errno);
 1003330:	d0a00b17 	ldw	r2,-32724(gp)
 1003334:	10000326 	beq	r2,zero,1003344 <alt_get_errno+0x24>
 1003338:	d0a00b17 	ldw	r2,-32724(gp)
 100333c:	103ee83a 	callr	r2
 1003340:	00000106 	br	1003348 <alt_get_errno+0x28>
 1003344:	d0a0ee04 	addi	r2,gp,-31816
}
 1003348:	e037883a 	mov	sp,fp
 100334c:	dfc00117 	ldw	ra,4(sp)
 1003350:	df000017 	ldw	fp,0(sp)
 1003354:	dec00204 	addi	sp,sp,8
 1003358:	f800283a 	ret

0100335c <write>:
}

#else /* !ALT_USE_DIRECT_DRIVERS */

int ALT_WRITE (int file, const void *ptr, size_t len)
{
 100335c:	defff904 	addi	sp,sp,-28
 1003360:	dfc00615 	stw	ra,24(sp)
 1003364:	df000515 	stw	fp,20(sp)
 1003368:	df000504 	addi	fp,sp,20
 100336c:	e13ffd15 	stw	r4,-12(fp)
 1003370:	e17ffc15 	stw	r5,-16(fp)
 1003374:	e1bffb15 	stw	r6,-20(fp)
   * A common error case is that when the file descriptor was created, the call
   * to open() failed resulting in a negative file descriptor. This is trapped
   * below so that we don't try and process an invalid file descriptor.
   */

  fd = (file < 0) ? NULL : &alt_fd_list[file];
 1003378:	e0bffd17 	ldw	r2,-12(fp)
 100337c:	10000916 	blt	r2,zero,10033a4 <write+0x48>
 1003380:	e0fffd17 	ldw	r3,-12(fp)
 1003384:	1805883a 	mov	r2,r3
 1003388:	1085883a 	add	r2,r2,r2
 100338c:	10c5883a 	add	r2,r2,r3
 1003390:	100490ba 	slli	r2,r2,2
 1003394:	00c04074 	movhi	r3,257
 1003398:	18f4e504 	addi	r3,r3,-11372
 100339c:	10c5883a 	add	r2,r2,r3
 10033a0:	00000106 	br	10033a8 <write+0x4c>
 10033a4:	0005883a 	mov	r2,zero
 10033a8:	e0bfff15 	stw	r2,-4(fp)
  
  if (fd)
 10033ac:	e0bfff17 	ldw	r2,-4(fp)
 10033b0:	10002126 	beq	r2,zero,1003438 <write+0xdc>
     * If the file has not been opened with write access, or if the driver does
     * not provide an implementation of write(), generate an error. Otherwise
     * call the drivers write() function to process the request.
     */

    if (((fd->fd_flags & O_ACCMODE) != O_RDONLY) && fd->dev->write)
 10033b4:	e0bfff17 	ldw	r2,-4(fp)
 10033b8:	10800217 	ldw	r2,8(r2)
 10033bc:	108000cc 	andi	r2,r2,3
 10033c0:	10001826 	beq	r2,zero,1003424 <write+0xc8>
 10033c4:	e0bfff17 	ldw	r2,-4(fp)
 10033c8:	10800017 	ldw	r2,0(r2)
 10033cc:	10800617 	ldw	r2,24(r2)
 10033d0:	10001426 	beq	r2,zero,1003424 <write+0xc8>
    {
      
      /* ALT_LOG - see altera_hal/HAL/inc/sys/alt_log_printf.h */
      ALT_LOG_WRITE_FUNCTION(ptr,len);

      if ((rval = fd->dev->write(fd, ptr, len)) < 0)
 10033d4:	e0bfff17 	ldw	r2,-4(fp)
 10033d8:	10800017 	ldw	r2,0(r2)
 10033dc:	10800617 	ldw	r2,24(r2)
 10033e0:	e0fffb17 	ldw	r3,-20(fp)
 10033e4:	180d883a 	mov	r6,r3
 10033e8:	e17ffc17 	ldw	r5,-16(fp)
 10033ec:	e13fff17 	ldw	r4,-4(fp)
 10033f0:	103ee83a 	callr	r2
 10033f4:	e0bffe15 	stw	r2,-8(fp)
 10033f8:	e0bffe17 	ldw	r2,-8(fp)
 10033fc:	1000070e 	bge	r2,zero,100341c <write+0xc0>
      {
        ALT_ERRNO = -rval;
 1003400:	10033200 	call	1003320 <alt_get_errno>
 1003404:	1007883a 	mov	r3,r2
 1003408:	e0bffe17 	ldw	r2,-8(fp)
 100340c:	0085c83a 	sub	r2,zero,r2
 1003410:	18800015 	stw	r2,0(r3)
        return -1;
 1003414:	00bfffc4 	movi	r2,-1
 1003418:	00000c06 	br	100344c <write+0xf0>
      }
      return rval;
 100341c:	e0bffe17 	ldw	r2,-8(fp)
 1003420:	00000a06 	br	100344c <write+0xf0>
    }
    else
    {
      ALT_ERRNO = EACCES;
 1003424:	10033200 	call	1003320 <alt_get_errno>
 1003428:	1007883a 	mov	r3,r2
 100342c:	00800344 	movi	r2,13
 1003430:	18800015 	stw	r2,0(r3)
 1003434:	00000406 	br	1003448 <write+0xec>
    }
  }
  else  
  {
    ALT_ERRNO = EBADFD;
 1003438:	10033200 	call	1003320 <alt_get_errno>
 100343c:	1007883a 	mov	r3,r2
 1003440:	00801444 	movi	r2,81
 1003444:	18800015 	stw	r2,0(r3)
  }
  return -1;
 1003448:	00bfffc4 	movi	r2,-1
}
 100344c:	e037883a 	mov	sp,fp
 1003450:	dfc00117 	ldw	ra,4(sp)
 1003454:	df000017 	ldw	fp,0(sp)
 1003458:	dec00204 	addi	sp,sp,8
 100345c:	f800283a 	ret

01003460 <alt_dev_reg>:
 */

extern int alt_fs_reg  (alt_dev* dev); 

static ALT_INLINE int alt_dev_reg (alt_dev* dev)
{
 1003460:	defffd04 	addi	sp,sp,-12
 1003464:	dfc00215 	stw	ra,8(sp)
 1003468:	df000115 	stw	fp,4(sp)
 100346c:	df000104 	addi	fp,sp,4
 1003470:	e13fff15 	stw	r4,-4(fp)
  extern alt_llist alt_dev_list;

  return alt_dev_llist_insert ((alt_dev_llist*) dev, &alt_dev_list);
 1003474:	d1600804 	addi	r5,gp,-32736
 1003478:	e13fff17 	ldw	r4,-4(fp)
 100347c:	10097200 	call	1009720 <alt_dev_llist_insert>
}
 1003480:	e037883a 	mov	sp,fp
 1003484:	dfc00117 	ldw	ra,4(sp)
 1003488:	df000017 	ldw	fp,0(sp)
 100348c:	dec00204 	addi	sp,sp,8
 1003490:	f800283a 	ret

01003494 <alt_irq_init>:
 * The "base" parameter is ignored and only
 * present for backwards-compatibility.
 */

void alt_irq_init ( const void* base )
{
 1003494:	defffd04 	addi	sp,sp,-12
 1003498:	dfc00215 	stw	ra,8(sp)
 100349c:	df000115 	stw	fp,4(sp)
 10034a0:	df000104 	addi	fp,sp,4
 10034a4:	e13fff15 	stw	r4,-4(fp)
    ALTERA_NIOS2_GEN2_IRQ_INIT ( NIOS2, nios2);
 10034a8:	100a1d40 	call	100a1d4 <altera_nios2_gen2_irq_init>
    NIOS2_WRITE_STATUS(NIOS2_STATUS_PIE_MSK
 10034ac:	00800044 	movi	r2,1
 10034b0:	1001703a 	wrctl	status,r2
    alt_irq_cpu_enable_interrupts();
}
 10034b4:	0001883a 	nop
 10034b8:	e037883a 	mov	sp,fp
 10034bc:	dfc00117 	ldw	ra,4(sp)
 10034c0:	df000017 	ldw	fp,0(sp)
 10034c4:	dec00204 	addi	sp,sp,8
 10034c8:	f800283a 	ret

010034cc <alt_sys_init>:
 * Initialize the non-interrupt controller devices.
 * Called after alt_irq_init().
 */

void alt_sys_init( void )
{
 10034cc:	defffe04 	addi	sp,sp,-8
 10034d0:	dfc00115 	stw	ra,4(sp)
 10034d4:	df000015 	stw	fp,0(sp)
 10034d8:	d839883a 	mov	fp,sp
    ALTERA_AVALON_TIMER_INIT ( TIMER_0, timer_0);
 10034dc:	01e08d94 	movui	r7,33334
 10034e0:	01800044 	movi	r6,1
 10034e4:	000b883a 	mov	r5,zero
 10034e8:	01008034 	movhi	r4,512
 10034ec:	210d2004 	addi	r4,r4,13440
 10034f0:	10045900 	call	1004590 <alt_avalon_timer_sc_init>
    ALTERA_AVALON_JTAG_UART_INIT ( JTAG_UART, jtag_uart);
 10034f4:	01004074 	movhi	r4,257
 10034f8:	2134b804 	addi	r4,r4,-11552
 10034fc:	10034600 	call	1003460 <alt_dev_reg>
    ALTERA_AVALON_SGDMA_INIT ( SGDMA_RX, sgdma_rx);
 1003500:	01800084 	movi	r6,2
 1003504:	000b883a 	mov	r5,zero
 1003508:	01004074 	movhi	r4,257
 100350c:	2134c304 	addi	r4,r4,-11508
 1003510:	10044700 	call	1004470 <alt_avalon_sgdma_init>
    ALTERA_AVALON_SGDMA_INIT ( SGDMA_TX, sgdma_tx);
 1003514:	018000c4 	movi	r6,3
 1003518:	000b883a 	mov	r5,zero
 100351c:	01004074 	movhi	r4,257
 1003520:	2134cf04 	addi	r4,r4,-11460
 1003524:	10044700 	call	1004470 <alt_avalon_sgdma_init>
    ALTERA_ETH_TSE_INIT ( TSE, tse);
 1003528:	0001883a 	nop
}
 100352c:	0001883a 	nop
 1003530:	e037883a 	mov	sp,fp
 1003534:	dfc00117 	ldw	ra,4(sp)
 1003538:	df000017 	ldw	fp,0(sp)
 100353c:	dec00204 	addi	sp,sp,8
 1003540:	f800283a 	ret

01003544 <altera_avalon_jtag_uart_read_fd>:
 *
 */

int 
altera_avalon_jtag_uart_read_fd(alt_fd* fd, char* buffer, int space)
{
 1003544:	defffa04 	addi	sp,sp,-24
 1003548:	dfc00515 	stw	ra,20(sp)
 100354c:	df000415 	stw	fp,16(sp)
 1003550:	df000404 	addi	fp,sp,16
 1003554:	e13ffe15 	stw	r4,-8(fp)
 1003558:	e17ffd15 	stw	r5,-12(fp)
 100355c:	e1bffc15 	stw	r6,-16(fp)
    altera_avalon_jtag_uart_dev* dev = (altera_avalon_jtag_uart_dev*) fd->dev; 
 1003560:	e0bffe17 	ldw	r2,-8(fp)
 1003564:	10800017 	ldw	r2,0(r2)
 1003568:	e0bfff15 	stw	r2,-4(fp)

    return altera_avalon_jtag_uart_read(&dev->state, buffer, space,
 100356c:	e0bfff17 	ldw	r2,-4(fp)
 1003570:	10c00a04 	addi	r3,r2,40
 1003574:	e0bffe17 	ldw	r2,-8(fp)
 1003578:	10800217 	ldw	r2,8(r2)
 100357c:	100f883a 	mov	r7,r2
 1003580:	e1bffc17 	ldw	r6,-16(fp)
 1003584:	e17ffd17 	ldw	r5,-12(fp)
 1003588:	1809883a 	mov	r4,r3
 100358c:	10036040 	call	1003604 <altera_avalon_jtag_uart_read>
      fd->fd_flags);
}
 1003590:	e037883a 	mov	sp,fp
 1003594:	dfc00117 	ldw	ra,4(sp)
 1003598:	df000017 	ldw	fp,0(sp)
 100359c:	dec00204 	addi	sp,sp,8
 10035a0:	f800283a 	ret

010035a4 <altera_avalon_jtag_uart_write_fd>:

int 
altera_avalon_jtag_uart_write_fd(alt_fd* fd, const char* buffer, int space)
{
 10035a4:	defffa04 	addi	sp,sp,-24
 10035a8:	dfc00515 	stw	ra,20(sp)
 10035ac:	df000415 	stw	fp,16(sp)
 10035b0:	df000404 	addi	fp,sp,16
 10035b4:	e13ffe15 	stw	r4,-8(fp)
 10035b8:	e17ffd15 	stw	r5,-12(fp)
 10035bc:	e1bffc15 	stw	r6,-16(fp)
    altera_avalon_jtag_uart_dev* dev = (altera_avalon_jtag_uart_dev*) fd->dev; 
 10035c0:	e0bffe17 	ldw	r2,-8(fp)
 10035c4:	10800017 	ldw	r2,0(r2)
 10035c8:	e0bfff15 	stw	r2,-4(fp)

    return altera_avalon_jtag_uart_write(&dev->state, buffer, space,
 10035cc:	e0bfff17 	ldw	r2,-4(fp)
 10035d0:	10c00a04 	addi	r3,r2,40
 10035d4:	e0bffe17 	ldw	r2,-8(fp)
 10035d8:	10800217 	ldw	r2,8(r2)
 10035dc:	100f883a 	mov	r7,r2
 10035e0:	e1bffc17 	ldw	r6,-16(fp)
 10035e4:	e17ffd17 	ldw	r5,-12(fp)
 10035e8:	1809883a 	mov	r4,r3
 10035ec:	10036f00 	call	10036f0 <altera_avalon_jtag_uart_write>
      fd->fd_flags);
}
 10035f0:	e037883a 	mov	sp,fp
 10035f4:	dfc00117 	ldw	ra,4(sp)
 10035f8:	df000017 	ldw	fp,0(sp)
 10035fc:	dec00204 	addi	sp,sp,8
 1003600:	f800283a 	ret

01003604 <altera_avalon_jtag_uart_read>:
 */

int 
altera_avalon_jtag_uart_read(altera_avalon_jtag_uart_state* sp, 
  char* buffer, int space, int flags)
{
 1003604:	defff704 	addi	sp,sp,-36
 1003608:	df000815 	stw	fp,32(sp)
 100360c:	df000804 	addi	fp,sp,32
 1003610:	e13ffb15 	stw	r4,-20(fp)
 1003614:	e17ffa15 	stw	r5,-24(fp)
 1003618:	e1bff915 	stw	r6,-28(fp)
 100361c:	e1fff815 	stw	r7,-32(fp)
  unsigned int base = sp->base;
 1003620:	e0bffb17 	ldw	r2,-20(fp)
 1003624:	10800017 	ldw	r2,0(r2)
 1003628:	e0bffe15 	stw	r2,-8(fp)

  char * ptr = buffer;
 100362c:	e0bffa17 	ldw	r2,-24(fp)
 1003630:	e0bfff15 	stw	r2,-4(fp)
  char * end = buffer + space;
 1003634:	e0bff917 	ldw	r2,-28(fp)
 1003638:	e0fffa17 	ldw	r3,-24(fp)
 100363c:	1885883a 	add	r2,r3,r2
 1003640:	e0bffd15 	stw	r2,-12(fp)

  while (ptr < end)
 1003644:	00001206 	br	1003690 <altera_avalon_jtag_uart_read+0x8c>
  {
    unsigned int data = IORD_ALTERA_AVALON_JTAG_UART_DATA(base);
 1003648:	e0bffe17 	ldw	r2,-8(fp)
 100364c:	10800037 	ldwio	r2,0(r2)
 1003650:	e0bffc15 	stw	r2,-16(fp)

    if (data & ALTERA_AVALON_JTAG_UART_DATA_RVALID_MSK)
 1003654:	e0bffc17 	ldw	r2,-16(fp)
 1003658:	10a0000c 	andi	r2,r2,32768
 100365c:	10000626 	beq	r2,zero,1003678 <altera_avalon_jtag_uart_read+0x74>
      *ptr++ = (data & ALTERA_AVALON_JTAG_UART_DATA_DATA_MSK) >> ALTERA_AVALON_JTAG_UART_DATA_DATA_OFST;
 1003660:	e0bfff17 	ldw	r2,-4(fp)
 1003664:	10c00044 	addi	r3,r2,1
 1003668:	e0ffff15 	stw	r3,-4(fp)
 100366c:	e0fffc17 	ldw	r3,-16(fp)
 1003670:	10c00005 	stb	r3,0(r2)
 1003674:	00000606 	br	1003690 <altera_avalon_jtag_uart_read+0x8c>
    else if (ptr != buffer)
 1003678:	e0ffff17 	ldw	r3,-4(fp)
 100367c:	e0bffa17 	ldw	r2,-24(fp)
 1003680:	1880071e 	bne	r3,r2,10036a0 <altera_avalon_jtag_uart_read+0x9c>
      break;
    else if(flags & O_NONBLOCK)
 1003684:	e0bff817 	ldw	r2,-32(fp)
 1003688:	1090000c 	andi	r2,r2,16384
 100368c:	1000061e 	bne	r2,zero,10036a8 <altera_avalon_jtag_uart_read+0xa4>
  while (ptr < end)
 1003690:	e0ffff17 	ldw	r3,-4(fp)
 1003694:	e0bffd17 	ldw	r2,-12(fp)
 1003698:	18bfeb36 	bltu	r3,r2,1003648 <altera_avalon_jtag_uart_read+0x44>
 100369c:	00000306 	br	10036ac <altera_avalon_jtag_uart_read+0xa8>
      break;
 10036a0:	0001883a 	nop
 10036a4:	00000106 	br	10036ac <altera_avalon_jtag_uart_read+0xa8>
      break;   
 10036a8:	0001883a 	nop
    
  }

  if (ptr != buffer)
 10036ac:	e0ffff17 	ldw	r3,-4(fp)
 10036b0:	e0bffa17 	ldw	r2,-24(fp)
 10036b4:	18800426 	beq	r3,r2,10036c8 <altera_avalon_jtag_uart_read+0xc4>
    return ptr - buffer;
 10036b8:	e0ffff17 	ldw	r3,-4(fp)
 10036bc:	e0bffa17 	ldw	r2,-24(fp)
 10036c0:	1885c83a 	sub	r2,r3,r2
 10036c4:	00000606 	br	10036e0 <altera_avalon_jtag_uart_read+0xdc>
  else if (flags & O_NONBLOCK)
 10036c8:	e0bff817 	ldw	r2,-32(fp)
 10036cc:	1090000c 	andi	r2,r2,16384
 10036d0:	10000226 	beq	r2,zero,10036dc <altera_avalon_jtag_uart_read+0xd8>
    return -EWOULDBLOCK;
 10036d4:	00bffd44 	movi	r2,-11
 10036d8:	00000106 	br	10036e0 <altera_avalon_jtag_uart_read+0xdc>
  else
    return -EIO;
 10036dc:	00bffec4 	movi	r2,-5
}
 10036e0:	e037883a 	mov	sp,fp
 10036e4:	df000017 	ldw	fp,0(sp)
 10036e8:	dec00104 	addi	sp,sp,4
 10036ec:	f800283a 	ret

010036f0 <altera_avalon_jtag_uart_write>:
 * one FIFOs worth of data.  But you said you didn't want to use interrupts :-)
 */

int altera_avalon_jtag_uart_write(altera_avalon_jtag_uart_state* sp, 
  const char * ptr, int count, int flags)
{
 10036f0:	defff904 	addi	sp,sp,-28
 10036f4:	df000615 	stw	fp,24(sp)
 10036f8:	df000604 	addi	fp,sp,24
 10036fc:	e13ffd15 	stw	r4,-12(fp)
 1003700:	e17ffc15 	stw	r5,-16(fp)
 1003704:	e1bffb15 	stw	r6,-20(fp)
 1003708:	e1fffa15 	stw	r7,-24(fp)
  unsigned int base = sp->base;
 100370c:	e0bffd17 	ldw	r2,-12(fp)
 1003710:	10800017 	ldw	r2,0(r2)
 1003714:	e0bfff15 	stw	r2,-4(fp)

  const char * end = ptr + count;
 1003718:	e0bffb17 	ldw	r2,-20(fp)
 100371c:	e0fffc17 	ldw	r3,-16(fp)
 1003720:	1885883a 	add	r2,r3,r2
 1003724:	e0bffe15 	stw	r2,-8(fp)

  while (ptr < end)
 1003728:	00000e06 	br	1003764 <altera_avalon_jtag_uart_write+0x74>
    if ((IORD_ALTERA_AVALON_JTAG_UART_CONTROL(base) & ALTERA_AVALON_JTAG_UART_CONTROL_WSPACE_MSK) != 0)
 100372c:	e0bfff17 	ldw	r2,-4(fp)
 1003730:	10800104 	addi	r2,r2,4
 1003734:	10800037 	ldwio	r2,0(r2)
 1003738:	10bfffec 	andhi	r2,r2,65535
 100373c:	10000926 	beq	r2,zero,1003764 <altera_avalon_jtag_uart_write+0x74>
      IOWR_ALTERA_AVALON_JTAG_UART_DATA(base, *ptr++);
 1003740:	e0ffff17 	ldw	r3,-4(fp)
 1003744:	e0bffc17 	ldw	r2,-16(fp)
 1003748:	11000044 	addi	r4,r2,1
 100374c:	e13ffc15 	stw	r4,-16(fp)
 1003750:	10800003 	ldbu	r2,0(r2)
 1003754:	10803fcc 	andi	r2,r2,255
 1003758:	1080201c 	xori	r2,r2,128
 100375c:	10bfe004 	addi	r2,r2,-128
 1003760:	18800035 	stwio	r2,0(r3)
  while (ptr < end)
 1003764:	e0fffc17 	ldw	r3,-16(fp)
 1003768:	e0bffe17 	ldw	r2,-8(fp)
 100376c:	18bfef36 	bltu	r3,r2,100372c <altera_avalon_jtag_uart_write+0x3c>

  return count;
 1003770:	e0bffb17 	ldw	r2,-20(fp)
}
 1003774:	e037883a 	mov	sp,fp
 1003778:	df000017 	ldw	fp,0(sp)
 100377c:	dec00104 	addi	sp,sp,4
 1003780:	f800283a 	ret

01003784 <alt_get_errno>:
{
 1003784:	defffe04 	addi	sp,sp,-8
 1003788:	dfc00115 	stw	ra,4(sp)
 100378c:	df000015 	stw	fp,0(sp)
 1003790:	d839883a 	mov	fp,sp
  return ((alt_errno) ? alt_errno() : &errno);
 1003794:	d0a00b17 	ldw	r2,-32724(gp)
 1003798:	10000326 	beq	r2,zero,10037a8 <alt_get_errno+0x24>
 100379c:	d0a00b17 	ldw	r2,-32724(gp)
 10037a0:	103ee83a 	callr	r2
 10037a4:	00000106 	br	10037ac <alt_get_errno+0x28>
 10037a8:	d0a0ee04 	addi	r2,gp,-31816
}
 10037ac:	e037883a 	mov	sp,fp
 10037b0:	dfc00117 	ldw	ra,4(sp)
 10037b4:	df000017 	ldw	fp,0(sp)
 10037b8:	dec00204 	addi	sp,sp,8
 10037bc:	f800283a 	ret

010037c0 <alt_avalon_sgdma_do_async_transfer>:
 * - 0 for success, or various errors defined in <errno.h>
 */
int alt_avalon_sgdma_do_async_transfer(
  alt_sgdma_dev *dev,
  alt_sgdma_descriptor *desc)
{
 10037c0:	defffc04 	addi	sp,sp,-16
 10037c4:	df000315 	stw	fp,12(sp)
 10037c8:	df000304 	addi	fp,sp,12
 10037cc:	e13ffe15 	stw	r4,-8(fp)
 10037d0:	e17ffd15 	stw	r5,-12(fp)
  alt_u32 control;

  /* Return with error immediately if controller is busy */
  if( (IORD_ALTERA_AVALON_SGDMA_STATUS(dev->base) &
 10037d4:	e0bffe17 	ldw	r2,-8(fp)
 10037d8:	10800317 	ldw	r2,12(r2)
 10037dc:	10800037 	ldwio	r2,0(r2)
 10037e0:	1080040c 	andi	r2,r2,16
 10037e4:	10000226 	beq	r2,zero,10037f0 <alt_avalon_sgdma_do_async_transfer+0x30>
           ALTERA_AVALON_SGDMA_STATUS_BUSY_MSK) ) {
    return -EBUSY;
 10037e8:	00bffc04 	movi	r2,-16
 10037ec:	00003906 	br	10038d4 <alt_avalon_sgdma_do_async_transfer+0x114>
  }

  /* Clear Run */
  IOWR_ALTERA_AVALON_SGDMA_CONTROL(dev->base,
 10037f0:	e0bffe17 	ldw	r2,-8(fp)
 10037f4:	10800317 	ldw	r2,12(r2)
 10037f8:	10800404 	addi	r2,r2,16
 10037fc:	e0fffe17 	ldw	r3,-8(fp)
 1003800:	18c00317 	ldw	r3,12(r3)
 1003804:	18c00404 	addi	r3,r3,16
 1003808:	19000037 	ldwio	r4,0(r3)
 100380c:	00fff7c4 	movi	r3,-33
 1003810:	20c6703a 	and	r3,r4,r3
 1003814:	10c00035 	stwio	r3,0(r2)

  /*
   * Clear any (previous) status register information
   * that might occlude our error checking later.
   */
  IOWR_ALTERA_AVALON_SGDMA_STATUS(dev->base, 0xFF);
 1003818:	e0bffe17 	ldw	r2,-8(fp)
 100381c:	10800317 	ldw	r2,12(r2)
 1003820:	00c03fc4 	movi	r3,255
 1003824:	10c00035 	stwio	r3,0(r2)

  /* Point the controller at the descriptor */
  IOWR_ALTERA_AVALON_SGDMA_NEXT_DESC_POINTER(dev->base, (alt_u32) desc);
 1003828:	e0bffe17 	ldw	r2,-8(fp)
 100382c:	10800317 	ldw	r2,12(r2)
 1003830:	10800804 	addi	r2,r2,32
 1003834:	e0fffd17 	ldw	r3,-12(fp)
 1003838:	10c00035 	stwio	r3,0(r2)
   *  - Stop on an error with any particular descriptor
   *  - Include any control register bits registered with along with
   *    the callback routine (effectively, interrupts are controlled
   *    via the control bits set during callback-register time).
   */
  if(dev->callback) {
 100383c:	e0bffe17 	ldw	r2,-8(fp)
 1003840:	10800917 	ldw	r2,36(r2)
 1003844:	10001126 	beq	r2,zero,100388c <alt_avalon_sgdma_do_async_transfer+0xcc>
    control = IORD_ALTERA_AVALON_SGDMA_CONTROL(dev->base);
 1003848:	e0bffe17 	ldw	r2,-8(fp)
 100384c:	10800317 	ldw	r2,12(r2)
 1003850:	10800404 	addi	r2,r2,16
 1003854:	10800037 	ldwio	r2,0(r2)
 1003858:	e0bfff15 	stw	r2,-4(fp)

    control |= (dev->chain_control                          |
 100385c:	e0bffe17 	ldw	r2,-8(fp)
 1003860:	10c00b17 	ldw	r3,44(r2)
 1003864:	e0bfff17 	ldw	r2,-4(fp)
 1003868:	1884b03a 	or	r2,r3,r2
 100386c:	10801814 	ori	r2,r2,96
 1003870:	e0bfff15 	stw	r2,-4(fp)
                ALTERA_AVALON_SGDMA_CONTROL_RUN_MSK         |
                ALTERA_AVALON_SGDMA_CONTROL_STOP_DMA_ER_MSK  );

    IOWR_ALTERA_AVALON_SGDMA_CONTROL(dev->base, control);
 1003874:	e0bffe17 	ldw	r2,-8(fp)
 1003878:	10800317 	ldw	r2,12(r2)
 100387c:	10800404 	addi	r2,r2,16
 1003880:	e0ffff17 	ldw	r3,-4(fp)
 1003884:	10c00035 	stwio	r3,0(r2)
 1003888:	00001106 	br	10038d0 <alt_avalon_sgdma_do_async_transfer+0x110>
   *   - Run
   *   - Stop on an error with any particular descriptor
   *   - Disable interrupt generation
   */
  else {
    control = IORD_ALTERA_AVALON_SGDMA_CONTROL(dev->base);
 100388c:	e0bffe17 	ldw	r2,-8(fp)
 1003890:	10800317 	ldw	r2,12(r2)
 1003894:	10800404 	addi	r2,r2,16
 1003898:	10800037 	ldwio	r2,0(r2)
 100389c:	e0bfff15 	stw	r2,-4(fp)

    control |= (ALTERA_AVALON_SGDMA_CONTROL_RUN_MSK         |
 10038a0:	e0bfff17 	ldw	r2,-4(fp)
 10038a4:	10801814 	ori	r2,r2,96
 10038a8:	e0bfff15 	stw	r2,-4(fp)
                ALTERA_AVALON_SGDMA_CONTROL_STOP_DMA_ER_MSK );
    control &= ~ALTERA_AVALON_SGDMA_CONTROL_IE_GLOBAL_MSK;
 10038ac:	e0ffff17 	ldw	r3,-4(fp)
 10038b0:	00bffbc4 	movi	r2,-17
 10038b4:	1884703a 	and	r2,r3,r2
 10038b8:	e0bfff15 	stw	r2,-4(fp)

    IOWR_ALTERA_AVALON_SGDMA_CONTROL(dev->base, control);
 10038bc:	e0bffe17 	ldw	r2,-8(fp)
 10038c0:	10800317 	ldw	r2,12(r2)
 10038c4:	10800404 	addi	r2,r2,16
 10038c8:	e0ffff17 	ldw	r3,-4(fp)
 10038cc:	10c00035 	stwio	r3,0(r2)

  /*
   * Error detection/handling should be performed at the application
   * or callback level as appropriate.
   */
  return 0;
 10038d0:	0005883a 	mov	r2,zero
}
 10038d4:	e037883a 	mov	sp,fp
 10038d8:	df000017 	ldw	fp,0(sp)
 10038dc:	dec00104 	addi	sp,sp,4
 10038e0:	f800283a 	ret

010038e4 <alt_avalon_sgdma_do_sync_transfer>:
 * - status: Content of SGDMA status register.
 */
alt_u8 alt_avalon_sgdma_do_sync_transfer(
  alt_sgdma_dev *dev,
  alt_sgdma_descriptor *desc)
{
 10038e4:	defffc04 	addi	sp,sp,-16
 10038e8:	df000315 	stw	fp,12(sp)
 10038ec:	df000304 	addi	fp,sp,12
 10038f0:	e13ffe15 	stw	r4,-8(fp)
 10038f4:	e17ffd15 	stw	r5,-12(fp)
  alt_u8 status;

  /* Wait for any pending transfers to complete */
  while ( (IORD_ALTERA_AVALON_SGDMA_STATUS(dev->base) &
 10038f8:	0001883a 	nop
 10038fc:	e0bffe17 	ldw	r2,-8(fp)
 1003900:	10800317 	ldw	r2,12(r2)
 1003904:	10800037 	ldwio	r2,0(r2)
 1003908:	1080040c 	andi	r2,r2,16
 100390c:	103ffb1e 	bne	r2,zero,10038fc <alt_avalon_sgdma_do_sync_transfer+0x18>
           ALTERA_AVALON_SGDMA_STATUS_BUSY_MSK) );


  /* Clear Run */
  IOWR_ALTERA_AVALON_SGDMA_CONTROL(dev->base,
 1003910:	e0bffe17 	ldw	r2,-8(fp)
 1003914:	10800317 	ldw	r2,12(r2)
 1003918:	10800404 	addi	r2,r2,16
 100391c:	e0fffe17 	ldw	r3,-8(fp)
 1003920:	18c00317 	ldw	r3,12(r3)
 1003924:	18c00404 	addi	r3,r3,16
 1003928:	19000037 	ldwio	r4,0(r3)
 100392c:	00fff7c4 	movi	r3,-33
 1003930:	20c6703a 	and	r3,r4,r3
 1003934:	10c00035 	stwio	r3,0(r2)

  /*
   * Clear any (previous) status register information
   * that might occlude our error checking later.
   */
  IOWR_ALTERA_AVALON_SGDMA_STATUS(dev->base, 0xFF);
 1003938:	e0bffe17 	ldw	r2,-8(fp)
 100393c:	10800317 	ldw	r2,12(r2)
 1003940:	00c03fc4 	movi	r3,255
 1003944:	10c00035 	stwio	r3,0(r2)

  /* Point the controller at the descriptor */
  IOWR_ALTERA_AVALON_SGDMA_NEXT_DESC_POINTER(dev->base, (alt_u32) desc);
 1003948:	e0bffe17 	ldw	r2,-8(fp)
 100394c:	10800317 	ldw	r2,12(r2)
 1003950:	10800804 	addi	r2,r2,32
 1003954:	e0fffd17 	ldw	r3,-12(fp)
 1003958:	10c00035 	stwio	r3,0(r2)
   * Set up SGDMA controller to:
   * - Disable interrupt generation
   * - Run once a valid descriptor is written to controller
   * - Stop on an error with any particular descriptor
   */
  IOWR_ALTERA_AVALON_SGDMA_CONTROL(dev->base,
 100395c:	e0bffe17 	ldw	r2,-8(fp)
 1003960:	10800317 	ldw	r2,12(r2)
 1003964:	10800404 	addi	r2,r2,16
 1003968:	e0fffe17 	ldw	r3,-8(fp)
 100396c:	18c00317 	ldw	r3,12(r3)
 1003970:	18c00404 	addi	r3,r3,16
 1003974:	18c00037 	ldwio	r3,0(r3)
 1003978:	18c01814 	ori	r3,r3,96
 100397c:	10c00035 	stwio	r3,0(r2)
    (ALTERA_AVALON_SGDMA_CONTROL_RUN_MSK |
     ALTERA_AVALON_SGDMA_CONTROL_STOP_DMA_ER_MSK | 
     IORD_ALTERA_AVALON_SGDMA_CONTROL(dev->base)) );

  /* Wait for the descriptor (chain) to complete */
  while ( (IORD_ALTERA_AVALON_SGDMA_STATUS(dev->base) &
 1003980:	0001883a 	nop
 1003984:	e0bffe17 	ldw	r2,-8(fp)
 1003988:	10800317 	ldw	r2,12(r2)
 100398c:	10800037 	ldwio	r2,0(r2)
 1003990:	1080040c 	andi	r2,r2,16
 1003994:	103ffb1e 	bne	r2,zero,1003984 <alt_avalon_sgdma_do_sync_transfer+0xa0>
           ALTERA_AVALON_SGDMA_STATUS_BUSY_MSK) );

  /* Clear Run */
  IOWR_ALTERA_AVALON_SGDMA_CONTROL(dev->base, 
 1003998:	e0bffe17 	ldw	r2,-8(fp)
 100399c:	10800317 	ldw	r2,12(r2)
 10039a0:	10800404 	addi	r2,r2,16
 10039a4:	e0fffe17 	ldw	r3,-8(fp)
 10039a8:	18c00317 	ldw	r3,12(r3)
 10039ac:	18c00404 	addi	r3,r3,16
 10039b0:	19000037 	ldwio	r4,0(r3)
 10039b4:	00fff7c4 	movi	r3,-33
 10039b8:	20c6703a 	and	r3,r4,r3
 10039bc:	10c00035 	stwio	r3,0(r2)
    (IORD_ALTERA_AVALON_SGDMA_CONTROL(dev->base) &
     ~ALTERA_AVALON_SGDMA_CONTROL_RUN_MSK) );

  /* Get & clear status register contents */
  status = IORD_ALTERA_AVALON_SGDMA_STATUS(dev->base);
 10039c0:	e0bffe17 	ldw	r2,-8(fp)
 10039c4:	10800317 	ldw	r2,12(r2)
 10039c8:	10800037 	ldwio	r2,0(r2)
 10039cc:	e0bfffc5 	stb	r2,-1(fp)
  IOWR_ALTERA_AVALON_SGDMA_STATUS(dev->base, 0xFF);
 10039d0:	e0bffe17 	ldw	r2,-8(fp)
 10039d4:	10800317 	ldw	r2,12(r2)
 10039d8:	00c03fc4 	movi	r3,255
 10039dc:	10c00035 	stwio	r3,0(r2)

  return status;
 10039e0:	e0bfffc3 	ldbu	r2,-1(fp)
}
 10039e4:	e037883a 	mov	sp,fp
 10039e8:	df000017 	ldw	fp,0(sp)
 10039ec:	dec00104 	addi	sp,sp,4
 10039f0:	f800283a 	ret

010039f4 <alt_avalon_sgdma_construct_mem_to_mem_desc>:
  alt_u32              *read_addr,
  alt_u32              *write_addr,
  alt_u16               length,
  int                   read_fixed,
  int                   write_fixed)
{
 10039f4:	defff404 	addi	sp,sp,-48
 10039f8:	dfc00b15 	stw	ra,44(sp)
 10039fc:	df000a15 	stw	fp,40(sp)
 1003a00:	df000a04 	addi	fp,sp,40
 1003a04:	e13fff15 	stw	r4,-4(fp)
 1003a08:	e17ffe15 	stw	r5,-8(fp)
 1003a0c:	e1bffd15 	stw	r6,-12(fp)
 1003a10:	e1fffc15 	stw	r7,-16(fp)
 1003a14:	e0800217 	ldw	r2,8(fp)
 1003a18:	e0bffb0d 	sth	r2,-20(fp)
  alt_avalon_sgdma_construct_mem_to_mem_desc_burst(desc, next, read_addr, 
 1003a1c:	e0bffb0b 	ldhu	r2,-20(fp)
 1003a20:	d8000415 	stw	zero,16(sp)
 1003a24:	d8000315 	stw	zero,12(sp)
 1003a28:	e0c00417 	ldw	r3,16(fp)
 1003a2c:	d8c00215 	stw	r3,8(sp)
 1003a30:	e0c00317 	ldw	r3,12(fp)
 1003a34:	d8c00115 	stw	r3,4(sp)
 1003a38:	d8800015 	stw	r2,0(sp)
 1003a3c:	e1fffc17 	ldw	r7,-16(fp)
 1003a40:	e1bffd17 	ldw	r6,-12(fp)
 1003a44:	e17ffe17 	ldw	r5,-8(fp)
 1003a48:	e13fff17 	ldw	r4,-4(fp)
 1003a4c:	1003a680 	call	1003a68 <alt_avalon_sgdma_construct_mem_to_mem_desc_burst>
    write_addr, length, read_fixed, write_fixed, 0, 0);
}
 1003a50:	0001883a 	nop
 1003a54:	e037883a 	mov	sp,fp
 1003a58:	dfc00117 	ldw	ra,4(sp)
 1003a5c:	df000017 	ldw	fp,0(sp)
 1003a60:	dec00204 	addi	sp,sp,8
 1003a64:	f800283a 	ret

01003a68 <alt_avalon_sgdma_construct_mem_to_mem_desc_burst>:
  alt_u16               length,
  int                   read_fixed,
  int                   write_fixed,
  int                   read_burst,
  int                   write_burst)
{
 1003a68:	defff204 	addi	sp,sp,-56
 1003a6c:	dfc00d15 	stw	ra,52(sp)
 1003a70:	df000c15 	stw	fp,48(sp)
 1003a74:	df000c04 	addi	fp,sp,48
 1003a78:	e13fff15 	stw	r4,-4(fp)
 1003a7c:	e17ffe15 	stw	r5,-8(fp)
 1003a80:	e1bffd15 	stw	r6,-12(fp)
 1003a84:	e1fffc15 	stw	r7,-16(fp)
 1003a88:	e0800217 	ldw	r2,8(fp)
 1003a8c:	e0bffb0d 	sth	r2,-20(fp)
  alt_avalon_sgdma_construct_descriptor_burst(
 1003a90:	e0bffb0b 	ldhu	r2,-20(fp)
 1003a94:	d8000615 	stw	zero,24(sp)
 1003a98:	e0c00617 	ldw	r3,24(fp)
 1003a9c:	d8c00515 	stw	r3,20(sp)
 1003aa0:	e0c00517 	ldw	r3,20(fp)
 1003aa4:	d8c00415 	stw	r3,16(sp)
 1003aa8:	e0c00417 	ldw	r3,16(fp)
 1003aac:	d8c00315 	stw	r3,12(sp)
 1003ab0:	e0c00317 	ldw	r3,12(fp)
 1003ab4:	d8c00215 	stw	r3,8(sp)
 1003ab8:	d8000115 	stw	zero,4(sp)
 1003abc:	d8800015 	stw	r2,0(sp)
 1003ac0:	e1fffc17 	ldw	r7,-16(fp)
 1003ac4:	e1bffd17 	ldw	r6,-12(fp)
 1003ac8:	e17ffe17 	ldw	r5,-8(fp)
 1003acc:	e13fff17 	ldw	r4,-4(fp)
 1003ad0:	1003ffc0 	call	1003ffc <alt_avalon_sgdma_construct_descriptor_burst>
    read_fixed,
    write_fixed,
    read_burst,
    write_burst,
    (alt_u8) 0x0);  // Atlantic channel: N/A in mem-to-mem mode
}
 1003ad4:	0001883a 	nop
 1003ad8:	e037883a 	mov	sp,fp
 1003adc:	dfc00117 	ldw	ra,4(sp)
 1003ae0:	df000017 	ldw	fp,0(sp)
 1003ae4:	dec00204 	addi	sp,sp,8
 1003ae8:	f800283a 	ret

01003aec <alt_avalon_sgdma_construct_stream_to_mem_desc>:
  alt_sgdma_descriptor *desc,
  alt_sgdma_descriptor *next,
  alt_u32              *write_addr,
  alt_u16               length_or_eop,
  int                   write_fixed)
{
 1003aec:	defff804 	addi	sp,sp,-32
 1003af0:	dfc00715 	stw	ra,28(sp)
 1003af4:	df000615 	stw	fp,24(sp)
 1003af8:	df000604 	addi	fp,sp,24
 1003afc:	e13fff15 	stw	r4,-4(fp)
 1003b00:	e17ffe15 	stw	r5,-8(fp)
 1003b04:	e1bffd15 	stw	r6,-12(fp)
 1003b08:	3805883a 	mov	r2,r7
 1003b0c:	e0bffc0d 	sth	r2,-16(fp)
  alt_avalon_sgdma_construct_stream_to_mem_desc_burst(desc, next, write_addr, 
 1003b10:	e0fffc0b 	ldhu	r3,-16(fp)
 1003b14:	d8000115 	stw	zero,4(sp)
 1003b18:	e0800217 	ldw	r2,8(fp)
 1003b1c:	d8800015 	stw	r2,0(sp)
 1003b20:	180f883a 	mov	r7,r3
 1003b24:	e1bffd17 	ldw	r6,-12(fp)
 1003b28:	e17ffe17 	ldw	r5,-8(fp)
 1003b2c:	e13fff17 	ldw	r4,-4(fp)
 1003b30:	1003b4c0 	call	1003b4c <alt_avalon_sgdma_construct_stream_to_mem_desc_burst>
    length_or_eop, write_fixed, 0);
}
 1003b34:	0001883a 	nop
 1003b38:	e037883a 	mov	sp,fp
 1003b3c:	dfc00117 	ldw	ra,4(sp)
 1003b40:	df000017 	ldw	fp,0(sp)
 1003b44:	dec00204 	addi	sp,sp,8
 1003b48:	f800283a 	ret

01003b4c <alt_avalon_sgdma_construct_stream_to_mem_desc_burst>:
  alt_sgdma_descriptor *next,
  alt_u32              *write_addr,
  alt_u16               length_or_eop,
  int                   write_fixed,
  int                   write_burst)
{
 1003b4c:	defff304 	addi	sp,sp,-52
 1003b50:	dfc00c15 	stw	ra,48(sp)
 1003b54:	df000b15 	stw	fp,44(sp)
 1003b58:	df000b04 	addi	fp,sp,44
 1003b5c:	e13fff15 	stw	r4,-4(fp)
 1003b60:	e17ffe15 	stw	r5,-8(fp)
 1003b64:	e1bffd15 	stw	r6,-12(fp)
 1003b68:	3805883a 	mov	r2,r7
 1003b6c:	e0bffc0d 	sth	r2,-16(fp)
  alt_avalon_sgdma_construct_descriptor_burst(
 1003b70:	e0bffc0b 	ldhu	r2,-16(fp)
 1003b74:	d8000615 	stw	zero,24(sp)
 1003b78:	e0c00317 	ldw	r3,12(fp)
 1003b7c:	d8c00515 	stw	r3,20(sp)
 1003b80:	d8000415 	stw	zero,16(sp)
 1003b84:	e0c00217 	ldw	r3,8(fp)
 1003b88:	d8c00315 	stw	r3,12(sp)
 1003b8c:	d8000215 	stw	zero,8(sp)
 1003b90:	d8000115 	stw	zero,4(sp)
 1003b94:	d8800015 	stw	r2,0(sp)
 1003b98:	e1fffd17 	ldw	r7,-12(fp)
 1003b9c:	000d883a 	mov	r6,zero
 1003ba0:	e17ffe17 	ldw	r5,-8(fp)
 1003ba4:	e13fff17 	ldw	r4,-4(fp)
 1003ba8:	1003ffc0 	call	1003ffc <alt_avalon_sgdma_construct_descriptor_burst>
    0x0,            // Read fixed: N/A in stream-to-mem mode
    write_fixed,
    0,              // Read_burst : N/A in stream-to-mem mode
    write_burst,
    (alt_u8) 0x0);  // Atlantic channel: N/A in stream-to-mem mode
}
 1003bac:	0001883a 	nop
 1003bb0:	e037883a 	mov	sp,fp
 1003bb4:	dfc00117 	ldw	ra,4(sp)
 1003bb8:	df000017 	ldw	fp,0(sp)
 1003bbc:	dec00204 	addi	sp,sp,8
 1003bc0:	f800283a 	ret

01003bc4 <alt_avalon_sgdma_construct_mem_to_stream_desc>:
  alt_u16               length,
  int                   read_fixed,
  int                   generate_sop,
  int                   generate_eop,
  alt_u8                atlantic_channel)
{
 1003bc4:	defff404 	addi	sp,sp,-48
 1003bc8:	dfc00b15 	stw	ra,44(sp)
 1003bcc:	df000a15 	stw	fp,40(sp)
 1003bd0:	df000a04 	addi	fp,sp,40
 1003bd4:	e13fff15 	stw	r4,-4(fp)
 1003bd8:	e17ffe15 	stw	r5,-8(fp)
 1003bdc:	e1bffd15 	stw	r6,-12(fp)
 1003be0:	3807883a 	mov	r3,r7
 1003be4:	e0800517 	ldw	r2,20(fp)
 1003be8:	e0fffc0d 	sth	r3,-16(fp)
 1003bec:	e0bffb05 	stb	r2,-20(fp)
  alt_avalon_sgdma_construct_mem_to_stream_desc_burst(desc, next, read_addr, 
 1003bf0:	e0fffc0b 	ldhu	r3,-16(fp)
 1003bf4:	e0bffb03 	ldbu	r2,-20(fp)
 1003bf8:	d8800415 	stw	r2,16(sp)
 1003bfc:	d8000315 	stw	zero,12(sp)
 1003c00:	e0800417 	ldw	r2,16(fp)
 1003c04:	d8800215 	stw	r2,8(sp)
 1003c08:	e0800317 	ldw	r2,12(fp)
 1003c0c:	d8800115 	stw	r2,4(sp)
 1003c10:	e0800217 	ldw	r2,8(fp)
 1003c14:	d8800015 	stw	r2,0(sp)
 1003c18:	180f883a 	mov	r7,r3
 1003c1c:	e1bffd17 	ldw	r6,-12(fp)
 1003c20:	e17ffe17 	ldw	r5,-8(fp)
 1003c24:	e13fff17 	ldw	r4,-4(fp)
 1003c28:	1003c440 	call	1003c44 <alt_avalon_sgdma_construct_mem_to_stream_desc_burst>
    length, read_fixed, generate_sop, generate_eop, 0, atlantic_channel);

}
 1003c2c:	0001883a 	nop
 1003c30:	e037883a 	mov	sp,fp
 1003c34:	dfc00117 	ldw	ra,4(sp)
 1003c38:	df000017 	ldw	fp,0(sp)
 1003c3c:	dec00204 	addi	sp,sp,8
 1003c40:	f800283a 	ret

01003c44 <alt_avalon_sgdma_construct_mem_to_stream_desc_burst>:
  int                   read_fixed,
  int                   generate_sop,
  int                   generate_eop,
  int                   read_burst,
  alt_u8                atlantic_channel)
{
 1003c44:	defff204 	addi	sp,sp,-56
 1003c48:	dfc00d15 	stw	ra,52(sp)
 1003c4c:	df000c15 	stw	fp,48(sp)
 1003c50:	df000c04 	addi	fp,sp,48
 1003c54:	e13fff15 	stw	r4,-4(fp)
 1003c58:	e17ffe15 	stw	r5,-8(fp)
 1003c5c:	e1bffd15 	stw	r6,-12(fp)
 1003c60:	3807883a 	mov	r3,r7
 1003c64:	e0800617 	ldw	r2,24(fp)
 1003c68:	e0fffc0d 	sth	r3,-16(fp)
 1003c6c:	e0bffb05 	stb	r2,-20(fp)
  alt_avalon_sgdma_construct_descriptor_burst(
 1003c70:	e0bffc0b 	ldhu	r2,-16(fp)
 1003c74:	e0fffb03 	ldbu	r3,-20(fp)
 1003c78:	d8c00615 	stw	r3,24(sp)
 1003c7c:	d8000515 	stw	zero,20(sp)
 1003c80:	e0c00517 	ldw	r3,20(fp)
 1003c84:	d8c00415 	stw	r3,16(sp)
 1003c88:	e0c00317 	ldw	r3,12(fp)
 1003c8c:	d8c00315 	stw	r3,12(sp)
 1003c90:	e0c00217 	ldw	r3,8(fp)
 1003c94:	d8c00215 	stw	r3,8(sp)
 1003c98:	e0c00417 	ldw	r3,16(fp)
 1003c9c:	d8c00115 	stw	r3,4(sp)
 1003ca0:	d8800015 	stw	r2,0(sp)
 1003ca4:	000f883a 	mov	r7,zero
 1003ca8:	e1bffd17 	ldw	r6,-12(fp)
 1003cac:	e17ffe17 	ldw	r5,-8(fp)
 1003cb0:	e13fff17 	ldw	r4,-4(fp)
 1003cb4:	1003ffc0 	call	1003ffc <alt_avalon_sgdma_construct_descriptor_burst>
    read_fixed,
    generate_sop,
    read_burst,
    0,                 // Write_burst : N/A in mem-to-stream mode
    atlantic_channel);
}
 1003cb8:	0001883a 	nop
 1003cbc:	e037883a 	mov	sp,fp
 1003cc0:	dfc00117 	ldw	ra,4(sp)
 1003cc4:	df000017 	ldw	fp,0(sp)
 1003cc8:	dec00204 	addi	sp,sp,8
 1003ccc:	f800283a 	ret

01003cd0 <alt_avalon_sgdma_register_callback>:
void alt_avalon_sgdma_register_callback(
  alt_sgdma_dev *dev,
  alt_avalon_sgdma_callback callback,
  alt_u32 chain_control,
  void *context)
{
 1003cd0:	defffb04 	addi	sp,sp,-20
 1003cd4:	df000415 	stw	fp,16(sp)
 1003cd8:	df000404 	addi	fp,sp,16
 1003cdc:	e13fff15 	stw	r4,-4(fp)
 1003ce0:	e17ffe15 	stw	r5,-8(fp)
 1003ce4:	e1bffd15 	stw	r6,-12(fp)
 1003ce8:	e1fffc15 	stw	r7,-16(fp)
  dev->callback         = callback;
 1003cec:	e0bfff17 	ldw	r2,-4(fp)
 1003cf0:	e0fffe17 	ldw	r3,-8(fp)
 1003cf4:	10c00915 	stw	r3,36(r2)
  dev->callback_context = context;
 1003cf8:	e0bfff17 	ldw	r2,-4(fp)
 1003cfc:	e0fffc17 	ldw	r3,-16(fp)
 1003d00:	10c00a15 	stw	r3,40(r2)
  dev->chain_control    = chain_control;
 1003d04:	e0bfff17 	ldw	r2,-4(fp)
 1003d08:	e0fffd17 	ldw	r3,-12(fp)
 1003d0c:	10c00b15 	stw	r3,44(r2)
}
 1003d10:	0001883a 	nop
 1003d14:	e037883a 	mov	sp,fp
 1003d18:	df000017 	ldw	fp,0(sp)
 1003d1c:	dec00104 	addi	sp,sp,4
 1003d20:	f800283a 	ret

01003d24 <alt_avalon_sgdma_start>:
 *
 * Arguments:
 * - *dev: Pointer to SGDMA device (instance) struct.
 */
void alt_avalon_sgdma_start(alt_sgdma_dev *dev)
{
 1003d24:	defffd04 	addi	sp,sp,-12
 1003d28:	df000215 	stw	fp,8(sp)
 1003d2c:	df000204 	addi	fp,sp,8
 1003d30:	e13ffe15 	stw	r4,-8(fp)
  alt_u32 control;

  control = IORD_ALTERA_AVALON_SGDMA_CONTROL(dev->base);
 1003d34:	e0bffe17 	ldw	r2,-8(fp)
 1003d38:	10800317 	ldw	r2,12(r2)
 1003d3c:	10800404 	addi	r2,r2,16
 1003d40:	10800037 	ldwio	r2,0(r2)
 1003d44:	e0bfff15 	stw	r2,-4(fp)
  control |= ALTERA_AVALON_SGDMA_CONTROL_RUN_MSK;
 1003d48:	e0bfff17 	ldw	r2,-4(fp)
 1003d4c:	10800814 	ori	r2,r2,32
 1003d50:	e0bfff15 	stw	r2,-4(fp)
  IOWR_ALTERA_AVALON_SGDMA_CONTROL(dev->base, control);
 1003d54:	e0bffe17 	ldw	r2,-8(fp)
 1003d58:	10800317 	ldw	r2,12(r2)
 1003d5c:	10800404 	addi	r2,r2,16
 1003d60:	e0ffff17 	ldw	r3,-4(fp)
 1003d64:	10c00035 	stwio	r3,0(r2)
}
 1003d68:	0001883a 	nop
 1003d6c:	e037883a 	mov	sp,fp
 1003d70:	df000017 	ldw	fp,0(sp)
 1003d74:	dec00104 	addi	sp,sp,4
 1003d78:	f800283a 	ret

01003d7c <alt_avalon_sgdma_stop>:
 *
 * Arguments:
 * - *dev: Pointer to SGDMA device (instance) struct
 */
void alt_avalon_sgdma_stop(alt_sgdma_dev *dev)
{
 1003d7c:	defffd04 	addi	sp,sp,-12
 1003d80:	df000215 	stw	fp,8(sp)
 1003d84:	df000204 	addi	fp,sp,8
 1003d88:	e13ffe15 	stw	r4,-8(fp)
  alt_u32 control;

  control = IORD_ALTERA_AVALON_SGDMA_CONTROL(dev->base);
 1003d8c:	e0bffe17 	ldw	r2,-8(fp)
 1003d90:	10800317 	ldw	r2,12(r2)
 1003d94:	10800404 	addi	r2,r2,16
 1003d98:	10800037 	ldwio	r2,0(r2)
 1003d9c:	e0bfff15 	stw	r2,-4(fp)
  control &= ~ALTERA_AVALON_SGDMA_CONTROL_RUN_MSK;
 1003da0:	e0ffff17 	ldw	r3,-4(fp)
 1003da4:	00bff7c4 	movi	r2,-33
 1003da8:	1884703a 	and	r2,r3,r2
 1003dac:	e0bfff15 	stw	r2,-4(fp)
  IOWR_ALTERA_AVALON_SGDMA_CONTROL(dev->base, control);
 1003db0:	e0bffe17 	ldw	r2,-8(fp)
 1003db4:	10800317 	ldw	r2,12(r2)
 1003db8:	10800404 	addi	r2,r2,16
 1003dbc:	e0ffff17 	ldw	r3,-4(fp)
 1003dc0:	10c00035 	stwio	r3,0(r2)
}
 1003dc4:	0001883a 	nop
 1003dc8:	e037883a 	mov	sp,fp
 1003dcc:	df000017 	ldw	fp,0(sp)
 1003dd0:	dec00104 	addi	sp,sp,4
 1003dd4:	f800283a 	ret

01003dd8 <alt_avalon_sgdma_check_descriptor_status>:
 * - 0 if the descriptor is error-free, not "owned by hardware", or
 *   a previously requested transfer has appeared to have completed
 *   normally. Or, various error conditions defined in <errno.h>
 */
int alt_avalon_sgdma_check_descriptor_status(alt_sgdma_descriptor *desc)
{
 1003dd8:	defffe04 	addi	sp,sp,-8
 1003ddc:	df000115 	stw	fp,4(sp)
 1003de0:	df000104 	addi	fp,sp,4
 1003de4:	e13fff15 	stw	r4,-4(fp)
  /* Errors take precedence */
  if( IORD_8DIRECT(&desc->status, 0) &
 1003de8:	e0bfff17 	ldw	r2,-4(fp)
 1003dec:	10800784 	addi	r2,r2,30
 1003df0:	10800023 	ldbuio	r2,0(r2)
 1003df4:	10803fcc 	andi	r2,r2,255
 1003df8:	10801fcc 	andi	r2,r2,127
 1003dfc:	10000226 	beq	r2,zero,1003e08 <alt_avalon_sgdma_check_descriptor_status+0x30>
        ALTERA_AVALON_SGDMA_DESCRIPTOR_STATUS_E_OVERFLOW_MSK |
        ALTERA_AVALON_SGDMA_DESCRIPTOR_STATUS_E_SYNC_MSK     |
        ALTERA_AVALON_SGDMA_DESCRIPTOR_STATUS_E_UEOP_MSK     |
        ALTERA_AVALON_SGDMA_DESCRIPTOR_STATUS_E_MEOP_MSK     |
        ALTERA_AVALON_SGDMA_DESCRIPTOR_STATUS_E_MSOP_MSK ) ) {
    return -EIO;
 1003e00:	00bffec4 	movi	r2,-5
 1003e04:	00000906 	br	1003e2c <alt_avalon_sgdma_check_descriptor_status+0x54>
  }

  if( IORD_8DIRECT(&desc->control, 0) &
 1003e08:	e0bfff17 	ldw	r2,-4(fp)
 1003e0c:	108007c4 	addi	r2,r2,31
 1003e10:	10800023 	ldbuio	r2,0(r2)
 1003e14:	10803fcc 	andi	r2,r2,255
 1003e18:	1080200c 	andi	r2,r2,128
 1003e1c:	10000226 	beq	r2,zero,1003e28 <alt_avalon_sgdma_check_descriptor_status+0x50>
      ALTERA_AVALON_SGDMA_DESCRIPTOR_CONTROL_OWNED_BY_HW_MSK) {
    return -EINPROGRESS;
 1003e20:	00bfe244 	movi	r2,-119
 1003e24:	00000106 	br	1003e2c <alt_avalon_sgdma_check_descriptor_status+0x54>
  }

    return 0;
 1003e28:	0005883a 	mov	r2,zero
}
 1003e2c:	e037883a 	mov	sp,fp
 1003e30:	df000017 	ldw	fp,0(sp)
 1003e34:	dec00104 	addi	sp,sp,4
 1003e38:	f800283a 	ret

01003e3c <alt_avalon_sgdma_open>:
 * Returns:
 * - Pointer to SGDMA device instance struct, or null if the device
 *   could not be opened.
 */
alt_sgdma_dev* alt_avalon_sgdma_open (const char* name)
{
 1003e3c:	defffc04 	addi	sp,sp,-16
 1003e40:	dfc00315 	stw	ra,12(sp)
 1003e44:	df000215 	stw	fp,8(sp)
 1003e48:	df000204 	addi	fp,sp,8
 1003e4c:	e13ffe15 	stw	r4,-8(fp)
  alt_sgdma_dev* dev;

  dev = (alt_sgdma_dev*) alt_find_dev (name, &alt_sgdma_list);
 1003e50:	d1600304 	addi	r5,gp,-32756
 1003e54:	e13ffe17 	ldw	r4,-8(fp)
 1003e58:	10098840 	call	1009884 <alt_find_dev>
 1003e5c:	e0bfff15 	stw	r2,-4(fp)

  if (NULL == dev) {
 1003e60:	e0bfff17 	ldw	r2,-4(fp)
 1003e64:	1000041e 	bne	r2,zero,1003e78 <alt_avalon_sgdma_open+0x3c>
    ALT_ERRNO = ENODEV;
 1003e68:	10037840 	call	1003784 <alt_get_errno>
 1003e6c:	1007883a 	mov	r3,r2
 1003e70:	008004c4 	movi	r2,19
 1003e74:	18800015 	stw	r2,0(r3)
  }

  return dev;
 1003e78:	e0bfff17 	ldw	r2,-4(fp)
}
 1003e7c:	e037883a 	mov	sp,fp
 1003e80:	dfc00117 	ldw	ra,4(sp)
 1003e84:	df000017 	ldw	fp,0(sp)
 1003e88:	dec00204 	addi	sp,sp,8
 1003e8c:	f800283a 	ret

01003e90 <alt_avalon_sgdma_construct_descriptor>:
  alt_u16               length_or_eop,
  int                   generate_eop,
  int                   read_fixed,
  int                   write_fixed_or_sop,
  alt_u8                atlantic_channel)
{
 1003e90:	defff104 	addi	sp,sp,-60
 1003e94:	dfc00e15 	stw	ra,56(sp)
 1003e98:	df000d15 	stw	fp,52(sp)
 1003e9c:	df000d04 	addi	fp,sp,52
 1003ea0:	e13fff15 	stw	r4,-4(fp)
 1003ea4:	e17ffe15 	stw	r5,-8(fp)
 1003ea8:	e1bffd15 	stw	r6,-12(fp)
 1003eac:	e1fffc15 	stw	r7,-16(fp)
 1003eb0:	e0c00217 	ldw	r3,8(fp)
 1003eb4:	e0800617 	ldw	r2,24(fp)
 1003eb8:	e0fffb0d 	sth	r3,-20(fp)
 1003ebc:	e0bffa05 	stb	r2,-24(fp)
  alt_avalon_sgdma_construct_descriptor_burst(desc, next, read_addr, 
 1003ec0:	e0bffb0b 	ldhu	r2,-20(fp)
 1003ec4:	e0fffa03 	ldbu	r3,-24(fp)
 1003ec8:	d8c00615 	stw	r3,24(sp)
 1003ecc:	d8000515 	stw	zero,20(sp)
 1003ed0:	d8000415 	stw	zero,16(sp)
 1003ed4:	e0c00517 	ldw	r3,20(fp)
 1003ed8:	d8c00315 	stw	r3,12(sp)
 1003edc:	e0c00417 	ldw	r3,16(fp)
 1003ee0:	d8c00215 	stw	r3,8(sp)
 1003ee4:	e0c00317 	ldw	r3,12(fp)
 1003ee8:	d8c00115 	stw	r3,4(sp)
 1003eec:	d8800015 	stw	r2,0(sp)
 1003ef0:	e1fffc17 	ldw	r7,-16(fp)
 1003ef4:	e1bffd17 	ldw	r6,-12(fp)
 1003ef8:	e17ffe17 	ldw	r5,-8(fp)
 1003efc:	e13fff17 	ldw	r4,-4(fp)
 1003f00:	1003ffc0 	call	1003ffc <alt_avalon_sgdma_construct_descriptor_burst>
    write_addr, length_or_eop, generate_eop, read_fixed, write_fixed_or_sop, 
    0, 0, atlantic_channel);
}
 1003f04:	0001883a 	nop
 1003f08:	e037883a 	mov	sp,fp
 1003f0c:	dfc00117 	ldw	ra,4(sp)
 1003f10:	df000017 	ldw	fp,0(sp)
 1003f14:	dec00204 	addi	sp,sp,8
 1003f18:	f800283a 	ret

01003f1c <alt_avalon_sgdma_enable_desc_poll>:
 *
 * Returns:
 * - None
 */
void alt_avalon_sgdma_enable_desc_poll(alt_sgdma_dev *dev, alt_u32 frequency)
{
 1003f1c:	defffc04 	addi	sp,sp,-16
 1003f20:	df000315 	stw	fp,12(sp)
 1003f24:	df000304 	addi	fp,sp,12
 1003f28:	e13ffe15 	stw	r4,-8(fp)
 1003f2c:	e17ffd15 	stw	r5,-12(fp)
  alt_u32 control;

  control = IORD_ALTERA_AVALON_SGDMA_CONTROL(dev->base);
 1003f30:	e0bffe17 	ldw	r2,-8(fp)
 1003f34:	10800317 	ldw	r2,12(r2)
 1003f38:	10800404 	addi	r2,r2,16
 1003f3c:	10800037 	ldwio	r2,0(r2)
 1003f40:	e0bfff15 	stw	r2,-4(fp)
  /* Clear descriptor polling frequency */
  control &= ~ALTERA_AVALON_SGDMA_CONTROL_DESC_POLL_FREQ_MSK;
 1003f44:	e0ffff17 	ldw	r3,-4(fp)
 1003f48:	00a00434 	movhi	r2,32784
 1003f4c:	10bfffc4 	addi	r2,r2,-1
 1003f50:	1884703a 	and	r2,r3,r2
 1003f54:	e0bfff15 	stw	r2,-4(fp)
  
  control |= ALTERA_AVALON_SGDMA_CONTROL_DESC_POLL_EN_MSK | 
            ((frequency << ALTERA_AVALON_SGDMA_CONTROL_DESC_POLL_FREQ_OFST) & 
 1003f58:	e0bffd17 	ldw	r2,-12(fp)
 1003f5c:	1004953a 	slli	r2,r2,20
 1003f60:	10dffc2c 	andhi	r3,r2,32752
  control |= ALTERA_AVALON_SGDMA_CONTROL_DESC_POLL_EN_MSK | 
 1003f64:	e0bfff17 	ldw	r2,-4(fp)
 1003f68:	1884b03a 	or	r2,r3,r2
 1003f6c:	10800134 	orhi	r2,r2,4
 1003f70:	e0bfff15 	stw	r2,-4(fp)
            ALTERA_AVALON_SGDMA_CONTROL_DESC_POLL_FREQ_MSK);
  IOWR_ALTERA_AVALON_SGDMA_CONTROL(dev->base, control);
 1003f74:	e0bffe17 	ldw	r2,-8(fp)
 1003f78:	10800317 	ldw	r2,12(r2)
 1003f7c:	10800404 	addi	r2,r2,16
 1003f80:	e0ffff17 	ldw	r3,-4(fp)
 1003f84:	10c00035 	stwio	r3,0(r2)
  
  return;
 1003f88:	0001883a 	nop
}
 1003f8c:	e037883a 	mov	sp,fp
 1003f90:	df000017 	ldw	fp,0(sp)
 1003f94:	dec00104 	addi	sp,sp,4
 1003f98:	f800283a 	ret

01003f9c <alt_avalon_sgdma_disable_desc_poll>:
 *
 * Returns:
 * - None
 */
void alt_avalon_sgdma_disable_desc_poll(alt_sgdma_dev *dev)
{
 1003f9c:	defffd04 	addi	sp,sp,-12
 1003fa0:	df000215 	stw	fp,8(sp)
 1003fa4:	df000204 	addi	fp,sp,8
 1003fa8:	e13ffe15 	stw	r4,-8(fp)
  alt_u32 control;

  control = IORD_ALTERA_AVALON_SGDMA_CONTROL(dev->base);
 1003fac:	e0bffe17 	ldw	r2,-8(fp)
 1003fb0:	10800317 	ldw	r2,12(r2)
 1003fb4:	10800404 	addi	r2,r2,16
 1003fb8:	10800037 	ldwio	r2,0(r2)
 1003fbc:	e0bfff15 	stw	r2,-4(fp)
  control &= ~ALTERA_AVALON_SGDMA_CONTROL_DESC_POLL_EN_MSK;
 1003fc0:	e0ffff17 	ldw	r3,-4(fp)
 1003fc4:	00bfff34 	movhi	r2,65532
 1003fc8:	10bfffc4 	addi	r2,r2,-1
 1003fcc:	1884703a 	and	r2,r3,r2
 1003fd0:	e0bfff15 	stw	r2,-4(fp)

  IOWR_ALTERA_AVALON_SGDMA_CONTROL(dev->base, control);
 1003fd4:	e0bffe17 	ldw	r2,-8(fp)
 1003fd8:	10800317 	ldw	r2,12(r2)
 1003fdc:	10800404 	addi	r2,r2,16
 1003fe0:	e0ffff17 	ldw	r3,-4(fp)
 1003fe4:	10c00035 	stwio	r3,0(r2)
  
  return;
 1003fe8:	0001883a 	nop
}
 1003fec:	e037883a 	mov	sp,fp
 1003ff0:	df000017 	ldw	fp,0(sp)
 1003ff4:	dec00104 	addi	sp,sp,4
 1003ff8:	f800283a 	ret

01003ffc <alt_avalon_sgdma_construct_descriptor_burst>:
  int                   read_fixed,
  int                   write_fixed_or_sop,
  int                   read_burst,
  int                   write_burst,
  alt_u8                atlantic_channel)
{
 1003ffc:	defff804 	addi	sp,sp,-32
 1004000:	dfc00715 	stw	ra,28(sp)
 1004004:	df000615 	stw	fp,24(sp)
 1004008:	df000604 	addi	fp,sp,24
 100400c:	e13fff15 	stw	r4,-4(fp)
 1004010:	e17ffe15 	stw	r5,-8(fp)
 1004014:	e1bffd15 	stw	r6,-12(fp)
 1004018:	e1fffc15 	stw	r7,-16(fp)
 100401c:	e0c00217 	ldw	r3,8(fp)
 1004020:	e0800817 	ldw	r2,32(fp)
 1004024:	e0fffb0d 	sth	r3,-20(fp)
 1004028:	e0bffa05 	stb	r2,-24(fp)
   * The SGDMA controller from continuing to process the chain. This is
   * done as a single IO write to bypass cache, without flushing
   * the entire descriptor, since only the 8-bit descriptor status must
   * be flushed.
   */
  IOWR_8DIRECT(&next->control, 0,
 100402c:	e0bffe17 	ldw	r2,-8(fp)
 1004030:	108007c4 	addi	r2,r2,31
 1004034:	e0fffe17 	ldw	r3,-8(fp)
 1004038:	18c007c3 	ldbu	r3,31(r3)
 100403c:	19003fcc 	andi	r4,r3,255
 1004040:	00ffdfc4 	movi	r3,-129
 1004044:	20c6703a 	and	r3,r4,r3
 1004048:	10c00025 	stbio	r3,0(r2)
    (next->control & ~ALTERA_AVALON_SGDMA_DESCRIPTOR_CONTROL_OWNED_BY_HW_MSK));

  desc->read_addr                = read_addr;
 100404c:	e0bfff17 	ldw	r2,-4(fp)
 1004050:	e0fffd17 	ldw	r3,-12(fp)
 1004054:	19403fcc 	andi	r5,r3,255
 1004058:	10c00003 	ldbu	r3,0(r2)
 100405c:	1806703a 	and	r3,r3,zero
 1004060:	1809883a 	mov	r4,r3
 1004064:	2807883a 	mov	r3,r5
 1004068:	20c6b03a 	or	r3,r4,r3
 100406c:	10c00005 	stb	r3,0(r2)
 1004070:	e0fffd17 	ldw	r3,-12(fp)
 1004074:	1806d23a 	srli	r3,r3,8
 1004078:	19403fcc 	andi	r5,r3,255
 100407c:	10c00043 	ldbu	r3,1(r2)
 1004080:	1806703a 	and	r3,r3,zero
 1004084:	1809883a 	mov	r4,r3
 1004088:	2807883a 	mov	r3,r5
 100408c:	20c6b03a 	or	r3,r4,r3
 1004090:	10c00045 	stb	r3,1(r2)
 1004094:	e0fffd17 	ldw	r3,-12(fp)
 1004098:	1806d43a 	srli	r3,r3,16
 100409c:	19403fcc 	andi	r5,r3,255
 10040a0:	10c00083 	ldbu	r3,2(r2)
 10040a4:	1806703a 	and	r3,r3,zero
 10040a8:	1809883a 	mov	r4,r3
 10040ac:	2807883a 	mov	r3,r5
 10040b0:	20c6b03a 	or	r3,r4,r3
 10040b4:	10c00085 	stb	r3,2(r2)
 10040b8:	e0fffd17 	ldw	r3,-12(fp)
 10040bc:	180ad63a 	srli	r5,r3,24
 10040c0:	10c000c3 	ldbu	r3,3(r2)
 10040c4:	1806703a 	and	r3,r3,zero
 10040c8:	1809883a 	mov	r4,r3
 10040cc:	2807883a 	mov	r3,r5
 10040d0:	20c6b03a 	or	r3,r4,r3
 10040d4:	10c000c5 	stb	r3,3(r2)
  desc->write_addr               = write_addr;
 10040d8:	e0bfff17 	ldw	r2,-4(fp)
 10040dc:	e0fffc17 	ldw	r3,-16(fp)
 10040e0:	19403fcc 	andi	r5,r3,255
 10040e4:	10c00203 	ldbu	r3,8(r2)
 10040e8:	1806703a 	and	r3,r3,zero
 10040ec:	1809883a 	mov	r4,r3
 10040f0:	2807883a 	mov	r3,r5
 10040f4:	20c6b03a 	or	r3,r4,r3
 10040f8:	10c00205 	stb	r3,8(r2)
 10040fc:	e0fffc17 	ldw	r3,-16(fp)
 1004100:	1806d23a 	srli	r3,r3,8
 1004104:	19403fcc 	andi	r5,r3,255
 1004108:	10c00243 	ldbu	r3,9(r2)
 100410c:	1806703a 	and	r3,r3,zero
 1004110:	1809883a 	mov	r4,r3
 1004114:	2807883a 	mov	r3,r5
 1004118:	20c6b03a 	or	r3,r4,r3
 100411c:	10c00245 	stb	r3,9(r2)
 1004120:	e0fffc17 	ldw	r3,-16(fp)
 1004124:	1806d43a 	srli	r3,r3,16
 1004128:	19403fcc 	andi	r5,r3,255
 100412c:	10c00283 	ldbu	r3,10(r2)
 1004130:	1806703a 	and	r3,r3,zero
 1004134:	1809883a 	mov	r4,r3
 1004138:	2807883a 	mov	r3,r5
 100413c:	20c6b03a 	or	r3,r4,r3
 1004140:	10c00285 	stb	r3,10(r2)
 1004144:	e0fffc17 	ldw	r3,-16(fp)
 1004148:	180ad63a 	srli	r5,r3,24
 100414c:	10c002c3 	ldbu	r3,11(r2)
 1004150:	1806703a 	and	r3,r3,zero
 1004154:	1809883a 	mov	r4,r3
 1004158:	2807883a 	mov	r3,r5
 100415c:	20c6b03a 	or	r3,r4,r3
 1004160:	10c002c5 	stb	r3,11(r2)
  desc->next                     = (alt_u32 *) next;
 1004164:	e0bfff17 	ldw	r2,-4(fp)
 1004168:	e0fffe17 	ldw	r3,-8(fp)
 100416c:	19403fcc 	andi	r5,r3,255
 1004170:	10c00403 	ldbu	r3,16(r2)
 1004174:	1806703a 	and	r3,r3,zero
 1004178:	1809883a 	mov	r4,r3
 100417c:	2807883a 	mov	r3,r5
 1004180:	20c6b03a 	or	r3,r4,r3
 1004184:	10c00405 	stb	r3,16(r2)
 1004188:	e0fffe17 	ldw	r3,-8(fp)
 100418c:	1806d23a 	srli	r3,r3,8
 1004190:	19403fcc 	andi	r5,r3,255
 1004194:	10c00443 	ldbu	r3,17(r2)
 1004198:	1806703a 	and	r3,r3,zero
 100419c:	1809883a 	mov	r4,r3
 10041a0:	2807883a 	mov	r3,r5
 10041a4:	20c6b03a 	or	r3,r4,r3
 10041a8:	10c00445 	stb	r3,17(r2)
 10041ac:	e0fffe17 	ldw	r3,-8(fp)
 10041b0:	1806d43a 	srli	r3,r3,16
 10041b4:	19403fcc 	andi	r5,r3,255
 10041b8:	10c00483 	ldbu	r3,18(r2)
 10041bc:	1806703a 	and	r3,r3,zero
 10041c0:	1809883a 	mov	r4,r3
 10041c4:	2807883a 	mov	r3,r5
 10041c8:	20c6b03a 	or	r3,r4,r3
 10041cc:	10c00485 	stb	r3,18(r2)
 10041d0:	e0fffe17 	ldw	r3,-8(fp)
 10041d4:	180ad63a 	srli	r5,r3,24
 10041d8:	10c004c3 	ldbu	r3,19(r2)
 10041dc:	1806703a 	and	r3,r3,zero
 10041e0:	1809883a 	mov	r4,r3
 10041e4:	2807883a 	mov	r3,r5
 10041e8:	20c6b03a 	or	r3,r4,r3
 10041ec:	10c004c5 	stb	r3,19(r2)
  desc->read_addr_pad            = 0x0;
 10041f0:	e0bfff17 	ldw	r2,-4(fp)
 10041f4:	10c00103 	ldbu	r3,4(r2)
 10041f8:	1806703a 	and	r3,r3,zero
 10041fc:	10c00105 	stb	r3,4(r2)
 1004200:	10c00143 	ldbu	r3,5(r2)
 1004204:	1806703a 	and	r3,r3,zero
 1004208:	10c00145 	stb	r3,5(r2)
 100420c:	10c00183 	ldbu	r3,6(r2)
 1004210:	1806703a 	and	r3,r3,zero
 1004214:	10c00185 	stb	r3,6(r2)
 1004218:	10c001c3 	ldbu	r3,7(r2)
 100421c:	1806703a 	and	r3,r3,zero
 1004220:	10c001c5 	stb	r3,7(r2)
  desc->write_addr_pad           = 0x0;
 1004224:	e0bfff17 	ldw	r2,-4(fp)
 1004228:	10c00303 	ldbu	r3,12(r2)
 100422c:	1806703a 	and	r3,r3,zero
 1004230:	10c00305 	stb	r3,12(r2)
 1004234:	10c00343 	ldbu	r3,13(r2)
 1004238:	1806703a 	and	r3,r3,zero
 100423c:	10c00345 	stb	r3,13(r2)
 1004240:	10c00383 	ldbu	r3,14(r2)
 1004244:	1806703a 	and	r3,r3,zero
 1004248:	10c00385 	stb	r3,14(r2)
 100424c:	10c003c3 	ldbu	r3,15(r2)
 1004250:	1806703a 	and	r3,r3,zero
 1004254:	10c003c5 	stb	r3,15(r2)
  desc->next_pad                 = 0x0;
 1004258:	e0bfff17 	ldw	r2,-4(fp)
 100425c:	10c00503 	ldbu	r3,20(r2)
 1004260:	1806703a 	and	r3,r3,zero
 1004264:	10c00505 	stb	r3,20(r2)
 1004268:	10c00543 	ldbu	r3,21(r2)
 100426c:	1806703a 	and	r3,r3,zero
 1004270:	10c00545 	stb	r3,21(r2)
 1004274:	10c00583 	ldbu	r3,22(r2)
 1004278:	1806703a 	and	r3,r3,zero
 100427c:	10c00585 	stb	r3,22(r2)
 1004280:	10c005c3 	ldbu	r3,23(r2)
 1004284:	1806703a 	and	r3,r3,zero
 1004288:	10c005c5 	stb	r3,23(r2)
  desc->bytes_to_transfer        = length_or_eop;
 100428c:	e0bfff17 	ldw	r2,-4(fp)
 1004290:	e0fffb17 	ldw	r3,-20(fp)
 1004294:	19403fcc 	andi	r5,r3,255
 1004298:	10c00603 	ldbu	r3,24(r2)
 100429c:	1806703a 	and	r3,r3,zero
 10042a0:	1809883a 	mov	r4,r3
 10042a4:	2807883a 	mov	r3,r5
 10042a8:	20c6b03a 	or	r3,r4,r3
 10042ac:	10c00605 	stb	r3,24(r2)
 10042b0:	e0fffb17 	ldw	r3,-20(fp)
 10042b4:	1806d23a 	srli	r3,r3,8
 10042b8:	19403fcc 	andi	r5,r3,255
 10042bc:	10c00643 	ldbu	r3,25(r2)
 10042c0:	1806703a 	and	r3,r3,zero
 10042c4:	1809883a 	mov	r4,r3
 10042c8:	2807883a 	mov	r3,r5
 10042cc:	20c6b03a 	or	r3,r4,r3
 10042d0:	10c00645 	stb	r3,25(r2)
  desc->actual_bytes_transferred = 0;
 10042d4:	e0bfff17 	ldw	r2,-4(fp)
 10042d8:	10c00703 	ldbu	r3,28(r2)
 10042dc:	1806703a 	and	r3,r3,zero
 10042e0:	10c00705 	stb	r3,28(r2)
 10042e4:	10c00743 	ldbu	r3,29(r2)
 10042e8:	1806703a 	and	r3,r3,zero
 10042ec:	10c00745 	stb	r3,29(r2)
  desc->status                   = 0x0;
 10042f0:	e0bfff17 	ldw	r2,-4(fp)
 10042f4:	10000785 	stb	zero,30(r2)

  /* SGDMA burst not currently supported */
  desc->read_burst               = read_burst;
 10042f8:	e0800617 	ldw	r2,24(fp)
 10042fc:	1007883a 	mov	r3,r2
 1004300:	e0bfff17 	ldw	r2,-4(fp)
 1004304:	10c00685 	stb	r3,26(r2)
  desc->write_burst              = write_burst;
 1004308:	e0800717 	ldw	r2,28(fp)
 100430c:	1007883a 	mov	r3,r2
 1004310:	e0bfff17 	ldw	r2,-4(fp)
 1004314:	10c006c5 	stb	r3,27(r2)
   * bit) until all other descriptor information has been set up.
   */
  desc->control = (
    (ALTERA_AVALON_SGDMA_DESCRIPTOR_CONTROL_OWNED_BY_HW_MSK)                 |
    (generate_eop ?
       ALTERA_AVALON_SGDMA_DESCRIPTOR_CONTROL_GENERATE_EOP_MSK : 0x0)        |
 1004318:	e0800317 	ldw	r2,12(fp)
 100431c:	10000226 	beq	r2,zero,1004328 <alt_avalon_sgdma_construct_descriptor_burst+0x32c>
 1004320:	00bfe044 	movi	r2,-127
 1004324:	00000106 	br	100432c <alt_avalon_sgdma_construct_descriptor_burst+0x330>
 1004328:	00bfe004 	movi	r2,-128
 100432c:	e0c00417 	ldw	r3,16(fp)
 1004330:	18000226 	beq	r3,zero,100433c <alt_avalon_sgdma_construct_descriptor_burst+0x340>
 1004334:	00c00084 	movi	r3,2
 1004338:	00000106 	br	1004340 <alt_avalon_sgdma_construct_descriptor_burst+0x344>
 100433c:	0007883a 	mov	r3,zero
 1004340:	10c4b03a 	or	r2,r2,r3
 1004344:	1007883a 	mov	r3,r2
    (read_fixed ?
       ALTERA_AVALON_SGDMA_DESCRIPTOR_CONTROL_READ_FIXED_ADDRESS_MSK : 0x0)  |
 1004348:	e0800517 	ldw	r2,20(fp)
 100434c:	10000226 	beq	r2,zero,1004358 <alt_avalon_sgdma_construct_descriptor_burst+0x35c>
 1004350:	00800104 	movi	r2,4
 1004354:	00000106 	br	100435c <alt_avalon_sgdma_construct_descriptor_burst+0x360>
 1004358:	0005883a 	mov	r2,zero
 100435c:	10c4b03a 	or	r2,r2,r3
 1004360:	1007883a 	mov	r3,r2
    (write_fixed_or_sop ?
       ALTERA_AVALON_SGDMA_DESCRIPTOR_CONTROL_WRITE_FIXED_ADDRESS_MSK : 0x0) |
 1004364:	e0bffa03 	ldbu	r2,-24(fp)
 1004368:	10000426 	beq	r2,zero,100437c <alt_avalon_sgdma_construct_descriptor_burst+0x380>
    (atlantic_channel ? ( (atlantic_channel & 0x0F) << 3) : 0)
 100436c:	e0bffa03 	ldbu	r2,-24(fp)
 1004370:	100490fa 	slli	r2,r2,3
       ALTERA_AVALON_SGDMA_DESCRIPTOR_CONTROL_WRITE_FIXED_ADDRESS_MSK : 0x0) |
 1004374:	10801e0c 	andi	r2,r2,120
 1004378:	00000106 	br	1004380 <alt_avalon_sgdma_construct_descriptor_burst+0x384>
 100437c:	0005883a 	mov	r2,zero
 1004380:	10c4b03a 	or	r2,r2,r3
 1004384:	1007883a 	mov	r3,r2
  desc->control = (
 1004388:	e0bfff17 	ldw	r2,-4(fp)
 100438c:	10c007c5 	stb	r3,31(r2)
  /*
   * Flush completed buffer out of cache. This is done rather than
   * individual cache-bypassed writes to take advantage of any
   * burst-capabilities in the memory we're writing to.
   */
  alt_dcache_flush(desc, sizeof(alt_sgdma_descriptor));
 1004390:	01400804 	movi	r5,32
 1004394:	e13fff17 	ldw	r4,-4(fp)
 1004398:	10096900 	call	1009690 <alt_dcache_flush>
}
 100439c:	0001883a 	nop
 10043a0:	e037883a 	mov	sp,fp
 10043a4:	dfc00117 	ldw	ra,4(sp)
 10043a8:	df000017 	ldw	fp,0(sp)
 10043ac:	dec00204 	addi	sp,sp,8
 10043b0:	f800283a 	ret

010043b4 <alt_avalon_sgdma_irq>:
#ifdef ALT_ENHANCED_INTERRUPT_API_PRESENT
static void alt_avalon_sgdma_irq(void *context)
#else
static void alt_avalon_sgdma_irq(void *context, alt_u32 id)
#endif
{
 10043b4:	defff904 	addi	sp,sp,-28
 10043b8:	dfc00615 	stw	ra,24(sp)
 10043bc:	df000515 	stw	fp,20(sp)
 10043c0:	df000504 	addi	fp,sp,20
 10043c4:	e13ffb15 	stw	r4,-20(fp)
  alt_sgdma_dev *dev = (alt_sgdma_dev *) context;
 10043c8:	e0bffb17 	ldw	r2,-20(fp)
 10043cc:	e0bfff15 	stw	r2,-4(fp)
   * Note: This is explicitly done before calling user interrupt-handling
   * code rather than after; if user ISR code initiates another SGDMA
   * transfer which completes quickly, reading the control register after
   * the callback routine may result in a lost interrupt.
   */
  IOWR_ALTERA_AVALON_SGDMA_CONTROL(dev->base, 
 10043d0:	e0bfff17 	ldw	r2,-4(fp)
 10043d4:	10800317 	ldw	r2,12(r2)
 10043d8:	10800404 	addi	r2,r2,16
 10043dc:	e0ffff17 	ldw	r3,-4(fp)
 10043e0:	18c00317 	ldw	r3,12(r3)
 10043e4:	18c00404 	addi	r3,r3,16
 10043e8:	18c00037 	ldwio	r3,0(r3)
 10043ec:	18e00034 	orhi	r3,r3,32768
 10043f0:	10c00035 	stwio	r3,0(r2)
    IORD_ALTERA_AVALON_SGDMA_CONTROL(dev->base) | 0x80000000);
  
  /* Dummy read to ensure IRQ is negated before the ISR returns */
  IORD_ALTERA_AVALON_SGDMA_CONTROL(dev->base);
 10043f4:	e0bfff17 	ldw	r2,-4(fp)
 10043f8:	10800317 	ldw	r2,12(r2)
 10043fc:	10800404 	addi	r2,r2,16
 1004400:	10800037 	ldwio	r2,0(r2)
   * Other interrupts are explicitly disabled if callbacks
   * are registered because there is no guarantee that they are 
   * preemption-safe. This allows the driver to support 
   * interrupt preemption.
   */
  if(dev->callback) {
 1004404:	e0bfff17 	ldw	r2,-4(fp)
 1004408:	10800917 	ldw	r2,36(r2)
 100440c:	10001226 	beq	r2,zero,1004458 <alt_avalon_sgdma_irq+0xa4>
  NIOS2_READ_STATUS (context);
 1004410:	0005303a 	rdctl	r2,status
 1004414:	e0bffc15 	stw	r2,-16(fp)
  NIOS2_WRITE_STATUS (context & ~NIOS2_STATUS_PIE_MSK);
 1004418:	e0fffc17 	ldw	r3,-16(fp)
 100441c:	00bfff84 	movi	r2,-2
 1004420:	1884703a 	and	r2,r3,r2
 1004424:	1001703a 	wrctl	status,r2
  return context;
 1004428:	e0bffc17 	ldw	r2,-16(fp)
    cpu_sr = alt_irq_disable_all();
 100442c:	e0bffe15 	stw	r2,-8(fp)
    (dev->callback)(dev->callback_context);
 1004430:	e0bfff17 	ldw	r2,-4(fp)
 1004434:	10800917 	ldw	r2,36(r2)
 1004438:	e0ffff17 	ldw	r3,-4(fp)
 100443c:	18c00a17 	ldw	r3,40(r3)
 1004440:	1809883a 	mov	r4,r3
 1004444:	103ee83a 	callr	r2
 1004448:	e0bffe17 	ldw	r2,-8(fp)
 100444c:	e0bffd15 	stw	r2,-12(fp)
  NIOS2_WRITE_STATUS (context);
 1004450:	e0bffd17 	ldw	r2,-12(fp)
 1004454:	1001703a 	wrctl	status,r2
    alt_irq_enable_all(cpu_sr);
  }
}
 1004458:	0001883a 	nop
 100445c:	e037883a 	mov	sp,fp
 1004460:	dfc00117 	ldw	ra,4(sp)
 1004464:	df000017 	ldw	fp,0(sp)
 1004468:	dec00204 	addi	sp,sp,8
 100446c:	f800283a 	ret

01004470 <alt_avalon_sgdma_init>:
 * This routine disables interrupts, future descriptor processing,
 * registers a specific instance of the device with the HAL,
 * and installs an interrupt handler for the device.
 */
void alt_avalon_sgdma_init (alt_sgdma_dev *dev, alt_u32 ic_id, alt_u32 irq)
{
 1004470:	defffa04 	addi	sp,sp,-24
 1004474:	dfc00515 	stw	ra,20(sp)
 1004478:	df000415 	stw	fp,16(sp)
 100447c:	df000404 	addi	fp,sp,16
 1004480:	e13fff15 	stw	r4,-4(fp)
 1004484:	e17ffe15 	stw	r5,-8(fp)
 1004488:	e1bffd15 	stw	r6,-12(fp)

  /* 
   * Halt any current transactions (reset the device)
   * SW reset is written twice per SGDMA documentation 
   */
  IOWR_ALTERA_AVALON_SGDMA_CONTROL(dev->base,
 100448c:	e0bfff17 	ldw	r2,-4(fp)
 1004490:	10800317 	ldw	r2,12(r2)
 1004494:	10800404 	addi	r2,r2,16
 1004498:	00c00074 	movhi	r3,1
 100449c:	10c00035 	stwio	r3,0(r2)
    ALTERA_AVALON_SGDMA_CONTROL_SOFTWARERESET_MSK);
  IOWR_ALTERA_AVALON_SGDMA_CONTROL(dev->base,
 10044a0:	e0bfff17 	ldw	r2,-4(fp)
 10044a4:	10800317 	ldw	r2,12(r2)
 10044a8:	10800404 	addi	r2,r2,16
 10044ac:	00c00074 	movhi	r3,1
 10044b0:	10c00035 	stwio	r3,0(r2)

  /*
   * Disable interrupts, halt future descriptor processing,
   * and clear status register content
   */
  IOWR_ALTERA_AVALON_SGDMA_CONTROL(dev->base, 0x0);
 10044b4:	e0bfff17 	ldw	r2,-4(fp)
 10044b8:	10800317 	ldw	r2,12(r2)
 10044bc:	10800404 	addi	r2,r2,16
 10044c0:	0007883a 	mov	r3,zero
 10044c4:	10c00035 	stwio	r3,0(r2)
  IOWR_ALTERA_AVALON_SGDMA_STATUS(dev->base, 0xFF);
 10044c8:	e0bfff17 	ldw	r2,-4(fp)
 10044cc:	10800317 	ldw	r2,12(r2)
 10044d0:	00c03fc4 	movi	r3,255
 10044d4:	10c00035 	stwio	r3,0(r2)

  /* Register this instance of the SGDMA controller with HAL */
  alt_dev_llist_insert((alt_dev_llist*) dev, &alt_sgdma_list);
 10044d8:	d1600304 	addi	r5,gp,-32756
 10044dc:	e13fff17 	ldw	r4,-4(fp)
 10044e0:	10097200 	call	1009720 <alt_dev_llist_insert>

  /* Install IRQ handler */
#ifdef ALT_ENHANCED_INTERRUPT_API_PRESENT
  alt_ic_isr_register(ic_id, irq, alt_avalon_sgdma_irq, dev, 0x0);
 10044e4:	d8000015 	stw	zero,0(sp)
 10044e8:	e1ffff17 	ldw	r7,-4(fp)
 10044ec:	01804034 	movhi	r6,256
 10044f0:	3190ed04 	addi	r6,r6,17332
 10044f4:	e17ffd17 	ldw	r5,-12(fp)
 10044f8:	e13ffe17 	ldw	r4,-8(fp)
 10044fc:	10099340 	call	1009934 <alt_ic_isr_register>
#else
  alt_irq_register(irq, dev, alt_avalon_sgdma_irq);
#endif  
}
 1004500:	0001883a 	nop
 1004504:	e037883a 	mov	sp,fp
 1004508:	dfc00117 	ldw	ra,4(sp)
 100450c:	df000017 	ldw	fp,0(sp)
 1004510:	dec00204 	addi	sp,sp,8
 1004514:	f800283a 	ret

01004518 <alt_avalon_timer_sc_irq>:
#ifdef ALT_ENHANCED_INTERRUPT_API_PRESENT
static void alt_avalon_timer_sc_irq (void* base)
#else
static void alt_avalon_timer_sc_irq (void* base, alt_u32 id)
#endif
{
 1004518:	defffa04 	addi	sp,sp,-24
 100451c:	dfc00515 	stw	ra,20(sp)
 1004520:	df000415 	stw	fp,16(sp)
 1004524:	df000404 	addi	fp,sp,16
 1004528:	e13ffc15 	stw	r4,-16(fp)
  alt_irq_context cpu_sr;
  
  /* clear the interrupt */
  IOWR_ALTERA_AVALON_TIMER_STATUS (base, 0);
 100452c:	0007883a 	mov	r3,zero
 1004530:	e0bffc17 	ldw	r2,-16(fp)
 1004534:	10c00035 	stwio	r3,0(r2)
  /* 
   * Dummy read to ensure IRQ is negated before the ISR returns.
   * The control register is read because reading the status
   * register has side-effects per the register map documentation.
   */
  IORD_ALTERA_AVALON_TIMER_CONTROL (base);
 1004538:	e0bffc17 	ldw	r2,-16(fp)
 100453c:	10800104 	addi	r2,r2,4
 1004540:	10800037 	ldwio	r2,0(r2)
  NIOS2_READ_STATUS (context);
 1004544:	0005303a 	rdctl	r2,status
 1004548:	e0bffd15 	stw	r2,-12(fp)
  NIOS2_WRITE_STATUS (context & ~NIOS2_STATUS_PIE_MSK);
 100454c:	e0fffd17 	ldw	r3,-12(fp)
 1004550:	00bfff84 	movi	r2,-2
 1004554:	1884703a 	and	r2,r3,r2
 1004558:	1001703a 	wrctl	status,r2
  return context;
 100455c:	e0bffd17 	ldw	r2,-12(fp)

  /* 
   * Notify the system of a clock tick. disable interrupts 
   * during this time to safely support ISR preemption
   */
  cpu_sr = alt_irq_disable_all();
 1004560:	e0bfff15 	stw	r2,-4(fp)
  alt_tick ();
 1004564:	100a09c0 	call	100a09c <alt_tick>
 1004568:	e0bfff17 	ldw	r2,-4(fp)
 100456c:	e0bffe15 	stw	r2,-8(fp)
  NIOS2_WRITE_STATUS (context);
 1004570:	e0bffe17 	ldw	r2,-8(fp)
 1004574:	1001703a 	wrctl	status,r2
  alt_irq_enable_all(cpu_sr);
}
 1004578:	0001883a 	nop
 100457c:	e037883a 	mov	sp,fp
 1004580:	dfc00117 	ldw	ra,4(sp)
 1004584:	df000017 	ldw	fp,0(sp)
 1004588:	dec00204 	addi	sp,sp,8
 100458c:	f800283a 	ret

01004590 <alt_avalon_timer_sc_init>:
 * auto-generated alt_sys_init() function.
 */

void alt_avalon_timer_sc_init (void* base, alt_u32 irq_controller_id, 
                                alt_u32 irq, alt_u32 freq)
{
 1004590:	defff804 	addi	sp,sp,-32
 1004594:	dfc00715 	stw	ra,28(sp)
 1004598:	df000615 	stw	fp,24(sp)
 100459c:	df000604 	addi	fp,sp,24
 10045a0:	e13ffe15 	stw	r4,-8(fp)
 10045a4:	e17ffd15 	stw	r5,-12(fp)
 10045a8:	e1bffc15 	stw	r6,-16(fp)
 10045ac:	e1fffb15 	stw	r7,-20(fp)
 10045b0:	e0bffb17 	ldw	r2,-20(fp)
 10045b4:	e0bfff15 	stw	r2,-4(fp)
 * in order to initialise the value of the clock frequency.
 */

static ALT_INLINE int ALT_ALWAYS_INLINE alt_sysclk_init (alt_u32 nticks)
{
  if (! _alt_tick_rate)
 10045b8:	d0a0f417 	ldw	r2,-31792(gp)
 10045bc:	1000021e 	bne	r2,zero,10045c8 <alt_avalon_timer_sc_init+0x38>
  {
    _alt_tick_rate = nticks;
 10045c0:	e0bfff17 	ldw	r2,-4(fp)
 10045c4:	d0a0f415 	stw	r2,-31792(gp)
  
  alt_sysclk_init (freq);
  
  /* set to free running mode */
  
  IOWR_ALTERA_AVALON_TIMER_CONTROL (base, 
 10045c8:	e0bffe17 	ldw	r2,-8(fp)
 10045cc:	10800104 	addi	r2,r2,4
 10045d0:	00c001c4 	movi	r3,7
 10045d4:	10c00035 	stwio	r3,0(r2)
            ALTERA_AVALON_TIMER_CONTROL_CONT_MSK |
            ALTERA_AVALON_TIMER_CONTROL_START_MSK);

  /* register the interrupt handler, and enable the interrupt */
#ifdef ALT_ENHANCED_INTERRUPT_API_PRESENT
  alt_ic_isr_register(irq_controller_id, irq, alt_avalon_timer_sc_irq, 
 10045d8:	d8000015 	stw	zero,0(sp)
 10045dc:	e1fffe17 	ldw	r7,-8(fp)
 10045e0:	01804034 	movhi	r6,256
 10045e4:	31914604 	addi	r6,r6,17688
 10045e8:	e17ffc17 	ldw	r5,-16(fp)
 10045ec:	e13ffd17 	ldw	r4,-12(fp)
 10045f0:	10099340 	call	1009934 <alt_ic_isr_register>
                      base, NULL);
#else
  alt_irq_register (irq, base, alt_avalon_timer_sc_irq);
#endif  
}
 10045f4:	0001883a 	nop
 10045f8:	e037883a 	mov	sp,fp
 10045fc:	dfc00117 	ldw	ra,4(sp)
 1004600:	df000017 	ldw	fp,0(sp)
 1004604:	dec00204 	addi	sp,sp,8
 1004608:	f800283a 	ret

0100460c <no_printf>:
#include <stdio.h>
#include <stdlib.h>
#include <string.h>
#include <unistd.h>

void no_printf (char *fmt, ...) {}
 100460c:	defffb04 	addi	sp,sp,-20
 1004610:	df000115 	stw	fp,4(sp)
 1004614:	df000104 	addi	fp,sp,4
 1004618:	e13fff15 	stw	r4,-4(fp)
 100461c:	e1400115 	stw	r5,4(fp)
 1004620:	e1800215 	stw	r6,8(fp)
 1004624:	e1c00315 	stw	r7,12(fp)
 1004628:	0001883a 	nop
 100462c:	e037883a 	mov	sp,fp
 1004630:	df000017 	ldw	fp,0(sp)
 1004634:	dec00404 	addi	sp,sp,16
 1004638:	f800283a 	ret

0100463c <tse_mac_SwReset>:
 *                        COMMAND_CONFIG register is restored after reset.
 * @API Type:   Public
 * @param pmac  Pointer to the TSE MAC Control Interface Base address 
*/
alt_32 tse_mac_SwReset(np_tse_mac *pmac) 
{
 100463c:	defffc04 	addi	sp,sp,-16
 1004640:	df000315 	stw	fp,12(sp)
 1004644:	df000304 	addi	fp,sp,12
 1004648:	e13ffd15 	stw	r4,-12(fp)
    alt_32 timeout;
    alt_32 cc;
        
    cc = IORD_ALTERA_TSEMAC_CMD_CONFIG(pmac);
 100464c:	e0bffd17 	ldw	r2,-12(fp)
 1004650:	10800204 	addi	r2,r2,8
 1004654:	10800037 	ldwio	r2,0(r2)
 1004658:	e0bffe15 	stw	r2,-8(fp)
    
    // set reset and Gig-Speed bits to make sure we have an incoming clock on
    // tx side. If there is a 10/100 PHY, we will still have a valid clock on
    // tx_clk no matter what setting we have here, but on a Gig phy the
    // MII clock may be missing.
    IOWR_ALTERA_TSEMAC_CMD_CONFIG(pmac,(ALTERA_TSEMAC_CMD_SW_RESET_MSK | ALTERA_TSEMAC_CMD_ETH_SPEED_MSK));
 100465c:	e0bffd17 	ldw	r2,-12(fp)
 1004660:	10800204 	addi	r2,r2,8
 1004664:	00c80204 	movi	r3,8200
 1004668:	10c00035 	stwio	r3,0(r2)

    
    // wait for completion with fallback in case there is no PHY or it is
    // not connected and hence might not provide any clocks at all.
    timeout=0;
 100466c:	e03fff15 	stw	zero,-4(fp)
    while( (IORD_ALTERA_TSEMAC_CMD_CONFIG(pmac) & ALTERA_TSEMAC_CMD_SW_RESET_MSK) != 0 && timeout < ALTERA_TSE_SW_RESET_TIME_OUT_CNT) timeout++;
 1004670:	00000306 	br	1004680 <tse_mac_SwReset+0x44>
 1004674:	e0bfff17 	ldw	r2,-4(fp)
 1004678:	10800044 	addi	r2,r2,1
 100467c:	e0bfff15 	stw	r2,-4(fp)
 1004680:	e0bffd17 	ldw	r2,-12(fp)
 1004684:	10800204 	addi	r2,r2,8
 1004688:	10800037 	ldwio	r2,0(r2)
 100468c:	1088000c 	andi	r2,r2,8192
 1004690:	10000326 	beq	r2,zero,10046a0 <tse_mac_SwReset+0x64>
 1004694:	e0bfff17 	ldw	r2,-4(fp)
 1004698:	1089c410 	cmplti	r2,r2,10000
 100469c:	103ff51e 	bne	r2,zero,1004674 <tse_mac_SwReset+0x38>
   
    IOWR_ALTERA_TSEMAC_CMD_CONFIG(pmac,cc); // Restore
 10046a0:	e0bffd17 	ldw	r2,-12(fp)
 10046a4:	10800204 	addi	r2,r2,8
 10046a8:	e0fffe17 	ldw	r3,-8(fp)
 10046ac:	10c00035 	stwio	r3,0(r2)
    return SUCCESS;
 10046b0:	0005883a 	mov	r2,zero
}
 10046b4:	e037883a 	mov	sp,fp
 10046b8:	df000017 	ldw	fp,0(sp)
 10046bc:	dec00104 	addi	sp,sp,4
 10046c0:	f800283a 	ret

010046c4 <tse_mac_setMIImode>:
 *                        COMMAND_CONFIG register is restored after reset.
 * @API Type:   Public
 * @param pmac  Pointer to the TSE MAC Control Interface Base address 
*/
alt_32 tse_mac_setMIImode(np_tse_mac *pmac)
{
 10046c4:	defffd04 	addi	sp,sp,-12
 10046c8:	df000215 	stw	fp,8(sp)
 10046cc:	df000204 	addi	fp,sp,8
 10046d0:	e13ffe15 	stw	r4,-8(fp)
  alt_32 helpvar;
  
  helpvar = IORD_ALTERA_TSEMAC_CMD_CONFIG(pmac);
 10046d4:	e0bffe17 	ldw	r2,-8(fp)
 10046d8:	10800204 	addi	r2,r2,8
 10046dc:	10800037 	ldwio	r2,0(r2)
 10046e0:	e0bfff15 	stw	r2,-4(fp)
  helpvar &= ~ALTERA_TSEMAC_CMD_ETH_SPEED_MSK; 
 10046e4:	e0ffff17 	ldw	r3,-4(fp)
 10046e8:	00bffdc4 	movi	r2,-9
 10046ec:	1884703a 	and	r2,r3,r2
 10046f0:	e0bfff15 	stw	r2,-4(fp)
  
  IOWR_ALTERA_TSEMAC_CMD_CONFIG(pmac,helpvar);
 10046f4:	e0bffe17 	ldw	r2,-8(fp)
 10046f8:	10800204 	addi	r2,r2,8
 10046fc:	e0ffff17 	ldw	r3,-4(fp)
 1004700:	10c00035 	stwio	r3,0(r2)
  return SUCCESS;
 1004704:	0005883a 	mov	r2,zero
}
 1004708:	e037883a 	mov	sp,fp
 100470c:	df000017 	ldw	fp,0(sp)
 1004710:	dec00104 	addi	sp,sp,4
 1004714:	f800283a 	ret

01004718 <tse_mac_setGMIImode>:
 *                        COMMAND_CONFIG register is restored after reset.
 * @API Type:   Public
 * @param pmac  Pointer to the TSE MAC Control Interface Base address 
 */
alt_32 tse_mac_setGMIImode(np_tse_mac *pmac)
{
 1004718:	defffd04 	addi	sp,sp,-12
 100471c:	df000215 	stw	fp,8(sp)
 1004720:	df000204 	addi	fp,sp,8
 1004724:	e13ffe15 	stw	r4,-8(fp)
  alt_32 helpvar;
  
  helpvar = IORD_ALTERA_TSEMAC_CMD_CONFIG(pmac);
 1004728:	e0bffe17 	ldw	r2,-8(fp)
 100472c:	10800204 	addi	r2,r2,8
 1004730:	10800037 	ldwio	r2,0(r2)
 1004734:	e0bfff15 	stw	r2,-4(fp)
  helpvar |= ALTERA_TSEMAC_CMD_ETH_SPEED_MSK;
 1004738:	e0bfff17 	ldw	r2,-4(fp)
 100473c:	10800214 	ori	r2,r2,8
 1004740:	e0bfff15 	stw	r2,-4(fp)

  IOWR_ALTERA_TSEMAC_CMD_CONFIG(pmac,helpvar);
 1004744:	e0bffe17 	ldw	r2,-8(fp)
 1004748:	10800204 	addi	r2,r2,8
 100474c:	e0ffff17 	ldw	r3,-4(fp)
 1004750:	10c00035 	stwio	r3,0(r2)
  return SUCCESS;
 1004754:	0005883a 	mov	r2,zero
}
 1004758:	e037883a 	mov	sp,fp
 100475c:	df000017 	ldw	fp,0(sp)
 1004760:	dec00104 	addi	sp,sp,4
 1004764:	f800283a 	ret

01004768 <alt_tse_phy_add_profile>:
 * @param  phy  pointer to alt_tse_phy_profile structure describing PHY registers
 * @return      index of PHY added in PHY profile on success, else return ALTERA_TSE_MALLOC_FAILED if memory allocation failed
 * PHY which are currently supported by default :  Marvell 88E1111, Marvell Quad PHY 88E1145, National DP83865, and National DP83848C
 */
alt_32 alt_tse_phy_add_profile(alt_tse_phy_profile *phy)
{
 1004768:	defffb04 	addi	sp,sp,-20
 100476c:	dfc00415 	stw	ra,16(sp)
 1004770:	df000315 	stw	fp,12(sp)
 1004774:	dc000215 	stw	r16,8(sp)
 1004778:	df000304 	addi	fp,sp,12
 100477c:	e13ffd15 	stw	r4,-12(fp)
    alt_32 i;
    
    /* search PHY profile for same ID */
    for(i = 0; i < phy_profile_count; i++)
 1004780:	e03ffe15 	stw	zero,-8(fp)
 1004784:	00002506 	br	100481c <alt_tse_phy_add_profile+0xb4>
    {
        if(pphy_profiles[i]->oui == phy->oui && pphy_profiles[i]->model_number == phy->model_number)
 1004788:	e0bffe17 	ldw	r2,-8(fp)
 100478c:	100690ba 	slli	r3,r2,2
 1004790:	00804074 	movhi	r2,257
 1004794:	1885883a 	add	r2,r3,r2
 1004798:	10b9e017 	ldw	r2,-6272(r2)
 100479c:	10c01417 	ldw	r3,80(r2)
 10047a0:	e0bffd17 	ldw	r2,-12(fp)
 10047a4:	10801417 	ldw	r2,80(r2)
 10047a8:	1880191e 	bne	r3,r2,1004810 <alt_tse_phy_add_profile+0xa8>
 10047ac:	e0bffe17 	ldw	r2,-8(fp)
 10047b0:	100690ba 	slli	r3,r2,2
 10047b4:	00804074 	movhi	r2,257
 10047b8:	1885883a 	add	r2,r3,r2
 10047bc:	10b9e017 	ldw	r2,-6272(r2)
 10047c0:	10c01503 	ldbu	r3,84(r2)
 10047c4:	e0bffd17 	ldw	r2,-12(fp)
 10047c8:	10801503 	ldbu	r2,84(r2)
 10047cc:	18c03fcc 	andi	r3,r3,255
 10047d0:	10803fcc 	andi	r2,r2,255
 10047d4:	18800e1e 	bne	r3,r2,1004810 <alt_tse_phy_add_profile+0xa8>
        {
            tse_dprintf(4, "WARNING : PHY OUI 0x%06x, PHY Model Number 0x%02x already exist in PHY profile\n", (int) phy->oui, phy->model_number);
 10047d8:	e0bffd17 	ldw	r2,-12(fp)
 10047dc:	10801417 	ldw	r2,80(r2)
 10047e0:	1007883a 	mov	r3,r2
 10047e4:	e0bffd17 	ldw	r2,-12(fp)
 10047e8:	10801503 	ldbu	r2,84(r2)
 10047ec:	10803fcc 	andi	r2,r2,255
 10047f0:	100d883a 	mov	r6,r2
 10047f4:	180b883a 	mov	r5,r3
 10047f8:	01004074 	movhi	r4,257
 10047fc:	212d7504 	addi	r4,r4,-18988
 1004800:	100460c0 	call	100460c <no_printf>
            tse_dprintf(4, "In case of same PHY OUI and PHY Model Number in profile, first added PHY setting will be used\n");
 1004804:	01004074 	movhi	r4,257
 1004808:	212d8904 	addi	r4,r4,-18908
 100480c:	100460c0 	call	100460c <no_printf>
    for(i = 0; i < phy_profile_count; i++)
 1004810:	e0bffe17 	ldw	r2,-8(fp)
 1004814:	10800044 	addi	r2,r2,1
 1004818:	e0bffe15 	stw	r2,-8(fp)
 100481c:	d0a0f203 	ldbu	r2,-31800(gp)
 1004820:	10803fcc 	andi	r2,r2,255
 1004824:	e0fffe17 	ldw	r3,-8(fp)
 1004828:	18bfd716 	blt	r3,r2,1004788 <alt_tse_phy_add_profile+0x20>
        }
    }

    /* Allocate memory space to store the profile */    
    pphy_profiles[phy_profile_count] = (alt_tse_phy_profile *) malloc(sizeof(alt_tse_phy_profile));
 100482c:	d0a0f203 	ldbu	r2,-31800(gp)
 1004830:	14003fcc 	andi	r16,r2,255
 1004834:	01001904 	movi	r4,100
 1004838:	100a5dc0 	call	100a5dc <malloc>
 100483c:	1009883a 	mov	r4,r2
 1004840:	800690ba 	slli	r3,r16,2
 1004844:	00804074 	movhi	r2,257
 1004848:	1885883a 	add	r2,r3,r2
 100484c:	1139e015 	stw	r4,-6272(r2)
    if(!pphy_profiles[phy_profile_count]) {
 1004850:	d0a0f203 	ldbu	r2,-31800(gp)
 1004854:	10803fcc 	andi	r2,r2,255
 1004858:	100690ba 	slli	r3,r2,2
 100485c:	00804074 	movhi	r2,257
 1004860:	1885883a 	add	r2,r3,r2
 1004864:	10b9e017 	ldw	r2,-6272(r2)
 1004868:	1000081e 	bne	r2,zero,100488c <alt_tse_phy_add_profile+0x124>
        tse_dprintf(1, "ERROR   : Unable to allocate memory for pphy_profile[%d]\n", phy_profile_count);
 100486c:	d0a0f203 	ldbu	r2,-31800(gp)
 1004870:	10803fcc 	andi	r2,r2,255
 1004874:	100b883a 	mov	r5,r2
 1004878:	01004074 	movhi	r4,257
 100487c:	212da104 	addi	r4,r4,-18812
 1004880:	100460c0 	call	100460c <no_printf>
        return ALTERA_TSE_MALLOC_FAILED;
 1004884:	00bfffc4 	movi	r2,-1
 1004888:	00001e06 	br	1004904 <alt_tse_phy_add_profile+0x19c>
    }

    /* Store PHY information */
    *pphy_profiles[phy_profile_count] = *phy;
 100488c:	d0a0f203 	ldbu	r2,-31800(gp)
 1004890:	10803fcc 	andi	r2,r2,255
 1004894:	100690ba 	slli	r3,r2,2
 1004898:	00804074 	movhi	r2,257
 100489c:	1885883a 	add	r2,r3,r2
 10048a0:	10f9e017 	ldw	r3,-6272(r2)
 10048a4:	e0bffd17 	ldw	r2,-12(fp)
 10048a8:	1009883a 	mov	r4,r2
 10048ac:	00801904 	movi	r2,100
 10048b0:	100d883a 	mov	r6,r2
 10048b4:	200b883a 	mov	r5,r4
 10048b8:	1809883a 	mov	r4,r3
 10048bc:	10025e00 	call	10025e0 <memcpy>
    strcpy(pphy_profiles[phy_profile_count]->name, phy->name);
 10048c0:	d0a0f203 	ldbu	r2,-31800(gp)
 10048c4:	10803fcc 	andi	r2,r2,255
 10048c8:	100690ba 	slli	r3,r2,2
 10048cc:	00804074 	movhi	r2,257
 10048d0:	1885883a 	add	r2,r3,r2
 10048d4:	10b9e017 	ldw	r2,-6272(r2)
 10048d8:	1007883a 	mov	r3,r2
 10048dc:	e0bffd17 	ldw	r2,-12(fp)
 10048e0:	100b883a 	mov	r5,r2
 10048e4:	1809883a 	mov	r4,r3
 10048e8:	100a9040 	call	100a904 <strcpy>
    
    phy_profile_count++;
 10048ec:	d0a0f203 	ldbu	r2,-31800(gp)
 10048f0:	10800044 	addi	r2,r2,1
 10048f4:	d0a0f205 	stb	r2,-31800(gp)
    
    return phy_profile_count - 1;
 10048f8:	d0a0f203 	ldbu	r2,-31800(gp)
 10048fc:	10803fcc 	andi	r2,r2,255
 1004900:	10bfffc4 	addi	r2,r2,-1
}
 1004904:	e6ffff04 	addi	sp,fp,-4
 1004908:	dfc00217 	ldw	ra,8(sp)
 100490c:	df000117 	ldw	fp,4(sp)
 1004910:	dc000017 	ldw	r16,0(sp)
 1004914:	dec00304 	addi	sp,sp,12
 1004918:	f800283a 	ret

0100491c <alt_tse_system_add_sys>:
alt_32 alt_tse_system_add_sys(
    alt_tse_system_mac                    *psys_mac,
    alt_tse_system_msgdma                *psys_msgdma,
    alt_tse_system_desc_mem                *psys_mem,
    alt_tse_system_shared_fifo            *psys_shared_fifo,
    alt_tse_system_phy                     *psys_phy ) {
 100491c:	defff104 	addi	sp,sp,-60
 1004920:	dfc00e15 	stw	ra,56(sp)
 1004924:	df000d15 	stw	fp,52(sp)
 1004928:	dc400c15 	stw	r17,48(sp)
 100492c:	dc000b15 	stw	r16,44(sp)
 1004930:	df000d04 	addi	fp,sp,52
 1004934:	e13ff615 	stw	r4,-40(fp)
 1004938:	e17ff515 	stw	r5,-44(fp)
 100493c:	e1bff415 	stw	r6,-48(fp)
 1004940:	e1fff315 	stw	r7,-52(fp)

    int i;
    int loop_end;
    
    alt_tse_system_mac                    *pmac    = psys_mac;
 1004944:	e0bff617 	ldw	r2,-40(fp)
 1004948:	e0bff715 	stw	r2,-36(fp)
    alt_tse_system_msgdma                *pmsgdma    = psys_msgdma;
 100494c:	e0bff517 	ldw	r2,-44(fp)
 1004950:	e0bffb15 	stw	r2,-20(fp)
    alt_tse_system_desc_mem                *pmem    = psys_mem;
 1004954:	e0bff417 	ldw	r2,-48(fp)
 1004958:	e0bffa15 	stw	r2,-24(fp)
    alt_tse_system_shared_fifo            *pfifo    = psys_shared_fifo;
 100495c:	e0bff317 	ldw	r2,-52(fp)
 1004960:	e0bff915 	stw	r2,-28(fp)
    alt_tse_system_phy                     *pphy    = psys_phy;
 1004964:	e0800217 	ldw	r2,8(fp)
 1004968:	e0bff815 	stw	r2,-32(fp)
    
    static alt_8 tse_system_count = 0;
    
    /* Determine number of loop */
    /* Run at least one for non-multi-channel MAC */
    if(pmac->tse_num_of_channel == 0) {
 100496c:	e0bff717 	ldw	r2,-36(fp)
 1004970:	10800303 	ldbu	r2,12(r2)
 1004974:	10803fcc 	andi	r2,r2,255
 1004978:	1000031e 	bne	r2,zero,1004988 <alt_tse_system_add_sys+0x6c>
        loop_end = 1;
 100497c:	00800044 	movi	r2,1
 1004980:	e0bffc15 	stw	r2,-16(fp)
 1004984:	00000e06 	br	10049c0 <alt_tse_system_add_sys+0xa4>
    }
    else if(pmac->tse_num_of_channel > 0) {
 1004988:	e0bff717 	ldw	r2,-36(fp)
 100498c:	10800303 	ldbu	r2,12(r2)
 1004990:	10803fcc 	andi	r2,r2,255
 1004994:	10000526 	beq	r2,zero,10049ac <alt_tse_system_add_sys+0x90>
        loop_end = pmac->tse_num_of_channel; 
 1004998:	e0bff717 	ldw	r2,-36(fp)
 100499c:	10800303 	ldbu	r2,12(r2)
 10049a0:	10803fcc 	andi	r2,r2,255
 10049a4:	e0bffc15 	stw	r2,-16(fp)
 10049a8:	00000506 	br	10049c0 <alt_tse_system_add_sys+0xa4>
    }
    else {
        tse_dprintf(2, "ERROR   : Invalid number of channel specified!\n");
 10049ac:	01004074 	movhi	r4,257
 10049b0:	212db004 	addi	r4,r4,-18752
 10049b4:	100460c0 	call	100460c <no_printf>
        return ALTERA_TSE_SYSTEM_DEF_ERROR;
 10049b8:	00bfffc4 	movi	r2,-1
 10049bc:	00027e06 	br	10053b8 <alt_tse_system_add_sys+0xa9c>
    }

    for(i = 0; i < loop_end; i++) {
 10049c0:	e03ffd15 	stw	zero,-12(fp)
 10049c4:	00027806 	br	10053a8 <alt_tse_system_add_sys+0xa8c>
        
        /* Make sure the boundary of array is not exceeded */
        if(tse_system_count >= MAXNETS) {
 10049c8:	d0a0f283 	ldbu	r2,-31798(gp)
 10049cc:	10803fcc 	andi	r2,r2,255
 10049d0:	1080201c 	xori	r2,r2,128
 10049d4:	10bfe004 	addi	r2,r2,-128
 10049d8:	10800210 	cmplti	r2,r2,8
 10049dc:	10000c1e 	bne	r2,zero,1004a10 <alt_tse_system_add_sys+0xf4>
            tse_dprintf(2, "ERROR   : Number of TSE System added exceed the size of array!\n");
 10049e0:	01004074 	movhi	r4,257
 10049e4:	212dbc04 	addi	r4,r4,-18704
 10049e8:	100460c0 	call	100460c <no_printf>
            tse_dprintf(2, "ERROR   : Size of array = %d, Number of TSE System = %d\n", MAXNETS, tse_system_count);
 10049ec:	d0a0f283 	ldbu	r2,-31798(gp)
 10049f0:	10803fcc 	andi	r2,r2,255
 10049f4:	1080201c 	xori	r2,r2,128
 10049f8:	10bfe004 	addi	r2,r2,-128
 10049fc:	100d883a 	mov	r6,r2
 1004a00:	01400204 	movi	r5,8
 1004a04:	01004074 	movhi	r4,257
 1004a08:	212dcc04 	addi	r4,r4,-18640
 1004a0c:	100460c0 	call	100460c <no_printf>
        }

        /* Add MAC info to alt_tse_system_info structure */
        if(pmac == 0) {
 1004a10:	e0bff717 	ldw	r2,-36(fp)
 1004a14:	1000081e 	bne	r2,zero,1004a38 <alt_tse_system_add_sys+0x11c>
            tse_dprintf(2, "ERROR   : MAC system structure == NULL\n");
 1004a18:	01004074 	movhi	r4,257
 1004a1c:	212ddb04 	addi	r4,r4,-18580
 1004a20:	100460c0 	call	100460c <no_printf>
            tse_dprintf(2, "ERROR   : Please pass in correct pointer to alt_tse_system_add_sys()\n");
 1004a24:	01004074 	movhi	r4,257
 1004a28:	212de504 	addi	r4,r4,-18540
 1004a2c:	100460c0 	call	100460c <no_printf>
            return ALTERA_TSE_SYSTEM_DEF_ERROR;
 1004a30:	00bfffc4 	movi	r2,-1
 1004a34:	00026006 	br	10053b8 <alt_tse_system_add_sys+0xa9c>
        }        
        
        tse_mac_device[tse_system_count].tse_mac_base                     = pmac->tse_mac_base + (i * 0x400);
 1004a38:	e0bff717 	ldw	r2,-36(fp)
 1004a3c:	10800017 	ldw	r2,0(r2)
 1004a40:	e0fffd17 	ldw	r3,-12(fp)
 1004a44:	180692ba 	slli	r3,r3,10
 1004a48:	1809883a 	mov	r4,r3
 1004a4c:	d0e0f283 	ldbu	r3,-31798(gp)
 1004a50:	18c03fcc 	andi	r3,r3,255
 1004a54:	18c0201c 	xori	r3,r3,128
 1004a58:	18ffe004 	addi	r3,r3,-128
 1004a5c:	1121883a 	add	r16,r2,r4
 1004a60:	01401304 	movi	r5,76
 1004a64:	1809883a 	mov	r4,r3
 1004a68:	1002f140 	call	1002f14 <__mulsi3>
 1004a6c:	1007883a 	mov	r3,r2
 1004a70:	00804074 	movhi	r2,257
 1004a74:	1885883a 	add	r2,r3,r2
 1004a78:	14393515 	stw	r16,-6956(r2)
        tse_mac_device[tse_system_count].tse_tx_depth                     = pmac->tse_tx_depth;
 1004a7c:	e0bff717 	ldw	r2,-36(fp)
 1004a80:	10c0010b 	ldhu	r3,4(r2)
 1004a84:	d0a0f283 	ldbu	r2,-31798(gp)
 1004a88:	10803fcc 	andi	r2,r2,255
 1004a8c:	1080201c 	xori	r2,r2,128
 1004a90:	10bfe004 	addi	r2,r2,-128
 1004a94:	1c3fffcc 	andi	r16,r3,65535
 1004a98:	01401304 	movi	r5,76
 1004a9c:	1009883a 	mov	r4,r2
 1004aa0:	1002f140 	call	1002f14 <__mulsi3>
 1004aa4:	1007883a 	mov	r3,r2
 1004aa8:	00804074 	movhi	r2,257
 1004aac:	1885883a 	add	r2,r3,r2
 1004ab0:	14393615 	stw	r16,-6952(r2)
        tse_mac_device[tse_system_count].tse_rx_depth                     = pmac->tse_rx_depth;
 1004ab4:	e0bff717 	ldw	r2,-36(fp)
 1004ab8:	10c0018b 	ldhu	r3,6(r2)
 1004abc:	d0a0f283 	ldbu	r2,-31798(gp)
 1004ac0:	10803fcc 	andi	r2,r2,255
 1004ac4:	1080201c 	xori	r2,r2,128
 1004ac8:	10bfe004 	addi	r2,r2,-128
 1004acc:	1c3fffcc 	andi	r16,r3,65535
 1004ad0:	01401304 	movi	r5,76
 1004ad4:	1009883a 	mov	r4,r2
 1004ad8:	1002f140 	call	1002f14 <__mulsi3>
 1004adc:	1007883a 	mov	r3,r2
 1004ae0:	00804074 	movhi	r2,257
 1004ae4:	1885883a 	add	r2,r3,r2
 1004ae8:	14393715 	stw	r16,-6948(r2)
        tse_mac_device[tse_system_count].tse_use_mdio                     = pmac->tse_use_mdio;
 1004aec:	d0a0f283 	ldbu	r2,-31798(gp)
 1004af0:	10c03fcc 	andi	r3,r2,255
 1004af4:	18c0201c 	xori	r3,r3,128
 1004af8:	18ffe004 	addi	r3,r3,-128
 1004afc:	e0bff717 	ldw	r2,-36(fp)
 1004b00:	14000203 	ldbu	r16,8(r2)
 1004b04:	01401304 	movi	r5,76
 1004b08:	1809883a 	mov	r4,r3
 1004b0c:	1002f140 	call	1002f14 <__mulsi3>
 1004b10:	1007883a 	mov	r3,r2
 1004b14:	00804074 	movhi	r2,257
 1004b18:	1885883a 	add	r2,r3,r2
 1004b1c:	14393805 	stb	r16,-6944(r2)
        tse_mac_device[tse_system_count].tse_en_maclite                 = pmac->tse_en_maclite;
 1004b20:	d0a0f283 	ldbu	r2,-31798(gp)
 1004b24:	10c03fcc 	andi	r3,r2,255
 1004b28:	18c0201c 	xori	r3,r3,128
 1004b2c:	18ffe004 	addi	r3,r3,-128
 1004b30:	e0bff717 	ldw	r2,-36(fp)
 1004b34:	14000243 	ldbu	r16,9(r2)
 1004b38:	01401304 	movi	r5,76
 1004b3c:	1809883a 	mov	r4,r3
 1004b40:	1002f140 	call	1002f14 <__mulsi3>
 1004b44:	1007883a 	mov	r3,r2
 1004b48:	00804074 	movhi	r2,257
 1004b4c:	1885883a 	add	r2,r3,r2
 1004b50:	14393845 	stb	r16,-6943(r2)
        tse_mac_device[tse_system_count].tse_maclite_gige                 = pmac->tse_maclite_gige;
 1004b54:	d0a0f283 	ldbu	r2,-31798(gp)
 1004b58:	10c03fcc 	andi	r3,r2,255
 1004b5c:	18c0201c 	xori	r3,r3,128
 1004b60:	18ffe004 	addi	r3,r3,-128
 1004b64:	e0bff717 	ldw	r2,-36(fp)
 1004b68:	14000283 	ldbu	r16,10(r2)
 1004b6c:	01401304 	movi	r5,76
 1004b70:	1809883a 	mov	r4,r3
 1004b74:	1002f140 	call	1002f14 <__mulsi3>
 1004b78:	1007883a 	mov	r3,r2
 1004b7c:	00804074 	movhi	r2,257
 1004b80:	1885883a 	add	r2,r3,r2
 1004b84:	14393885 	stb	r16,-6942(r2)
        tse_mac_device[tse_system_count].tse_multichannel_mac             = pmac->tse_multichannel_mac;
 1004b88:	d0a0f283 	ldbu	r2,-31798(gp)
 1004b8c:	10c03fcc 	andi	r3,r2,255
 1004b90:	18c0201c 	xori	r3,r3,128
 1004b94:	18ffe004 	addi	r3,r3,-128
 1004b98:	e0bff717 	ldw	r2,-36(fp)
 1004b9c:	140002c3 	ldbu	r16,11(r2)
 1004ba0:	01401304 	movi	r5,76
 1004ba4:	1809883a 	mov	r4,r3
 1004ba8:	1002f140 	call	1002f14 <__mulsi3>
 1004bac:	1007883a 	mov	r3,r2
 1004bb0:	00804074 	movhi	r2,257
 1004bb4:	1885883a 	add	r2,r3,r2
 1004bb8:	143938c5 	stb	r16,-6941(r2)
        tse_mac_device[tse_system_count].tse_num_of_channel             = pmac->tse_num_of_channel;
 1004bbc:	d0a0f283 	ldbu	r2,-31798(gp)
 1004bc0:	10c03fcc 	andi	r3,r2,255
 1004bc4:	18c0201c 	xori	r3,r3,128
 1004bc8:	18ffe004 	addi	r3,r3,-128
 1004bcc:	e0bff717 	ldw	r2,-36(fp)
 1004bd0:	14000303 	ldbu	r16,12(r2)
 1004bd4:	01401304 	movi	r5,76
 1004bd8:	1809883a 	mov	r4,r3
 1004bdc:	1002f140 	call	1002f14 <__mulsi3>
 1004be0:	1007883a 	mov	r3,r2
 1004be4:	00804074 	movhi	r2,257
 1004be8:	1885883a 	add	r2,r3,r2
 1004bec:	14393905 	stb	r16,-6940(r2)
        tse_mac_device[tse_system_count].tse_mdio_shared                 = pmac->tse_mdio_shared;
 1004bf0:	d0a0f283 	ldbu	r2,-31798(gp)
 1004bf4:	10c03fcc 	andi	r3,r2,255
 1004bf8:	18c0201c 	xori	r3,r3,128
 1004bfc:	18ffe004 	addi	r3,r3,-128
 1004c00:	e0bff717 	ldw	r2,-36(fp)
 1004c04:	14000343 	ldbu	r16,13(r2)
 1004c08:	01401304 	movi	r5,76
 1004c0c:	1809883a 	mov	r4,r3
 1004c10:	1002f140 	call	1002f14 <__mulsi3>
 1004c14:	1007883a 	mov	r3,r2
 1004c18:	00804074 	movhi	r2,257
 1004c1c:	1885883a 	add	r2,r3,r2
 1004c20:	14393945 	stb	r16,-6939(r2)
        tse_mac_device[tse_system_count].tse_number_of_mac_mdio_shared    = pmac->tse_number_of_mac_mdio_shared;
 1004c24:	d0a0f283 	ldbu	r2,-31798(gp)
 1004c28:	10c03fcc 	andi	r3,r2,255
 1004c2c:	18c0201c 	xori	r3,r3,128
 1004c30:	18ffe004 	addi	r3,r3,-128
 1004c34:	e0bff717 	ldw	r2,-36(fp)
 1004c38:	14000383 	ldbu	r16,14(r2)
 1004c3c:	01401304 	movi	r5,76
 1004c40:	1809883a 	mov	r4,r3
 1004c44:	1002f140 	call	1002f14 <__mulsi3>
 1004c48:	1007883a 	mov	r3,r2
 1004c4c:	00804074 	movhi	r2,257
 1004c50:	1885883a 	add	r2,r3,r2
 1004c54:	14393985 	stb	r16,-6938(r2)
        tse_mac_device[tse_system_count].tse_pcs_ena                     = pmac->tse_pcs_ena;
 1004c58:	d0a0f283 	ldbu	r2,-31798(gp)
 1004c5c:	10c03fcc 	andi	r3,r2,255
 1004c60:	18c0201c 	xori	r3,r3,128
 1004c64:	18ffe004 	addi	r3,r3,-128
 1004c68:	e0bff717 	ldw	r2,-36(fp)
 1004c6c:	140003c3 	ldbu	r16,15(r2)
 1004c70:	01401304 	movi	r5,76
 1004c74:	1809883a 	mov	r4,r3
 1004c78:	1002f140 	call	1002f14 <__mulsi3>
 1004c7c:	1007883a 	mov	r3,r2
 1004c80:	00804074 	movhi	r2,257
 1004c84:	1885883a 	add	r2,r3,r2
 1004c88:	143939c5 	stb	r16,-6937(r2)
        tse_mac_device[tse_system_count].tse_pcs_sgmii                     = pmac->tse_pcs_sgmii;
 1004c8c:	d0a0f283 	ldbu	r2,-31798(gp)
 1004c90:	10c03fcc 	andi	r3,r2,255
 1004c94:	18c0201c 	xori	r3,r3,128
 1004c98:	18ffe004 	addi	r3,r3,-128
 1004c9c:	e0bff717 	ldw	r2,-36(fp)
 1004ca0:	14000403 	ldbu	r16,16(r2)
 1004ca4:	01401304 	movi	r5,76
 1004ca8:	1809883a 	mov	r4,r3
 1004cac:	1002f140 	call	1002f14 <__mulsi3>
 1004cb0:	1007883a 	mov	r3,r2
 1004cb4:	00804074 	movhi	r2,257
 1004cb8:	1885883a 	add	r2,r3,r2
 1004cbc:	14393a05 	stb	r16,-6936(r2)
        
        /* Add MSGDMA info to alt_tse_system_info structure */
        if(pmsgdma == 0) {
 1004cc0:	e0bffb17 	ldw	r2,-20(fp)
 1004cc4:	10000d1e 	bne	r2,zero,1004cfc <alt_tse_system_add_sys+0x3e0>
            tse_dprintf(2, "ERROR   : MSGDMA system structure == NULL\n");
 1004cc8:	01004074 	movhi	r4,257
 1004ccc:	212df704 	addi	r4,r4,-18468
 1004cd0:	100460c0 	call	100460c <no_printf>
            tse_dprintf(2, "ERROR   : Please pass in correct pointer to alt_tse_system_add_sys() for tse_mac_device[%d]\n", tse_system_count);
 1004cd4:	d0a0f283 	ldbu	r2,-31798(gp)
 1004cd8:	10803fcc 	andi	r2,r2,255
 1004cdc:	1080201c 	xori	r2,r2,128
 1004ce0:	10bfe004 	addi	r2,r2,-128
 1004ce4:	100b883a 	mov	r5,r2
 1004ce8:	01004074 	movhi	r4,257
 1004cec:	212e0204 	addi	r4,r4,-18424
 1004cf0:	100460c0 	call	100460c <no_printf>
            return ALTERA_TSE_SYSTEM_DEF_ERROR;
 1004cf4:	00bfffc4 	movi	r2,-1
 1004cf8:	0001af06 	br	10053b8 <alt_tse_system_add_sys+0xa9c>
        }
        
        tse_mac_device[tse_system_count].tse_msgdma_tx = (char *) malloc(strlen(pmsgdma->tse_msgdma_tx) + 1);
 1004cfc:	e0bffb17 	ldw	r2,-20(fp)
 1004d00:	10800017 	ldw	r2,0(r2)
 1004d04:	1009883a 	mov	r4,r2
 1004d08:	1002cf00 	call	1002cf0 <strlen>
 1004d0c:	10800044 	addi	r2,r2,1
 1004d10:	d0e0f283 	ldbu	r3,-31798(gp)
 1004d14:	1c403fcc 	andi	r17,r3,255
 1004d18:	8c40201c 	xori	r17,r17,128
 1004d1c:	8c7fe004 	addi	r17,r17,-128
 1004d20:	1009883a 	mov	r4,r2
 1004d24:	100a5dc0 	call	100a5dc <malloc>
 1004d28:	1021883a 	mov	r16,r2
 1004d2c:	01401304 	movi	r5,76
 1004d30:	8809883a 	mov	r4,r17
 1004d34:	1002f140 	call	1002f14 <__mulsi3>
 1004d38:	1007883a 	mov	r3,r2
 1004d3c:	00804074 	movhi	r2,257
 1004d40:	1885883a 	add	r2,r3,r2
 1004d44:	14393b15 	stw	r16,-6932(r2)
        if(!tse_mac_device[tse_system_count].tse_msgdma_tx) {
 1004d48:	d0a0f283 	ldbu	r2,-31798(gp)
 1004d4c:	10803fcc 	andi	r2,r2,255
 1004d50:	1080201c 	xori	r2,r2,128
 1004d54:	10bfe004 	addi	r2,r2,-128
 1004d58:	01401304 	movi	r5,76
 1004d5c:	1009883a 	mov	r4,r2
 1004d60:	1002f140 	call	1002f14 <__mulsi3>
 1004d64:	1007883a 	mov	r3,r2
 1004d68:	00804074 	movhi	r2,257
 1004d6c:	1885883a 	add	r2,r3,r2
 1004d70:	10b93b17 	ldw	r2,-6932(r2)
 1004d74:	10000a1e 	bne	r2,zero,1004da0 <alt_tse_system_add_sys+0x484>
            tse_dprintf(1, "ERROR   : Unable to allocate memory for tse_mac_device[%d].tse_msgdma_tx\n", tse_system_count);
 1004d78:	d0a0f283 	ldbu	r2,-31798(gp)
 1004d7c:	10803fcc 	andi	r2,r2,255
 1004d80:	1080201c 	xori	r2,r2,128
 1004d84:	10bfe004 	addi	r2,r2,-128
 1004d88:	100b883a 	mov	r5,r2
 1004d8c:	01004074 	movhi	r4,257
 1004d90:	212e1a04 	addi	r4,r4,-18328
 1004d94:	100460c0 	call	100460c <no_printf>
            return ALTERA_TSE_MALLOC_FAILED;
 1004d98:	00bfffc4 	movi	r2,-1
 1004d9c:	00018606 	br	10053b8 <alt_tse_system_add_sys+0xa9c>
        }   
        strcpy(tse_mac_device[tse_system_count].tse_msgdma_tx, pmsgdma->tse_msgdma_tx);
 1004da0:	d0a0f283 	ldbu	r2,-31798(gp)
 1004da4:	10803fcc 	andi	r2,r2,255
 1004da8:	1080201c 	xori	r2,r2,128
 1004dac:	10bfe004 	addi	r2,r2,-128
 1004db0:	01401304 	movi	r5,76
 1004db4:	1009883a 	mov	r4,r2
 1004db8:	1002f140 	call	1002f14 <__mulsi3>
 1004dbc:	1007883a 	mov	r3,r2
 1004dc0:	00804074 	movhi	r2,257
 1004dc4:	1885883a 	add	r2,r3,r2
 1004dc8:	10f93b17 	ldw	r3,-6932(r2)
 1004dcc:	e0bffb17 	ldw	r2,-20(fp)
 1004dd0:	10800017 	ldw	r2,0(r2)
 1004dd4:	100b883a 	mov	r5,r2
 1004dd8:	1809883a 	mov	r4,r3
 1004ddc:	100a9040 	call	100a904 <strcpy>
        
        tse_mac_device[tse_system_count].tse_msgdma_rx = (char *) malloc(strlen(pmsgdma->tse_msgdma_rx) + 1);
 1004de0:	e0bffb17 	ldw	r2,-20(fp)
 1004de4:	10800117 	ldw	r2,4(r2)
 1004de8:	1009883a 	mov	r4,r2
 1004dec:	1002cf00 	call	1002cf0 <strlen>
 1004df0:	10800044 	addi	r2,r2,1
 1004df4:	d0e0f283 	ldbu	r3,-31798(gp)
 1004df8:	1c403fcc 	andi	r17,r3,255
 1004dfc:	8c40201c 	xori	r17,r17,128
 1004e00:	8c7fe004 	addi	r17,r17,-128
 1004e04:	1009883a 	mov	r4,r2
 1004e08:	100a5dc0 	call	100a5dc <malloc>
 1004e0c:	1021883a 	mov	r16,r2
 1004e10:	01401304 	movi	r5,76
 1004e14:	8809883a 	mov	r4,r17
 1004e18:	1002f140 	call	1002f14 <__mulsi3>
 1004e1c:	1007883a 	mov	r3,r2
 1004e20:	00804074 	movhi	r2,257
 1004e24:	1885883a 	add	r2,r3,r2
 1004e28:	14393c15 	stw	r16,-6928(r2)
        if(!tse_mac_device[tse_system_count].tse_msgdma_rx) {
 1004e2c:	d0a0f283 	ldbu	r2,-31798(gp)
 1004e30:	10803fcc 	andi	r2,r2,255
 1004e34:	1080201c 	xori	r2,r2,128
 1004e38:	10bfe004 	addi	r2,r2,-128
 1004e3c:	01401304 	movi	r5,76
 1004e40:	1009883a 	mov	r4,r2
 1004e44:	1002f140 	call	1002f14 <__mulsi3>
 1004e48:	1007883a 	mov	r3,r2
 1004e4c:	00804074 	movhi	r2,257
 1004e50:	1885883a 	add	r2,r3,r2
 1004e54:	10b93c17 	ldw	r2,-6928(r2)
 1004e58:	10000a1e 	bne	r2,zero,1004e84 <alt_tse_system_add_sys+0x568>
            tse_dprintf(1, "ERROR   : Unable to allocate memory for tse_mac_device[%d].tse_msgdma_rx\n", tse_system_count);
 1004e5c:	d0a0f283 	ldbu	r2,-31798(gp)
 1004e60:	10803fcc 	andi	r2,r2,255
 1004e64:	1080201c 	xori	r2,r2,128
 1004e68:	10bfe004 	addi	r2,r2,-128
 1004e6c:	100b883a 	mov	r5,r2
 1004e70:	01004074 	movhi	r4,257
 1004e74:	212e2d04 	addi	r4,r4,-18252
 1004e78:	100460c0 	call	100460c <no_printf>
            return ALTERA_TSE_MALLOC_FAILED;
 1004e7c:	00bfffc4 	movi	r2,-1
 1004e80:	00014d06 	br	10053b8 <alt_tse_system_add_sys+0xa9c>
        }
        strcpy(tse_mac_device[tse_system_count].tse_msgdma_rx, pmsgdma->tse_msgdma_rx);
 1004e84:	d0a0f283 	ldbu	r2,-31798(gp)
 1004e88:	10803fcc 	andi	r2,r2,255
 1004e8c:	1080201c 	xori	r2,r2,128
 1004e90:	10bfe004 	addi	r2,r2,-128
 1004e94:	01401304 	movi	r5,76
 1004e98:	1009883a 	mov	r4,r2
 1004e9c:	1002f140 	call	1002f14 <__mulsi3>
 1004ea0:	1007883a 	mov	r3,r2
 1004ea4:	00804074 	movhi	r2,257
 1004ea8:	1885883a 	add	r2,r3,r2
 1004eac:	10f93c17 	ldw	r3,-6928(r2)
 1004eb0:	e0bffb17 	ldw	r2,-20(fp)
 1004eb4:	10800117 	ldw	r2,4(r2)
 1004eb8:	100b883a 	mov	r5,r2
 1004ebc:	1809883a 	mov	r4,r3
 1004ec0:	100a9040 	call	100a904 <strcpy>
        
        tse_mac_device[tse_system_count].tse_msgdma_rx_irq = pmsgdma->tse_msgdma_rx_irq;
 1004ec4:	d0a0f283 	ldbu	r2,-31798(gp)
 1004ec8:	10c03fcc 	andi	r3,r2,255
 1004ecc:	18c0201c 	xori	r3,r3,128
 1004ed0:	18ffe004 	addi	r3,r3,-128
 1004ed4:	e0bffb17 	ldw	r2,-20(fp)
 1004ed8:	1400020b 	ldhu	r16,8(r2)
 1004edc:	01401304 	movi	r5,76
 1004ee0:	1809883a 	mov	r4,r3
 1004ee4:	1002f140 	call	1002f14 <__mulsi3>
 1004ee8:	1007883a 	mov	r3,r2
 1004eec:	00804074 	movhi	r2,257
 1004ef0:	1885883a 	add	r2,r3,r2
 1004ef4:	14393d0d 	sth	r16,-6924(r2)
        
        /* Add descriptor memory info to alt_tse_system_info structure */
        if(pmem == 0) {
 1004ef8:	e0bffa17 	ldw	r2,-24(fp)
 1004efc:	1000171e 	bne	r2,zero,1004f5c <alt_tse_system_add_sys+0x640>
            tse_mac_device[tse_system_count].ext_desc_mem    = TSE_INT_DESC_MEM;
 1004f00:	d0a0f283 	ldbu	r2,-31798(gp)
 1004f04:	10803fcc 	andi	r2,r2,255
 1004f08:	1080201c 	xori	r2,r2,128
 1004f0c:	10bfe004 	addi	r2,r2,-128
 1004f10:	01401304 	movi	r5,76
 1004f14:	1009883a 	mov	r4,r2
 1004f18:	1002f140 	call	1002f14 <__mulsi3>
 1004f1c:	1007883a 	mov	r3,r2
 1004f20:	00804074 	movhi	r2,257
 1004f24:	1885883a 	add	r2,r3,r2
 1004f28:	10393d85 	stb	zero,-6922(r2)
            tse_mac_device[tse_system_count].desc_mem_base    = TSE_INT_DESC_MEM;
 1004f2c:	d0a0f283 	ldbu	r2,-31798(gp)
 1004f30:	10803fcc 	andi	r2,r2,255
 1004f34:	1080201c 	xori	r2,r2,128
 1004f38:	10bfe004 	addi	r2,r2,-128
 1004f3c:	01401304 	movi	r5,76
 1004f40:	1009883a 	mov	r4,r2
 1004f44:	1002f140 	call	1002f14 <__mulsi3>
 1004f48:	1007883a 	mov	r3,r2
 1004f4c:	00804074 	movhi	r2,257
 1004f50:	1885883a 	add	r2,r3,r2
 1004f54:	10393e15 	stw	zero,-6920(r2)
 1004f58:	00001a06 	br	1004fc4 <alt_tse_system_add_sys+0x6a8>
        }
        else {
            tse_mac_device[tse_system_count].ext_desc_mem    = pmem->ext_desc_mem;
 1004f5c:	d0a0f283 	ldbu	r2,-31798(gp)
 1004f60:	10c03fcc 	andi	r3,r2,255
 1004f64:	18c0201c 	xori	r3,r3,128
 1004f68:	18ffe004 	addi	r3,r3,-128
 1004f6c:	e0bffa17 	ldw	r2,-24(fp)
 1004f70:	14000003 	ldbu	r16,0(r2)
 1004f74:	01401304 	movi	r5,76
 1004f78:	1809883a 	mov	r4,r3
 1004f7c:	1002f140 	call	1002f14 <__mulsi3>
 1004f80:	1007883a 	mov	r3,r2
 1004f84:	00804074 	movhi	r2,257
 1004f88:	1885883a 	add	r2,r3,r2
 1004f8c:	14393d85 	stb	r16,-6922(r2)
            tse_mac_device[tse_system_count].desc_mem_base    = pmem->desc_mem_base;
 1004f90:	d0a0f283 	ldbu	r2,-31798(gp)
 1004f94:	10c03fcc 	andi	r3,r2,255
 1004f98:	18c0201c 	xori	r3,r3,128
 1004f9c:	18ffe004 	addi	r3,r3,-128
 1004fa0:	e0bffa17 	ldw	r2,-24(fp)
 1004fa4:	14000117 	ldw	r16,4(r2)
 1004fa8:	01401304 	movi	r5,76
 1004fac:	1809883a 	mov	r4,r3
 1004fb0:	1002f140 	call	1002f14 <__mulsi3>
 1004fb4:	1007883a 	mov	r3,r2
 1004fb8:	00804074 	movhi	r2,257
 1004fbc:	1885883a 	add	r2,r3,r2
 1004fc0:	14393e15 	stw	r16,-6920(r2)
        }
        
        /* Add shared fifo info to alt_tse_system_info structure */
        if(pfifo == 0) {
 1004fc4:	e0bff917 	ldw	r2,-28(fp)
 1004fc8:	10004e1e 	bne	r2,zero,1005104 <alt_tse_system_add_sys+0x7e8>
            tse_mac_device[tse_system_count].use_shared_fifo                = TSE_NO_SHARED_FIFO;
 1004fcc:	d0a0f283 	ldbu	r2,-31798(gp)
 1004fd0:	10803fcc 	andi	r2,r2,255
 1004fd4:	1080201c 	xori	r2,r2,128
 1004fd8:	10bfe004 	addi	r2,r2,-128
 1004fdc:	01401304 	movi	r5,76
 1004fe0:	1009883a 	mov	r4,r2
 1004fe4:	1002f140 	call	1002f14 <__mulsi3>
 1004fe8:	1007883a 	mov	r3,r2
 1004fec:	00804074 	movhi	r2,257
 1004ff0:	1885883a 	add	r2,r3,r2
 1004ff4:	10393f05 	stb	zero,-6916(r2)
            tse_mac_device[tse_system_count].tse_shared_fifo_tx_ctrl_base    = TSE_NO_SHARED_FIFO;
 1004ff8:	d0a0f283 	ldbu	r2,-31798(gp)
 1004ffc:	10803fcc 	andi	r2,r2,255
 1005000:	1080201c 	xori	r2,r2,128
 1005004:	10bfe004 	addi	r2,r2,-128
 1005008:	01401304 	movi	r5,76
 100500c:	1009883a 	mov	r4,r2
 1005010:	1002f140 	call	1002f14 <__mulsi3>
 1005014:	1007883a 	mov	r3,r2
 1005018:	00804074 	movhi	r2,257
 100501c:	1885883a 	add	r2,r3,r2
 1005020:	10394015 	stw	zero,-6912(r2)
            tse_mac_device[tse_system_count].tse_shared_fifo_tx_stat_base    = TSE_NO_SHARED_FIFO;
 1005024:	d0a0f283 	ldbu	r2,-31798(gp)
 1005028:	10803fcc 	andi	r2,r2,255
 100502c:	1080201c 	xori	r2,r2,128
 1005030:	10bfe004 	addi	r2,r2,-128
 1005034:	01401304 	movi	r5,76
 1005038:	1009883a 	mov	r4,r2
 100503c:	1002f140 	call	1002f14 <__mulsi3>
 1005040:	1007883a 	mov	r3,r2
 1005044:	00804074 	movhi	r2,257
 1005048:	1885883a 	add	r2,r3,r2
 100504c:	10394115 	stw	zero,-6908(r2)
            tse_mac_device[tse_system_count].tse_shared_fifo_tx_depth       = TSE_NO_SHARED_FIFO;
 1005050:	d0a0f283 	ldbu	r2,-31798(gp)
 1005054:	10803fcc 	andi	r2,r2,255
 1005058:	1080201c 	xori	r2,r2,128
 100505c:	10bfe004 	addi	r2,r2,-128
 1005060:	01401304 	movi	r5,76
 1005064:	1009883a 	mov	r4,r2
 1005068:	1002f140 	call	1002f14 <__mulsi3>
 100506c:	1007883a 	mov	r3,r2
 1005070:	00804074 	movhi	r2,257
 1005074:	1885883a 	add	r2,r3,r2
 1005078:	10394215 	stw	zero,-6904(r2)
            
            tse_mac_device[tse_system_count].tse_shared_fifo_rx_ctrl_base    = TSE_NO_SHARED_FIFO;
 100507c:	d0a0f283 	ldbu	r2,-31798(gp)
 1005080:	10803fcc 	andi	r2,r2,255
 1005084:	1080201c 	xori	r2,r2,128
 1005088:	10bfe004 	addi	r2,r2,-128
 100508c:	01401304 	movi	r5,76
 1005090:	1009883a 	mov	r4,r2
 1005094:	1002f140 	call	1002f14 <__mulsi3>
 1005098:	1007883a 	mov	r3,r2
 100509c:	00804074 	movhi	r2,257
 10050a0:	1885883a 	add	r2,r3,r2
 10050a4:	10394315 	stw	zero,-6900(r2)
            tse_mac_device[tse_system_count].tse_shared_fifo_rx_stat_base    = TSE_NO_SHARED_FIFO;
 10050a8:	d0a0f283 	ldbu	r2,-31798(gp)
 10050ac:	10803fcc 	andi	r2,r2,255
 10050b0:	1080201c 	xori	r2,r2,128
 10050b4:	10bfe004 	addi	r2,r2,-128
 10050b8:	01401304 	movi	r5,76
 10050bc:	1009883a 	mov	r4,r2
 10050c0:	1002f140 	call	1002f14 <__mulsi3>
 10050c4:	1007883a 	mov	r3,r2
 10050c8:	00804074 	movhi	r2,257
 10050cc:	1885883a 	add	r2,r3,r2
 10050d0:	10394415 	stw	zero,-6896(r2)
            tse_mac_device[tse_system_count].tse_shared_fifo_rx_depth       = TSE_NO_SHARED_FIFO;
 10050d4:	d0a0f283 	ldbu	r2,-31798(gp)
 10050d8:	10803fcc 	andi	r2,r2,255
 10050dc:	1080201c 	xori	r2,r2,128
 10050e0:	10bfe004 	addi	r2,r2,-128
 10050e4:	01401304 	movi	r5,76
 10050e8:	1009883a 	mov	r4,r2
 10050ec:	1002f140 	call	1002f14 <__mulsi3>
 10050f0:	1007883a 	mov	r3,r2
 10050f4:	00804074 	movhi	r2,257
 10050f8:	1885883a 	add	r2,r3,r2
 10050fc:	10394515 	stw	zero,-6892(r2)
 1005100:	00005b06 	br	1005270 <alt_tse_system_add_sys+0x954>
        }
        else {
            tse_mac_device[tse_system_count].use_shared_fifo                = pfifo->use_shared_fifo;
 1005104:	d0a0f283 	ldbu	r2,-31798(gp)
 1005108:	10c03fcc 	andi	r3,r2,255
 100510c:	18c0201c 	xori	r3,r3,128
 1005110:	18ffe004 	addi	r3,r3,-128
 1005114:	e0bff917 	ldw	r2,-28(fp)
 1005118:	14000003 	ldbu	r16,0(r2)
 100511c:	01401304 	movi	r5,76
 1005120:	1809883a 	mov	r4,r3
 1005124:	1002f140 	call	1002f14 <__mulsi3>
 1005128:	1007883a 	mov	r3,r2
 100512c:	00804074 	movhi	r2,257
 1005130:	1885883a 	add	r2,r3,r2
 1005134:	14393f05 	stb	r16,-6916(r2)
            tse_mac_device[tse_system_count].tse_shared_fifo_tx_ctrl_base    = pfifo->tse_shared_fifo_tx_ctrl_base;
 1005138:	d0a0f283 	ldbu	r2,-31798(gp)
 100513c:	10c03fcc 	andi	r3,r2,255
 1005140:	18c0201c 	xori	r3,r3,128
 1005144:	18ffe004 	addi	r3,r3,-128
 1005148:	e0bff917 	ldw	r2,-28(fp)
 100514c:	14000117 	ldw	r16,4(r2)
 1005150:	01401304 	movi	r5,76
 1005154:	1809883a 	mov	r4,r3
 1005158:	1002f140 	call	1002f14 <__mulsi3>
 100515c:	1007883a 	mov	r3,r2
 1005160:	00804074 	movhi	r2,257
 1005164:	1885883a 	add	r2,r3,r2
 1005168:	14394015 	stw	r16,-6912(r2)
            tse_mac_device[tse_system_count].tse_shared_fifo_tx_stat_base    = pfifo->tse_shared_fifo_tx_stat_base;
 100516c:	d0a0f283 	ldbu	r2,-31798(gp)
 1005170:	10c03fcc 	andi	r3,r2,255
 1005174:	18c0201c 	xori	r3,r3,128
 1005178:	18ffe004 	addi	r3,r3,-128
 100517c:	e0bff917 	ldw	r2,-28(fp)
 1005180:	14000217 	ldw	r16,8(r2)
 1005184:	01401304 	movi	r5,76
 1005188:	1809883a 	mov	r4,r3
 100518c:	1002f140 	call	1002f14 <__mulsi3>
 1005190:	1007883a 	mov	r3,r2
 1005194:	00804074 	movhi	r2,257
 1005198:	1885883a 	add	r2,r3,r2
 100519c:	14394115 	stw	r16,-6908(r2)
            tse_mac_device[tse_system_count].tse_shared_fifo_tx_depth       = pfifo->tse_shared_fifo_tx_depth;
 10051a0:	d0a0f283 	ldbu	r2,-31798(gp)
 10051a4:	10c03fcc 	andi	r3,r2,255
 10051a8:	18c0201c 	xori	r3,r3,128
 10051ac:	18ffe004 	addi	r3,r3,-128
 10051b0:	e0bff917 	ldw	r2,-28(fp)
 10051b4:	14000317 	ldw	r16,12(r2)
 10051b8:	01401304 	movi	r5,76
 10051bc:	1809883a 	mov	r4,r3
 10051c0:	1002f140 	call	1002f14 <__mulsi3>
 10051c4:	1007883a 	mov	r3,r2
 10051c8:	00804074 	movhi	r2,257
 10051cc:	1885883a 	add	r2,r3,r2
 10051d0:	14394215 	stw	r16,-6904(r2)
            
            tse_mac_device[tse_system_count].tse_shared_fifo_rx_ctrl_base    = pfifo->tse_shared_fifo_rx_ctrl_base;
 10051d4:	d0a0f283 	ldbu	r2,-31798(gp)
 10051d8:	10c03fcc 	andi	r3,r2,255
 10051dc:	18c0201c 	xori	r3,r3,128
 10051e0:	18ffe004 	addi	r3,r3,-128
 10051e4:	e0bff917 	ldw	r2,-28(fp)
 10051e8:	14000417 	ldw	r16,16(r2)
 10051ec:	01401304 	movi	r5,76
 10051f0:	1809883a 	mov	r4,r3
 10051f4:	1002f140 	call	1002f14 <__mulsi3>
 10051f8:	1007883a 	mov	r3,r2
 10051fc:	00804074 	movhi	r2,257
 1005200:	1885883a 	add	r2,r3,r2
 1005204:	14394315 	stw	r16,-6900(r2)
            tse_mac_device[tse_system_count].tse_shared_fifo_rx_stat_base    = pfifo->tse_shared_fifo_rx_stat_base;
 1005208:	d0a0f283 	ldbu	r2,-31798(gp)
 100520c:	10c03fcc 	andi	r3,r2,255
 1005210:	18c0201c 	xori	r3,r3,128
 1005214:	18ffe004 	addi	r3,r3,-128
 1005218:	e0bff917 	ldw	r2,-28(fp)
 100521c:	14000517 	ldw	r16,20(r2)
 1005220:	01401304 	movi	r5,76
 1005224:	1809883a 	mov	r4,r3
 1005228:	1002f140 	call	1002f14 <__mulsi3>
 100522c:	1007883a 	mov	r3,r2
 1005230:	00804074 	movhi	r2,257
 1005234:	1885883a 	add	r2,r3,r2
 1005238:	14394415 	stw	r16,-6896(r2)
            tse_mac_device[tse_system_count].tse_shared_fifo_rx_depth       = pfifo->tse_shared_fifo_rx_depth;
 100523c:	d0a0f283 	ldbu	r2,-31798(gp)
 1005240:	10c03fcc 	andi	r3,r2,255
 1005244:	18c0201c 	xori	r3,r3,128
 1005248:	18ffe004 	addi	r3,r3,-128
 100524c:	e0bff917 	ldw	r2,-28(fp)
 1005250:	14000617 	ldw	r16,24(r2)
 1005254:	01401304 	movi	r5,76
 1005258:	1809883a 	mov	r4,r3
 100525c:	1002f140 	call	1002f14 <__mulsi3>
 1005260:	1007883a 	mov	r3,r2
 1005264:	00804074 	movhi	r2,257
 1005268:	1885883a 	add	r2,r3,r2
 100526c:	14394515 	stw	r16,-6892(r2)
        }
        
        /* Add PHY info to alt_tse_system_info structure */
        if(pphy == 0) {
 1005270:	e0bff817 	ldw	r2,-32(fp)
 1005274:	1000181e 	bne	r2,zero,10052d8 <alt_tse_system_add_sys+0x9bc>
            tse_mac_device[tse_system_count].tse_phy_mdio_address    = TSE_PHY_AUTO_ADDRESS;
 1005278:	d0a0f283 	ldbu	r2,-31798(gp)
 100527c:	10803fcc 	andi	r2,r2,255
 1005280:	1080201c 	xori	r2,r2,128
 1005284:	10bfe004 	addi	r2,r2,-128
 1005288:	01401304 	movi	r5,76
 100528c:	1009883a 	mov	r4,r2
 1005290:	1002f140 	call	1002f14 <__mulsi3>
 1005294:	1009883a 	mov	r4,r2
 1005298:	00ffffc4 	movi	r3,-1
 100529c:	00804074 	movhi	r2,257
 10052a0:	2085883a 	add	r2,r4,r2
 10052a4:	10f94615 	stw	r3,-6888(r2)
            tse_mac_device[tse_system_count].tse_phy_cfg             = 0;
 10052a8:	d0a0f283 	ldbu	r2,-31798(gp)
 10052ac:	10803fcc 	andi	r2,r2,255
 10052b0:	1080201c 	xori	r2,r2,128
 10052b4:	10bfe004 	addi	r2,r2,-128
 10052b8:	01401304 	movi	r5,76
 10052bc:	1009883a 	mov	r4,r2
 10052c0:	1002f140 	call	1002f14 <__mulsi3>
 10052c4:	1007883a 	mov	r3,r2
 10052c8:	00804074 	movhi	r2,257
 10052cc:	1885883a 	add	r2,r3,r2
 10052d0:	10394715 	stw	zero,-6884(r2)
 10052d4:	00001a06 	br	1005340 <alt_tse_system_add_sys+0xa24>
        }
        else {
            tse_mac_device[tse_system_count].tse_phy_mdio_address    = pphy->tse_phy_mdio_address;
 10052d8:	d0a0f283 	ldbu	r2,-31798(gp)
 10052dc:	10c03fcc 	andi	r3,r2,255
 10052e0:	18c0201c 	xori	r3,r3,128
 10052e4:	18ffe004 	addi	r3,r3,-128
 10052e8:	e0bff817 	ldw	r2,-32(fp)
 10052ec:	14000017 	ldw	r16,0(r2)
 10052f0:	01401304 	movi	r5,76
 10052f4:	1809883a 	mov	r4,r3
 10052f8:	1002f140 	call	1002f14 <__mulsi3>
 10052fc:	1007883a 	mov	r3,r2
 1005300:	00804074 	movhi	r2,257
 1005304:	1885883a 	add	r2,r3,r2
 1005308:	14394615 	stw	r16,-6888(r2)
            tse_mac_device[tse_system_count].tse_phy_cfg             = pphy->tse_phy_cfg;
 100530c:	d0a0f283 	ldbu	r2,-31798(gp)
 1005310:	10c03fcc 	andi	r3,r2,255
 1005314:	18c0201c 	xori	r3,r3,128
 1005318:	18ffe004 	addi	r3,r3,-128
 100531c:	e0bff817 	ldw	r2,-32(fp)
 1005320:	14000117 	ldw	r16,4(r2)
 1005324:	01401304 	movi	r5,76
 1005328:	1809883a 	mov	r4,r3
 100532c:	1002f140 	call	1002f14 <__mulsi3>
 1005330:	1007883a 	mov	r3,r2
 1005334:	00804074 	movhi	r2,257
 1005338:	1885883a 	add	r2,r3,r2
 100533c:	14394715 	stw	r16,-6884(r2)
        }
        
        /* Point to next structure */
        pmsgdma++;
 1005340:	e0bffb17 	ldw	r2,-20(fp)
 1005344:	10800304 	addi	r2,r2,12
 1005348:	e0bffb15 	stw	r2,-20(fp)
        if(pmem) pmem++;
 100534c:	e0bffa17 	ldw	r2,-24(fp)
 1005350:	10000326 	beq	r2,zero,1005360 <alt_tse_system_add_sys+0xa44>
 1005354:	e0bffa17 	ldw	r2,-24(fp)
 1005358:	10800204 	addi	r2,r2,8
 100535c:	e0bffa15 	stw	r2,-24(fp)
        if(pfifo) pfifo++;
 1005360:	e0bff917 	ldw	r2,-28(fp)
 1005364:	10000326 	beq	r2,zero,1005374 <alt_tse_system_add_sys+0xa58>
 1005368:	e0bff917 	ldw	r2,-28(fp)
 100536c:	10800704 	addi	r2,r2,28
 1005370:	e0bff915 	stw	r2,-28(fp)
        if(pphy) pphy++;
 1005374:	e0bff817 	ldw	r2,-32(fp)
 1005378:	10000326 	beq	r2,zero,1005388 <alt_tse_system_add_sys+0xa6c>
 100537c:	e0bff817 	ldw	r2,-32(fp)
 1005380:	10800204 	addi	r2,r2,8
 1005384:	e0bff815 	stw	r2,-32(fp)
        
        tse_system_count++;
 1005388:	d0a0f283 	ldbu	r2,-31798(gp)
 100538c:	10800044 	addi	r2,r2,1
 1005390:	d0a0f285 	stb	r2,-31798(gp)
        max_mac_system = tse_system_count;
 1005394:	d0a0f283 	ldbu	r2,-31798(gp)
 1005398:	d0a00505 	stb	r2,-32748(gp)
    for(i = 0; i < loop_end; i++) {
 100539c:	e0bffd17 	ldw	r2,-12(fp)
 10053a0:	10800044 	addi	r2,r2,1
 10053a4:	e0bffd15 	stw	r2,-12(fp)
 10053a8:	e0fffd17 	ldw	r3,-12(fp)
 10053ac:	e0bffc17 	ldw	r2,-16(fp)
 10053b0:	18bd8516 	blt	r3,r2,10049c8 <alt_tse_system_add_sys+0xac>
    }
    
    return SUCCESS;
 10053b4:	0005883a 	mov	r2,zero
    
}
 10053b8:	e6fffe04 	addi	sp,fp,-8
 10053bc:	dfc00317 	ldw	ra,12(sp)
 10053c0:	df000217 	ldw	fp,8(sp)
 10053c4:	dc400117 	ldw	r17,4(sp)
 10053c8:	dc000017 	ldw	r16,0(sp)
 10053cc:	dec00404 	addi	sp,sp,16
 10053d0:	f800283a 	ret

010053d4 <alt_tse_sys_enable_mdio_sharing>:
 * @param        number_of_mac  number of MAC sharing MDIO block
 * @return      SUCCESS on success
 *                 ALTERA_TSE_SYSTEM_DEF_ERROR if definition of system incorrect or pointer == NULL
 * Multi-channel MAC not supported
 */
alt_32 alt_tse_sys_enable_mdio_sharing(alt_tse_system_mac **psys_mac_list, alt_u8 number_of_mac) {
 10053d4:	defff804 	addi	sp,sp,-32
 10053d8:	dfc00715 	stw	ra,28(sp)
 10053dc:	df000615 	stw	fp,24(sp)
 10053e0:	dc000515 	stw	r16,20(sp)
 10053e4:	df000604 	addi	fp,sp,24
 10053e8:	e13ffb15 	stw	r4,-20(fp)
 10053ec:	2805883a 	mov	r2,r5
 10053f0:	e0bffa05 	stb	r2,-24(fp)
    alt_32 i;
    alt_32 j;
    
    alt_tse_system_mac *psys_mac;
    
    for(i = 0; i < number_of_mac; i++) {
 10053f4:	e03ffe15 	stw	zero,-8(fp)
 10053f8:	00004b06 	br	1005528 <alt_tse_sys_enable_mdio_sharing+0x154>
        psys_mac = psys_mac_list[i];
 10053fc:	e0bffe17 	ldw	r2,-8(fp)
 1005400:	100490ba 	slli	r2,r2,2
 1005404:	e0fffb17 	ldw	r3,-20(fp)
 1005408:	1885883a 	add	r2,r3,r2
 100540c:	10800017 	ldw	r2,0(r2)
 1005410:	e0bffc15 	stw	r2,-16(fp)
        
        if(psys_mac == 0) {
 1005414:	e0bffc17 	ldw	r2,-16(fp)
 1005418:	1000081e 	bne	r2,zero,100543c <alt_tse_sys_enable_mdio_sharing+0x68>
            tse_dprintf(2, "ERROR   : MAC system structure == NULL\n");
 100541c:	01004074 	movhi	r4,257
 1005420:	212ddb04 	addi	r4,r4,-18580
 1005424:	100460c0 	call	100460c <no_printf>
            tse_dprintf(2, "ERROR   : Please pass in correct pointer to alt_tse_sys_enable_mdio_sharing()\n");
 1005428:	01004074 	movhi	r4,257
 100542c:	212e4004 	addi	r4,r4,-18176
 1005430:	100460c0 	call	100460c <no_printf>
            return ALTERA_TSE_SYSTEM_DEF_ERROR;
 1005434:	00bfffc4 	movi	r2,-1
 1005438:	00003f06 	br	1005538 <alt_tse_sys_enable_mdio_sharing+0x164>
        }
        
        for(j = 0; j < max_mac_system; j++) {
 100543c:	e03ffd15 	stw	zero,-12(fp)
 1005440:	00003206 	br	100550c <alt_tse_sys_enable_mdio_sharing+0x138>
            
            if(psys_mac->tse_mac_base == tse_mac_device[j].tse_mac_base) {
 1005444:	e0bffc17 	ldw	r2,-16(fp)
 1005448:	14000017 	ldw	r16,0(r2)
 100544c:	e0bffd17 	ldw	r2,-12(fp)
 1005450:	01401304 	movi	r5,76
 1005454:	1009883a 	mov	r4,r2
 1005458:	1002f140 	call	1002f14 <__mulsi3>
 100545c:	1007883a 	mov	r3,r2
 1005460:	00804074 	movhi	r2,257
 1005464:	1885883a 	add	r2,r3,r2
 1005468:	10b93517 	ldw	r2,-6956(r2)
 100546c:	8080241e 	bne	r16,r2,1005500 <alt_tse_sys_enable_mdio_sharing+0x12c>
                if(tse_mac_device[j].tse_multichannel_mac) {
 1005470:	e0bffd17 	ldw	r2,-12(fp)
 1005474:	01401304 	movi	r5,76
 1005478:	1009883a 	mov	r4,r2
 100547c:	1002f140 	call	1002f14 <__mulsi3>
 1005480:	1007883a 	mov	r3,r2
 1005484:	00804074 	movhi	r2,257
 1005488:	1885883a 	add	r2,r3,r2
 100548c:	10b938c3 	ldbu	r2,-6941(r2)
 1005490:	10803fcc 	andi	r2,r2,255
 1005494:	10000826 	beq	r2,zero,10054b8 <alt_tse_sys_enable_mdio_sharing+0xe4>
                    tse_dprintf(2, "ERROR   : MDIO sharing supported by default for Multi-channel MAC\n");
 1005498:	01004074 	movhi	r4,257
 100549c:	212e5404 	addi	r4,r4,-18096
 10054a0:	100460c0 	call	100460c <no_printf>
                    tse_dprintf(2, "ERROR   : Do not include Multi-channel MAC in the MAC List\n");
 10054a4:	01004074 	movhi	r4,257
 10054a8:	212e6504 	addi	r4,r4,-18028
 10054ac:	100460c0 	call	100460c <no_printf>
                    return ALTERA_TSE_SYSTEM_DEF_ERROR;
 10054b0:	00bfffc4 	movi	r2,-1
 10054b4:	00002006 	br	1005538 <alt_tse_sys_enable_mdio_sharing+0x164>
                }
                
                tse_mac_device[j].tse_mdio_shared = 1;
 10054b8:	e0bffd17 	ldw	r2,-12(fp)
 10054bc:	01401304 	movi	r5,76
 10054c0:	1009883a 	mov	r4,r2
 10054c4:	1002f140 	call	1002f14 <__mulsi3>
 10054c8:	1009883a 	mov	r4,r2
 10054cc:	00c00044 	movi	r3,1
 10054d0:	00804074 	movhi	r2,257
 10054d4:	2085883a 	add	r2,r4,r2
 10054d8:	10f93945 	stb	r3,-6939(r2)
                tse_mac_device[j].tse_number_of_mac_mdio_shared = number_of_mac;
 10054dc:	e0bffd17 	ldw	r2,-12(fp)
 10054e0:	01401304 	movi	r5,76
 10054e4:	1009883a 	mov	r4,r2
 10054e8:	1002f140 	call	1002f14 <__mulsi3>
 10054ec:	1009883a 	mov	r4,r2
 10054f0:	e0fffa03 	ldbu	r3,-24(fp)
 10054f4:	00804074 	movhi	r2,257
 10054f8:	2085883a 	add	r2,r4,r2
 10054fc:	10f93985 	stb	r3,-6938(r2)
        for(j = 0; j < max_mac_system; j++) {
 1005500:	e0bffd17 	ldw	r2,-12(fp)
 1005504:	10800044 	addi	r2,r2,1
 1005508:	e0bffd15 	stw	r2,-12(fp)
 100550c:	d0a00503 	ldbu	r2,-32748(gp)
 1005510:	10803fcc 	andi	r2,r2,255
 1005514:	e0fffd17 	ldw	r3,-12(fp)
 1005518:	18bfca16 	blt	r3,r2,1005444 <alt_tse_sys_enable_mdio_sharing+0x70>
    for(i = 0; i < number_of_mac; i++) {
 100551c:	e0bffe17 	ldw	r2,-8(fp)
 1005520:	10800044 	addi	r2,r2,1
 1005524:	e0bffe15 	stw	r2,-8(fp)
 1005528:	e0bffa03 	ldbu	r2,-24(fp)
 100552c:	e0fffe17 	ldw	r3,-8(fp)
 1005530:	18bfb216 	blt	r3,r2,10053fc <alt_tse_sys_enable_mdio_sharing+0x28>
            }
        }    
    }
    
    return SUCCESS;
 1005534:	0005883a 	mov	r2,zero
}
 1005538:	e6ffff04 	addi	sp,fp,-4
 100553c:	dfc00217 	ldw	ra,8(sp)
 1005540:	df000117 	ldw	fp,4(sp)
 1005544:	dc000017 	ldw	r16,0(sp)
 1005548:	dec00304 	addi	sp,sp,12
 100554c:	f800283a 	ret

01005550 <alt_tse_mac_get_common_speed>:
/* @Function Description: Get the common speed supported by all PHYs connected to the MAC within the same group
 * @API Type:           Public
 * @param pmac          Pointer to the TSE MAC Control Interface Base address
 * @return              common speed supported by all PHYs connected to the MAC, return TSE_PHY_SPEED_NO_COMMON if no common speed found
 */
alt_32 alt_tse_mac_get_common_speed(np_tse_mac *pmac) {
 1005550:	defffc04 	addi	sp,sp,-16
 1005554:	dfc00315 	stw	ra,12(sp)
 1005558:	df000215 	stw	fp,8(sp)
 100555c:	df000204 	addi	fp,sp,8
 1005560:	e13ffe15 	stw	r4,-8(fp)
    alt_tse_mac_group *pmac_group = alt_tse_get_mac_info(pmac)->pmac_group;
 1005564:	e13ffe17 	ldw	r4,-8(fp)
 1005568:	100573c0 	call	100573c <alt_tse_get_mac_info>
 100556c:	10800317 	ldw	r2,12(r2)
 1005570:	e0bfff15 	stw	r2,-4(fp)
    return alt_tse_phy_get_common_speed(pmac_group);
 1005574:	e13fff17 	ldw	r4,-4(fp)
 1005578:	10088e40 	call	10088e4 <alt_tse_phy_get_common_speed>
}
 100557c:	e037883a 	mov	sp,fp
 1005580:	dfc00117 	ldw	ra,4(sp)
 1005584:	df000017 	ldw	fp,0(sp)
 1005588:	dec00204 	addi	sp,sp,8
 100558c:	f800283a 	ret

01005590 <alt_tse_mac_set_common_speed>:
 * @API Type:               Public
 * @param pmac              Pointer to the TSE MAC Control Interface Base address
 *        common_speed      common speed supported by all PHYs
 * @return                  common speed supported by all PHYs connected to the MAC, return TSE_PHY_SPEED_NO_COMMON if invalid common speed specified
 */
alt_32 alt_tse_mac_set_common_speed(np_tse_mac *pmac, alt_32 common_speed) {
 1005590:	defffb04 	addi	sp,sp,-20
 1005594:	dfc00415 	stw	ra,16(sp)
 1005598:	df000315 	stw	fp,12(sp)
 100559c:	df000304 	addi	fp,sp,12
 10055a0:	e13ffe15 	stw	r4,-8(fp)
 10055a4:	e17ffd15 	stw	r5,-12(fp)
    alt_tse_mac_group *pmac_group = alt_tse_get_mac_info(pmac)->pmac_group;
 10055a8:	e13ffe17 	ldw	r4,-8(fp)
 10055ac:	100573c0 	call	100573c <alt_tse_get_mac_info>
 10055b0:	10800317 	ldw	r2,12(r2)
 10055b4:	e0bfff15 	stw	r2,-4(fp)
    return alt_tse_phy_set_common_speed(pmac_group, common_speed);
 10055b8:	e17ffd17 	ldw	r5,-12(fp)
 10055bc:	e13fff17 	ldw	r4,-4(fp)
 10055c0:	1008c040 	call	1008c04 <alt_tse_phy_set_common_speed>
}
 10055c4:	e037883a 	mov	sp,fp
 10055c8:	dfc00117 	ldw	ra,4(sp)
 10055cc:	df000017 	ldw	fp,0(sp)
 10055d0:	dec00204 	addi	sp,sp,8
 10055d4:	f800283a 	ret

010055d8 <alt_tse_get_system_index>:
/* @Function Description: Get the index of alt_tse_system_info structure in tse_mac_device[]
 * @API Type:        Internal
 * @param psys_info  Pointer to the alt_tse_system_info structure
 * @return           Index of alt_tse_system_info structure in tse_mac_device[]
 */
alt_32 alt_tse_get_system_index(alt_tse_system_info *psys_info) {
 10055d8:	defffc04 	addi	sp,sp,-16
 10055dc:	dfc00315 	stw	ra,12(sp)
 10055e0:	df000215 	stw	fp,8(sp)
 10055e4:	df000204 	addi	fp,sp,8
 10055e8:	e13ffe15 	stw	r4,-8(fp)
    alt_32 i;
    
    for(i = 0; i < max_mac_system; i++) {
 10055ec:	e03fff15 	stw	zero,-4(fp)
 10055f0:	00000e06 	br	100562c <alt_tse_get_system_index+0x54>
        if(psys_info == &tse_mac_device[i]) {
 10055f4:	01401304 	movi	r5,76
 10055f8:	e13fff17 	ldw	r4,-4(fp)
 10055fc:	1002f140 	call	1002f14 <__mulsi3>
 1005600:	1007883a 	mov	r3,r2
 1005604:	00804074 	movhi	r2,257
 1005608:	10b93504 	addi	r2,r2,-6956
 100560c:	1885883a 	add	r2,r3,r2
 1005610:	e0fffe17 	ldw	r3,-8(fp)
 1005614:	1880021e 	bne	r3,r2,1005620 <alt_tse_get_system_index+0x48>
            return i;
 1005618:	e0bfff17 	ldw	r2,-4(fp)
 100561c:	00000806 	br	1005640 <alt_tse_get_system_index+0x68>
    for(i = 0; i < max_mac_system; i++) {
 1005620:	e0bfff17 	ldw	r2,-4(fp)
 1005624:	10800044 	addi	r2,r2,1
 1005628:	e0bfff15 	stw	r2,-4(fp)
 100562c:	d0a00503 	ldbu	r2,-32748(gp)
 1005630:	10803fcc 	andi	r2,r2,255
 1005634:	e0ffff17 	ldw	r3,-4(fp)
 1005638:	18bfee16 	blt	r3,r2,10055f4 <alt_tse_get_system_index+0x1c>
        }
    }
    return ALTERA_TSE_NO_INDEX_FOUND;
 100563c:	00bfffc4 	movi	r2,-1
}
 1005640:	e037883a 	mov	sp,fp
 1005644:	dfc00117 	ldw	ra,4(sp)
 1005648:	df000017 	ldw	fp,0(sp)
 100564c:	dec00204 	addi	sp,sp,8
 1005650:	f800283a 	ret

01005654 <alt_tse_get_mac_group_index>:
/* @Function Description: Get the index of alt_tse_mac_group structure in pmac_groups[]
 * @API Type:         Internal
 * @param pmac_group  Pointer to the alt_tse_mac_group structure
 * @return            Index of alt_tse_mac_group structure in pmac_groups[]
 */
alt_32 alt_tse_get_mac_group_index(alt_tse_mac_group *pmac_group) {
 1005654:	defffd04 	addi	sp,sp,-12
 1005658:	df000215 	stw	fp,8(sp)
 100565c:	df000204 	addi	fp,sp,8
 1005660:	e13ffe15 	stw	r4,-8(fp)
    alt_32 i;
    
    for(i = 0; i < mac_group_count; i++) {
 1005664:	e03fff15 	stw	zero,-4(fp)
 1005668:	00000c06 	br	100569c <alt_tse_get_mac_group_index+0x48>
        if(pmac_group == pmac_groups[i]) {
 100566c:	e0bfff17 	ldw	r2,-4(fp)
 1005670:	100690ba 	slli	r3,r2,2
 1005674:	00804074 	movhi	r2,257
 1005678:	1885883a 	add	r2,r3,r2
 100567c:	10b9d817 	ldw	r2,-6304(r2)
 1005680:	e0fffe17 	ldw	r3,-8(fp)
 1005684:	1880021e 	bne	r3,r2,1005690 <alt_tse_get_mac_group_index+0x3c>
            return i;
 1005688:	e0bfff17 	ldw	r2,-4(fp)
 100568c:	00000806 	br	10056b0 <alt_tse_get_mac_group_index+0x5c>
    for(i = 0; i < mac_group_count; i++) {
 1005690:	e0bfff17 	ldw	r2,-4(fp)
 1005694:	10800044 	addi	r2,r2,1
 1005698:	e0bfff15 	stw	r2,-4(fp)
 100569c:	d0a0f243 	ldbu	r2,-31799(gp)
 10056a0:	10803fcc 	andi	r2,r2,255
 10056a4:	e0ffff17 	ldw	r3,-4(fp)
 10056a8:	18bff016 	blt	r3,r2,100566c <alt_tse_get_mac_group_index+0x18>
        }
    }
    return ALTERA_TSE_NO_INDEX_FOUND;
 10056ac:	00bfffc4 	movi	r2,-1
}
 10056b0:	e037883a 	mov	sp,fp
 10056b4:	df000017 	ldw	fp,0(sp)
 10056b8:	dec00104 	addi	sp,sp,4
 10056bc:	f800283a 	ret

010056c0 <alt_tse_get_mac_info_index>:
/* @Function Description: Get the index of alt_tse_mac_info structure in pmac_groups[]->pmac_info[]
 * @API Type:         Internal
 * @param pmac_group  Pointer to the alt_tse_mac_info structure
 * @return            Index of alt_tse_mac_info structure in pmac_groups[]->pmac_info[]
 */
alt_32 alt_tse_get_mac_info_index(alt_tse_mac_info *pmac_info) {
 10056c0:	defffd04 	addi	sp,sp,-12
 10056c4:	df000215 	stw	fp,8(sp)
 10056c8:	df000204 	addi	fp,sp,8
 10056cc:	e13ffe15 	stw	r4,-8(fp)
    alt_32 i;
    
    for(i = 0; i < pmac_info->pmac_group->channel; i++) {
 10056d0:	e03fff15 	stw	zero,-4(fp)
 10056d4:	00000e06 	br	1005710 <alt_tse_get_mac_info_index+0x50>
        if(pmac_info == pmac_info->pmac_group->pmac_info[i]) {
 10056d8:	e0bffe17 	ldw	r2,-8(fp)
 10056dc:	10c00317 	ldw	r3,12(r2)
 10056e0:	e0bfff17 	ldw	r2,-4(fp)
 10056e4:	10800044 	addi	r2,r2,1
 10056e8:	100490ba 	slli	r2,r2,2
 10056ec:	1885883a 	add	r2,r3,r2
 10056f0:	10800017 	ldw	r2,0(r2)
 10056f4:	e0fffe17 	ldw	r3,-8(fp)
 10056f8:	1880021e 	bne	r3,r2,1005704 <alt_tse_get_mac_info_index+0x44>
            return i;
 10056fc:	e0bfff17 	ldw	r2,-4(fp)
 1005700:	00000a06 	br	100572c <alt_tse_get_mac_info_index+0x6c>
    for(i = 0; i < pmac_info->pmac_group->channel; i++) {
 1005704:	e0bfff17 	ldw	r2,-4(fp)
 1005708:	10800044 	addi	r2,r2,1
 100570c:	e0bfff15 	stw	r2,-4(fp)
 1005710:	e0bffe17 	ldw	r2,-8(fp)
 1005714:	10800317 	ldw	r2,12(r2)
 1005718:	10800003 	ldbu	r2,0(r2)
 100571c:	10803fcc 	andi	r2,r2,255
 1005720:	e0ffff17 	ldw	r3,-4(fp)
 1005724:	18bfec16 	blt	r3,r2,10056d8 <alt_tse_get_mac_info_index+0x18>
        }
    }
    
    return ALTERA_TSE_NO_INDEX_FOUND;
 1005728:	00bfffc4 	movi	r2,-1
}
 100572c:	e037883a 	mov	sp,fp
 1005730:	df000017 	ldw	fp,0(sp)
 1005734:	dec00104 	addi	sp,sp,4
 1005738:	f800283a 	ret

0100573c <alt_tse_get_mac_info>:
/* @Function Description: Get the pointer of alt_tse_mac_info structure in pmac_groups[]->pmac_info[]
 * @API Type:         Internal
 * @param pmac        Pointer to the TSE MAC Control Interface Base address
 * @return            Pointer to alt_tse_mac_info structure in pmac_groups[]->pmac_info[]
 */
alt_tse_mac_info *alt_tse_get_mac_info(np_tse_mac *pmac) {
 100573c:	defffa04 	addi	sp,sp,-24
 1005740:	df000515 	stw	fp,20(sp)
 1005744:	df000504 	addi	fp,sp,20
 1005748:	e13ffb15 	stw	r4,-20(fp)
    alt_32 i;
    alt_32 j;
    alt_tse_mac_group *pmac_group = 0;
 100574c:	e03ffd15 	stw	zero,-12(fp)
    alt_tse_mac_info *pmac_info = 0;
 1005750:	e03ffc15 	stw	zero,-16(fp)
    
    for(i = 0; i < mac_group_count; i++) {
 1005754:	e03fff15 	stw	zero,-4(fp)
 1005758:	00002206 	br	10057e4 <alt_tse_get_mac_info+0xa8>
        pmac_group = pmac_groups[i];
 100575c:	e0bfff17 	ldw	r2,-4(fp)
 1005760:	100690ba 	slli	r3,r2,2
 1005764:	00804074 	movhi	r2,257
 1005768:	1885883a 	add	r2,r3,r2
 100576c:	10b9d817 	ldw	r2,-6304(r2)
 1005770:	e0bffd15 	stw	r2,-12(fp)
        for(j = 0; j < pmac_group->channel; j++) {
 1005774:	e03ffe15 	stw	zero,-8(fp)
 1005778:	00001206 	br	10057c4 <alt_tse_get_mac_info+0x88>
            pmac_info = pmac_group->pmac_info[j];
 100577c:	e0fffd17 	ldw	r3,-12(fp)
 1005780:	e0bffe17 	ldw	r2,-8(fp)
 1005784:	10800044 	addi	r2,r2,1
 1005788:	100490ba 	slli	r2,r2,2
 100578c:	1885883a 	add	r2,r3,r2
 1005790:	10800017 	ldw	r2,0(r2)
 1005794:	e0bffc15 	stw	r2,-16(fp)
            if(((np_tse_mac *) pmac_info->psys_info->tse_mac_base) == pmac) {
 1005798:	e0bffc17 	ldw	r2,-16(fp)
 100579c:	10800217 	ldw	r2,8(r2)
 10057a0:	10800017 	ldw	r2,0(r2)
 10057a4:	1007883a 	mov	r3,r2
 10057a8:	e0bffb17 	ldw	r2,-20(fp)
 10057ac:	10c0021e 	bne	r2,r3,10057b8 <alt_tse_get_mac_info+0x7c>
                return pmac_info;
 10057b0:	e0bffc17 	ldw	r2,-16(fp)
 10057b4:	00001006 	br	10057f8 <alt_tse_get_mac_info+0xbc>
        for(j = 0; j < pmac_group->channel; j++) {
 10057b8:	e0bffe17 	ldw	r2,-8(fp)
 10057bc:	10800044 	addi	r2,r2,1
 10057c0:	e0bffe15 	stw	r2,-8(fp)
 10057c4:	e0bffd17 	ldw	r2,-12(fp)
 10057c8:	10800003 	ldbu	r2,0(r2)
 10057cc:	10803fcc 	andi	r2,r2,255
 10057d0:	e0fffe17 	ldw	r3,-8(fp)
 10057d4:	18bfe916 	blt	r3,r2,100577c <alt_tse_get_mac_info+0x40>
    for(i = 0; i < mac_group_count; i++) {
 10057d8:	e0bfff17 	ldw	r2,-4(fp)
 10057dc:	10800044 	addi	r2,r2,1
 10057e0:	e0bfff15 	stw	r2,-4(fp)
 10057e4:	d0a0f243 	ldbu	r2,-31799(gp)
 10057e8:	10803fcc 	andi	r2,r2,255
 10057ec:	e0ffff17 	ldw	r3,-4(fp)
 10057f0:	18bfda16 	blt	r3,r2,100575c <alt_tse_get_mac_info+0x20>
            }
        }        
    }
    
    return 0;
 10057f4:	0005883a 	mov	r2,zero
}
 10057f8:	e037883a 	mov	sp,fp
 10057fc:	df000017 	ldw	fp,0(sp)
 1005800:	dec00104 	addi	sp,sp,4
 1005804:	f800283a 	ret

01005808 <alt_tse_mac_set_speed>:
 * @param pmac  Pointer to the TSE MAC Control Interface Base address
 * @param speed 2 = 1000 Mbps, 1 = 100 Mbps, 0 = 10 Mbps
 * @return ENP_PARAM if invalid speed specified, else return SUCCESS
 */
alt_32 alt_tse_mac_set_speed(np_tse_mac *pmac, alt_u8 speed)
{
 1005808:	defffc04 	addi	sp,sp,-16
 100580c:	df000315 	stw	fp,12(sp)
 1005810:	df000304 	addi	fp,sp,12
 1005814:	e13ffe15 	stw	r4,-8(fp)
 1005818:	2805883a 	mov	r2,r5
 100581c:	e0bffd05 	stb	r2,-12(fp)
  alt_32 helpvar;
  
  helpvar = IORD_ALTERA_TSEMAC_CMD_CONFIG(pmac);
 1005820:	e0bffe17 	ldw	r2,-8(fp)
 1005824:	10800204 	addi	r2,r2,8
 1005828:	10800037 	ldwio	r2,0(r2)
 100582c:	e0bfff15 	stw	r2,-4(fp)
  
  /* 1000 Mbps */
  if(speed == TSE_PHY_SPEED_1000) {
 1005830:	e0bffd03 	ldbu	r2,-12(fp)
 1005834:	10800098 	cmpnei	r2,r2,2
 1005838:	1000091e 	bne	r2,zero,1005860 <alt_tse_mac_set_speed+0x58>
    helpvar |= ALTERA_TSEMAC_CMD_ETH_SPEED_MSK;
 100583c:	e0bfff17 	ldw	r2,-4(fp)
 1005840:	10800214 	ori	r2,r2,8
 1005844:	e0bfff15 	stw	r2,-4(fp)
    helpvar &= ~ALTERA_TSEMAC_CMD_ENA_10_MSK;
 1005848:	e0ffff17 	ldw	r3,-4(fp)
 100584c:	00bf8034 	movhi	r2,65024
 1005850:	10bfffc4 	addi	r2,r2,-1
 1005854:	1884703a 	and	r2,r3,r2
 1005858:	e0bfff15 	stw	r2,-4(fp)
 100585c:	00001906 	br	10058c4 <alt_tse_mac_set_speed+0xbc>
  }
  /* 100 Mbps */
  else if(speed == TSE_PHY_SPEED_100) {
 1005860:	e0bffd03 	ldbu	r2,-12(fp)
 1005864:	10800058 	cmpnei	r2,r2,1
 1005868:	10000a1e 	bne	r2,zero,1005894 <alt_tse_mac_set_speed+0x8c>
    helpvar &= ~ALTERA_TSEMAC_CMD_ETH_SPEED_MSK;
 100586c:	e0ffff17 	ldw	r3,-4(fp)
 1005870:	00bffdc4 	movi	r2,-9
 1005874:	1884703a 	and	r2,r3,r2
 1005878:	e0bfff15 	stw	r2,-4(fp)
    helpvar &= ~ALTERA_TSEMAC_CMD_ENA_10_MSK;
 100587c:	e0ffff17 	ldw	r3,-4(fp)
 1005880:	00bf8034 	movhi	r2,65024
 1005884:	10bfffc4 	addi	r2,r2,-1
 1005888:	1884703a 	and	r2,r3,r2
 100588c:	e0bfff15 	stw	r2,-4(fp)
 1005890:	00000c06 	br	10058c4 <alt_tse_mac_set_speed+0xbc>
  }
  /* 10 Mbps */
  else if(speed == TSE_PHY_SPEED_10) {
 1005894:	e0bffd03 	ldbu	r2,-12(fp)
 1005898:	1000081e 	bne	r2,zero,10058bc <alt_tse_mac_set_speed+0xb4>
    helpvar &= ~ALTERA_TSEMAC_CMD_ETH_SPEED_MSK;
 100589c:	e0ffff17 	ldw	r3,-4(fp)
 10058a0:	00bffdc4 	movi	r2,-9
 10058a4:	1884703a 	and	r2,r3,r2
 10058a8:	e0bfff15 	stw	r2,-4(fp)
    helpvar |= ALTERA_TSEMAC_CMD_ENA_10_MSK;
 10058ac:	e0bfff17 	ldw	r2,-4(fp)
 10058b0:	10808034 	orhi	r2,r2,512
 10058b4:	e0bfff15 	stw	r2,-4(fp)
 10058b8:	00000206 	br	10058c4 <alt_tse_mac_set_speed+0xbc>
  }  
  else {
    return ENP_PARAM;
 10058bc:	00bffd84 	movi	r2,-10
 10058c0:	00000506 	br	10058d8 <alt_tse_mac_set_speed+0xd0>
  }
  
  IOWR_ALTERA_TSEMAC_CMD_CONFIG(pmac, helpvar);
 10058c4:	e0bffe17 	ldw	r2,-8(fp)
 10058c8:	10800204 	addi	r2,r2,8
 10058cc:	e0ffff17 	ldw	r3,-4(fp)
 10058d0:	10c00035 	stwio	r3,0(r2)
  return SUCCESS;
 10058d4:	0005883a 	mov	r2,zero
}
 10058d8:	e037883a 	mov	sp,fp
 10058dc:	df000017 	ldw	fp,0(sp)
 10058e0:	dec00104 	addi	sp,sp,4
 10058e4:	f800283a 	ret

010058e8 <alt_tse_mac_set_duplex>:
 * @param pmac  Pointer to the TSE MAC Control Interface Base address
 * @param duplex 1 = Full Duplex, 0 = Half Duplex
 * @return ENP_PARAM if invalid duplex specified, else return SUCCESS
 */
alt_32 alt_tse_mac_set_duplex(np_tse_mac *pmac, alt_u8 duplex)
{
 10058e8:	defffc04 	addi	sp,sp,-16
 10058ec:	df000315 	stw	fp,12(sp)
 10058f0:	df000304 	addi	fp,sp,12
 10058f4:	e13ffe15 	stw	r4,-8(fp)
 10058f8:	2805883a 	mov	r2,r5
 10058fc:	e0bffd05 	stb	r2,-12(fp)
  alt_32 helpvar;
  
  helpvar = IORD_ALTERA_TSEMAC_CMD_CONFIG(pmac);
 1005900:	e0bffe17 	ldw	r2,-8(fp)
 1005904:	10800204 	addi	r2,r2,8
 1005908:	10800037 	ldwio	r2,0(r2)
 100590c:	e0bfff15 	stw	r2,-4(fp)
  
  /* Half Duplex */
  if(duplex == TSE_PHY_DUPLEX_HALF) {
 1005910:	e0bffd03 	ldbu	r2,-12(fp)
 1005914:	1000041e 	bne	r2,zero,1005928 <alt_tse_mac_set_duplex+0x40>
    helpvar |= ALTERA_TSEMAC_CMD_HD_ENA_MSK;
 1005918:	e0bfff17 	ldw	r2,-4(fp)
 100591c:	10810014 	ori	r2,r2,1024
 1005920:	e0bfff15 	stw	r2,-4(fp)
 1005924:	00000a06 	br	1005950 <alt_tse_mac_set_duplex+0x68>
  } 
  /* Full Duplex */
  else if(duplex == TSE_PHY_DUPLEX_FULL) {
 1005928:	e0bffd03 	ldbu	r2,-12(fp)
 100592c:	10800058 	cmpnei	r2,r2,1
 1005930:	1000051e 	bne	r2,zero,1005948 <alt_tse_mac_set_duplex+0x60>
    helpvar &= ~ALTERA_TSEMAC_CMD_HD_ENA_MSK;
 1005934:	e0ffff17 	ldw	r3,-4(fp)
 1005938:	00beffc4 	movi	r2,-1025
 100593c:	1884703a 	and	r2,r3,r2
 1005940:	e0bfff15 	stw	r2,-4(fp)
 1005944:	00000206 	br	1005950 <alt_tse_mac_set_duplex+0x68>
  }
  else {
    return ENP_PARAM;
 1005948:	00bffd84 	movi	r2,-10
 100594c:	00000506 	br	1005964 <alt_tse_mac_set_duplex+0x7c>
  }
  
  IOWR_ALTERA_TSEMAC_CMD_CONFIG(pmac, helpvar);
 1005950:	e0bffe17 	ldw	r2,-8(fp)
 1005954:	10800204 	addi	r2,r2,8
 1005958:	e0ffff17 	ldw	r3,-4(fp)
 100595c:	10c00035 	stwio	r3,0(r2)
  return SUCCESS;
 1005960:	0005883a 	mov	r2,zero

}
 1005964:	e037883a 	mov	sp,fp
 1005968:	df000017 	ldw	fp,0(sp)
 100596c:	dec00104 	addi	sp,sp,4
 1005970:	f800283a 	ret

01005974 <getPHYSpeed>:
      (((speed == TSE_PHY_SPEED_1000) ? 1 : 0) << 1) |   \
    (((speed == TSE_PHY_SPEED_100) ? 1 : 0) << 2) |     \
    (((speed == TSE_PHY_SPEED_10) ? 1 : 0) << 3) |      \
    ((speed == TSE_PHY_SPEED_INVALID) ? ALT_TSE_E_INVALID_SPEED : 0))
  
alt_32 getPHYSpeed(np_tse_mac *pmac) {
 1005974:	defff404 	addi	sp,sp,-48
 1005978:	dfc00b15 	stw	ra,44(sp)
 100597c:	df000a15 	stw	fp,40(sp)
 1005980:	df000a04 	addi	fp,sp,40
 1005984:	e13ff715 	stw	r4,-36(fp)

    alt_u8 speed = ALTERA_TSE_MAC_SPEED_DEFAULT;
 1005988:	00800044 	movi	r2,1
 100598c:	e0bfffc5 	stb	r2,-1(fp)
    alt_u8 duplex = ALTERA_TSE_DUPLEX_MODE_DEFAULT;     /* 1 = full ; 0 = half*/
 1005990:	00800044 	movi	r2,1
 1005994:	e0bfff85 	stb	r2,-2(fp)
    alt_32 result = ALT_TSE_SPEED_DUPLEX(speed, duplex);
 1005998:	e0bfff83 	ldbu	r2,-2(fp)
 100599c:	10c0004c 	andi	r3,r2,1
 10059a0:	e0bfffc3 	ldbu	r2,-1(fp)
 10059a4:	10800098 	cmpnei	r2,r2,2
 10059a8:	1000021e 	bne	r2,zero,10059b4 <getPHYSpeed+0x40>
 10059ac:	00800084 	movi	r2,2
 10059b0:	00000106 	br	10059b8 <getPHYSpeed+0x44>
 10059b4:	0005883a 	mov	r2,zero
 10059b8:	10c6b03a 	or	r3,r2,r3
 10059bc:	e0bfffc3 	ldbu	r2,-1(fp)
 10059c0:	10800058 	cmpnei	r2,r2,1
 10059c4:	1000021e 	bne	r2,zero,10059d0 <getPHYSpeed+0x5c>
 10059c8:	00800104 	movi	r2,4
 10059cc:	00000106 	br	10059d4 <getPHYSpeed+0x60>
 10059d0:	0005883a 	mov	r2,zero
 10059d4:	10c6b03a 	or	r3,r2,r3
 10059d8:	e0bfffc3 	ldbu	r2,-1(fp)
 10059dc:	1000021e 	bne	r2,zero,10059e8 <getPHYSpeed+0x74>
 10059e0:	00800204 	movi	r2,8
 10059e4:	00000106 	br	10059ec <getPHYSpeed+0x78>
 10059e8:	0005883a 	mov	r2,zero
 10059ec:	10c6b03a 	or	r3,r2,r3
 10059f0:	e0bfffc3 	ldbu	r2,-1(fp)
 10059f4:	108000d8 	cmpnei	r2,r2,3
 10059f8:	1000021e 	bne	r2,zero,1005a04 <getPHYSpeed+0x90>
 10059fc:	00800074 	movhi	r2,1
 1005a00:	00000106 	br	1005a08 <getPHYSpeed+0x94>
 1005a04:	0005883a 	mov	r2,zero
 1005a08:	10c4b03a 	or	r2,r2,r3
 1005a0c:	e0bffe15 	stw	r2,-8(fp)
    
    alt_tse_phy_info *pphy = 0;
 1005a10:	e03ffd15 	stw	zero,-12(fp)
    alt_tse_mac_info *pmac_info = 0;
 1005a14:	e03ffc15 	stw	zero,-16(fp)
    alt_tse_mac_group *pmac_group = 0;
 1005a18:	e03ffb15 	stw	zero,-20(fp)
    alt_tse_system_info *psys = 0;
 1005a1c:	e03ffa15 	stw	zero,-24(fp)
    
    
    /* get index of the pointers in pointer array list */
    alt_8 mac_info_index = 0;
 1005a20:	e03ff9c5 	stb	zero,-25(fp)
    alt_8 mac_group_index = 0;
 1005a24:	e03ff985 	stb	zero,-26(fp)
    
    /* initialized PHYs only once */
    static alt_u8 is_init = 0;
    if(is_init == 0) {
 1005a28:	d0a0f2c3 	ldbu	r2,-31797(gp)
 1005a2c:	10803fcc 	andi	r2,r2,255
 1005a30:	1000031e 	bne	r2,zero,1005a40 <getPHYSpeed+0xcc>
        alt_tse_phy_init();
 1005a34:	10079380 	call	1007938 <alt_tse_phy_init>
        is_init = 1;
 1005a38:	00800044 	movi	r2,1
 1005a3c:	d0a0f2c5 	stb	r2,-31797(gp)
    }
    
    /* Look for pmac_group and pmac_info structure based on pmac or iface */
    pmac_info = alt_tse_get_mac_info(pmac);
 1005a40:	e13ff717 	ldw	r4,-36(fp)
 1005a44:	100573c0 	call	100573c <alt_tse_get_mac_info>
 1005a48:	e0bffc15 	stw	r2,-16(fp)
    
    if(pmac_info == 0) {
 1005a4c:	e0bffc17 	ldw	r2,-16(fp)
 1005a50:	1000481e 	bne	r2,zero,1005b74 <getPHYSpeed+0x200>
        speed = ALTERA_TSE_MAC_SPEED_DEFAULT;
 1005a54:	00800044 	movi	r2,1
 1005a58:	e0bfffc5 	stb	r2,-1(fp)
        duplex = ALTERA_TSE_DUPLEX_MODE_DEFAULT;
 1005a5c:	00800044 	movi	r2,1
 1005a60:	e0bfff85 	stb	r2,-2(fp)
        result = ALT_TSE_SPEED_DUPLEX(speed, duplex) | ALT_TSE_E_NO_PMAC_FOUND;
 1005a64:	e0bfff83 	ldbu	r2,-2(fp)
 1005a68:	10c0004c 	andi	r3,r2,1
 1005a6c:	e0bfffc3 	ldbu	r2,-1(fp)
 1005a70:	10800098 	cmpnei	r2,r2,2
 1005a74:	1000021e 	bne	r2,zero,1005a80 <getPHYSpeed+0x10c>
 1005a78:	00800084 	movi	r2,2
 1005a7c:	00000106 	br	1005a84 <getPHYSpeed+0x110>
 1005a80:	0005883a 	mov	r2,zero
 1005a84:	10c6b03a 	or	r3,r2,r3
 1005a88:	e0bfffc3 	ldbu	r2,-1(fp)
 1005a8c:	10800058 	cmpnei	r2,r2,1
 1005a90:	1000021e 	bne	r2,zero,1005a9c <getPHYSpeed+0x128>
 1005a94:	00800104 	movi	r2,4
 1005a98:	00000106 	br	1005aa0 <getPHYSpeed+0x12c>
 1005a9c:	0005883a 	mov	r2,zero
 1005aa0:	10c6b03a 	or	r3,r2,r3
 1005aa4:	e0bfffc3 	ldbu	r2,-1(fp)
 1005aa8:	1000021e 	bne	r2,zero,1005ab4 <getPHYSpeed+0x140>
 1005aac:	00800204 	movi	r2,8
 1005ab0:	00000106 	br	1005ab8 <getPHYSpeed+0x144>
 1005ab4:	0005883a 	mov	r2,zero
 1005ab8:	10c6b03a 	or	r3,r2,r3
 1005abc:	e0bfffc3 	ldbu	r2,-1(fp)
 1005ac0:	108000d8 	cmpnei	r2,r2,3
 1005ac4:	1000021e 	bne	r2,zero,1005ad0 <getPHYSpeed+0x15c>
 1005ac8:	00800074 	movhi	r2,1
 1005acc:	00000106 	br	1005ad4 <getPHYSpeed+0x160>
 1005ad0:	0005883a 	mov	r2,zero
 1005ad4:	10c4b03a 	or	r2,r2,r3
 1005ad8:	10802034 	orhi	r2,r2,128
 1005adc:	e0bffe15 	stw	r2,-8(fp)
        tse_dprintf(2, "ERROR   : [getPHYSpeed] pmac not found from list of pmac_info[]! Speed = %s Mbps, Duplex = %s\n", speed == TSE_PHY_SPEED_1000 ? "1000" :
 1005ae0:	e0bfffc3 	ldbu	r2,-1(fp)
 1005ae4:	108000a0 	cmpeqi	r2,r2,2
 1005ae8:	10000e1e 	bne	r2,zero,1005b24 <getPHYSpeed+0x1b0>
 1005aec:	e0bfffc3 	ldbu	r2,-1(fp)
 1005af0:	10800060 	cmpeqi	r2,r2,1
 1005af4:	1000081e 	bne	r2,zero,1005b18 <getPHYSpeed+0x1a4>
 1005af8:	e0bfffc3 	ldbu	r2,-1(fp)
 1005afc:	1000031e 	bne	r2,zero,1005b0c <getPHYSpeed+0x198>
 1005b00:	00804074 	movhi	r2,257
 1005b04:	10ae7404 	addi	r2,r2,-17968
 1005b08:	00000806 	br	1005b2c <getPHYSpeed+0x1b8>
 1005b0c:	00804074 	movhi	r2,257
 1005b10:	10ae7504 	addi	r2,r2,-17964
 1005b14:	00000506 	br	1005b2c <getPHYSpeed+0x1b8>
 1005b18:	00804074 	movhi	r2,257
 1005b1c:	10ae7704 	addi	r2,r2,-17956
 1005b20:	00000206 	br	1005b2c <getPHYSpeed+0x1b8>
 1005b24:	00804074 	movhi	r2,257
 1005b28:	10ae7804 	addi	r2,r2,-17952
 1005b2c:	e0ffff83 	ldbu	r3,-2(fp)
 1005b30:	18c00058 	cmpnei	r3,r3,1
 1005b34:	1800031e 	bne	r3,zero,1005b44 <getPHYSpeed+0x1d0>
 1005b38:	00c04074 	movhi	r3,257
 1005b3c:	18ee7a04 	addi	r3,r3,-17944
 1005b40:	00000206 	br	1005b4c <getPHYSpeed+0x1d8>
 1005b44:	00c04074 	movhi	r3,257
 1005b48:	18ee7c04 	addi	r3,r3,-17936
 1005b4c:	180d883a 	mov	r6,r3
 1005b50:	100b883a 	mov	r5,r2
 1005b54:	01004074 	movhi	r4,257
 1005b58:	212e7e04 	addi	r4,r4,-17928
 1005b5c:	100460c0 	call	100460c <no_printf>
                                                                                 speed == TSE_PHY_SPEED_100 ? "100" :
                                                                                 speed == TSE_PHY_SPEED_10 ? "10" : "Unknown",
                                                                                 duplex == 1 ? "Full" : "Half");
        tse_dprintf(2, "ERROR   : [getPHYSpeed] Please define tse_mac_device[] correctly\n");
 1005b60:	01004074 	movhi	r4,257
 1005b64:	212e9604 	addi	r4,r4,-17832
 1005b68:	100460c0 	call	100460c <no_printf>
        return result;
 1005b6c:	e0bffe17 	ldw	r2,-8(fp)
 1005b70:	00021906 	br	10063d8 <getPHYSpeed+0xa64>
    }
    
    pphy = pmac_info->pphy_info;
 1005b74:	e0bffc17 	ldw	r2,-16(fp)
 1005b78:	10800117 	ldw	r2,4(r2)
 1005b7c:	e0bffd15 	stw	r2,-12(fp)
    pmac_group = pmac_info->pmac_group;
 1005b80:	e0bffc17 	ldw	r2,-16(fp)
 1005b84:	10800317 	ldw	r2,12(r2)
 1005b88:	e0bffb15 	stw	r2,-20(fp)
    psys = pmac_info->psys_info;
 1005b8c:	e0bffc17 	ldw	r2,-16(fp)
 1005b90:	10800217 	ldw	r2,8(r2)
 1005b94:	e0bffa15 	stw	r2,-24(fp)
    
    mac_info_index = alt_tse_get_mac_info_index(pmac_info);
 1005b98:	e13ffc17 	ldw	r4,-16(fp)
 1005b9c:	10056c00 	call	10056c0 <alt_tse_get_mac_info_index>
 1005ba0:	e0bff9c5 	stb	r2,-25(fp)
    mac_group_index = alt_tse_get_mac_group_index(pmac_group);
 1005ba4:	e13ffb17 	ldw	r4,-20(fp)
 1005ba8:	10056540 	call	1005654 <alt_tse_get_mac_group_index>
 1005bac:	e0bff985 	stb	r2,-26(fp)
         
    /* MDIO is not used */
    if (pmac_group->pmac_info[0]->psys_info->tse_use_mdio == 0)
 1005bb0:	e0bffb17 	ldw	r2,-20(fp)
 1005bb4:	10800117 	ldw	r2,4(r2)
 1005bb8:	10800217 	ldw	r2,8(r2)
 1005bbc:	10800303 	ldbu	r2,12(r2)
 1005bc0:	10803fcc 	andi	r2,r2,255
 1005bc4:	10005a1e 	bne	r2,zero,1005d30 <getPHYSpeed+0x3bc>
    {
        speed = ALTERA_TSE_MAC_SPEED_DEFAULT;
 1005bc8:	00800044 	movi	r2,1
 1005bcc:	e0bfffc5 	stb	r2,-1(fp)
        duplex = ALTERA_TSE_DUPLEX_MODE_DEFAULT;
 1005bd0:	00800044 	movi	r2,1
 1005bd4:	e0bfff85 	stb	r2,-2(fp)
        result = ALT_TSE_SPEED_DUPLEX(speed, duplex) | ALT_TSE_E_NO_MDIO;
 1005bd8:	e0bfff83 	ldbu	r2,-2(fp)
 1005bdc:	10c0004c 	andi	r3,r2,1
 1005be0:	e0bfffc3 	ldbu	r2,-1(fp)
 1005be4:	10800098 	cmpnei	r2,r2,2
 1005be8:	1000021e 	bne	r2,zero,1005bf4 <getPHYSpeed+0x280>
 1005bec:	00800084 	movi	r2,2
 1005bf0:	00000106 	br	1005bf8 <getPHYSpeed+0x284>
 1005bf4:	0005883a 	mov	r2,zero
 1005bf8:	10c6b03a 	or	r3,r2,r3
 1005bfc:	e0bfffc3 	ldbu	r2,-1(fp)
 1005c00:	10800058 	cmpnei	r2,r2,1
 1005c04:	1000021e 	bne	r2,zero,1005c10 <getPHYSpeed+0x29c>
 1005c08:	00800104 	movi	r2,4
 1005c0c:	00000106 	br	1005c14 <getPHYSpeed+0x2a0>
 1005c10:	0005883a 	mov	r2,zero
 1005c14:	10c6b03a 	or	r3,r2,r3
 1005c18:	e0bfffc3 	ldbu	r2,-1(fp)
 1005c1c:	1000021e 	bne	r2,zero,1005c28 <getPHYSpeed+0x2b4>
 1005c20:	00800204 	movi	r2,8
 1005c24:	00000106 	br	1005c2c <getPHYSpeed+0x2b8>
 1005c28:	0005883a 	mov	r2,zero
 1005c2c:	10c6b03a 	or	r3,r2,r3
 1005c30:	e0bfffc3 	ldbu	r2,-1(fp)
 1005c34:	108000d8 	cmpnei	r2,r2,3
 1005c38:	1000021e 	bne	r2,zero,1005c44 <getPHYSpeed+0x2d0>
 1005c3c:	00800074 	movhi	r2,1
 1005c40:	00000106 	br	1005c48 <getPHYSpeed+0x2d4>
 1005c44:	0005883a 	mov	r2,zero
 1005c48:	10c4b03a 	or	r2,r2,r3
 1005c4c:	10801034 	orhi	r2,r2,64
 1005c50:	e0bffe15 	stw	r2,-8(fp)
        usleep(ALTERA_NOMDIO_TIMEOUT_THRESHOLD);
 1005c54:	010003f4 	movhi	r4,15
 1005c58:	21109004 	addi	r4,r4,16960
 1005c5c:	100a1a40 	call	100a1a4 <usleep>
        if(psys->tse_phy_cfg) {
 1005c60:	e0bffa17 	ldw	r2,-24(fp)
 1005c64:	10801217 	ldw	r2,72(r2)
 1005c68:	10000d26 	beq	r2,zero,1005ca0 <getPHYSpeed+0x32c>
            tse_dprintf(4, "WARNING : PHY[%d.%d] - MDIO not enabled! Running user configuration...\n", mac_group_index, mac_info_index);
 1005c6c:	e0bff987 	ldb	r2,-26(fp)
 1005c70:	e0fff9c7 	ldb	r3,-25(fp)
 1005c74:	180d883a 	mov	r6,r3
 1005c78:	100b883a 	mov	r5,r2
 1005c7c:	01004074 	movhi	r4,257
 1005c80:	212ea704 	addi	r4,r4,-17764
 1005c84:	100460c0 	call	100460c <no_printf>
            result = psys->tse_phy_cfg(pmac);
 1005c88:	e0bffa17 	ldw	r2,-24(fp)
 1005c8c:	10801217 	ldw	r2,72(r2)
 1005c90:	e13ff717 	ldw	r4,-36(fp)
 1005c94:	103ee83a 	callr	r2
 1005c98:	e0bffe15 	stw	r2,-8(fp)
 1005c9c:	00002206 	br	1005d28 <getPHYSpeed+0x3b4>
        }
        else {
            tse_dprintf(4, "WARNING : MAC Group[%d] - MDIO not enabled! Speed = %s, Duplex = %s\n", mac_group_index, speed == TSE_PHY_SPEED_1000 ? "1000" :
 1005ca0:	e13ff987 	ldb	r4,-26(fp)
 1005ca4:	e0bfffc3 	ldbu	r2,-1(fp)
 1005ca8:	108000a0 	cmpeqi	r2,r2,2
 1005cac:	10000e1e 	bne	r2,zero,1005ce8 <getPHYSpeed+0x374>
 1005cb0:	e0bfffc3 	ldbu	r2,-1(fp)
 1005cb4:	10800060 	cmpeqi	r2,r2,1
 1005cb8:	1000081e 	bne	r2,zero,1005cdc <getPHYSpeed+0x368>
 1005cbc:	e0bfffc3 	ldbu	r2,-1(fp)
 1005cc0:	1000031e 	bne	r2,zero,1005cd0 <getPHYSpeed+0x35c>
 1005cc4:	00804074 	movhi	r2,257
 1005cc8:	10ae7404 	addi	r2,r2,-17968
 1005ccc:	00000806 	br	1005cf0 <getPHYSpeed+0x37c>
 1005cd0:	00804074 	movhi	r2,257
 1005cd4:	10ae7504 	addi	r2,r2,-17964
 1005cd8:	00000506 	br	1005cf0 <getPHYSpeed+0x37c>
 1005cdc:	00804074 	movhi	r2,257
 1005ce0:	10ae7704 	addi	r2,r2,-17956
 1005ce4:	00000206 	br	1005cf0 <getPHYSpeed+0x37c>
 1005ce8:	00804074 	movhi	r2,257
 1005cec:	10ae7804 	addi	r2,r2,-17952
 1005cf0:	e0ffff83 	ldbu	r3,-2(fp)
 1005cf4:	18c00058 	cmpnei	r3,r3,1
 1005cf8:	1800031e 	bne	r3,zero,1005d08 <getPHYSpeed+0x394>
 1005cfc:	00c04074 	movhi	r3,257
 1005d00:	18ee7a04 	addi	r3,r3,-17944
 1005d04:	00000206 	br	1005d10 <getPHYSpeed+0x39c>
 1005d08:	00c04074 	movhi	r3,257
 1005d0c:	18ee7c04 	addi	r3,r3,-17936
 1005d10:	180f883a 	mov	r7,r3
 1005d14:	100d883a 	mov	r6,r2
 1005d18:	200b883a 	mov	r5,r4
 1005d1c:	01004074 	movhi	r4,257
 1005d20:	212eb904 	addi	r4,r4,-17692
 1005d24:	100460c0 	call	100460c <no_printf>
                                                                                 speed == TSE_PHY_SPEED_100 ? "100" :
                                                                                 speed == TSE_PHY_SPEED_10 ? "10" : "Unknown",
                                                                                 duplex == 1 ? "Full" : "Half");
        }
        return result;
 1005d28:	e0bffe17 	ldw	r2,-8(fp)
 1005d2c:	0001aa06 	br	10063d8 <getPHYSpeed+0xa64>

    /* Not running simulation */
    #ifndef ALT_SIM_OPTIMIZE
    
        /* These variables declaration are here to avoid "warning: unused variable" message when compile for simulation */
        np_tse_mac *pmac_group_base = (np_tse_mac *) pmac_group->pmac_info[0]->psys_info->tse_mac_base;
 1005d30:	e0bffb17 	ldw	r2,-20(fp)
 1005d34:	10800117 	ldw	r2,4(r2)
 1005d38:	10800217 	ldw	r2,8(r2)
 1005d3c:	10800017 	ldw	r2,0(r2)
 1005d40:	e0bff815 	stw	r2,-32(fp)
    
        /* if no PHY connected to the MAC */
        if(pphy == 0) {
 1005d44:	e0bffd17 	ldw	r2,-12(fp)
 1005d48:	1000491e 	bne	r2,zero,1005e70 <getPHYSpeed+0x4fc>
            speed = ALTERA_TSE_MAC_SPEED_DEFAULT;
 1005d4c:	00800044 	movi	r2,1
 1005d50:	e0bfffc5 	stb	r2,-1(fp)
            duplex = ALTERA_TSE_DUPLEX_MODE_DEFAULT;
 1005d54:	00800044 	movi	r2,1
 1005d58:	e0bfff85 	stb	r2,-2(fp)
            result = ALT_TSE_SPEED_DUPLEX(speed, duplex) | ALT_TSE_E_NO_PHY;
 1005d5c:	e0bfff83 	ldbu	r2,-2(fp)
 1005d60:	10c0004c 	andi	r3,r2,1
 1005d64:	e0bfffc3 	ldbu	r2,-1(fp)
 1005d68:	10800098 	cmpnei	r2,r2,2
 1005d6c:	1000021e 	bne	r2,zero,1005d78 <getPHYSpeed+0x404>
 1005d70:	00800084 	movi	r2,2
 1005d74:	00000106 	br	1005d7c <getPHYSpeed+0x408>
 1005d78:	0005883a 	mov	r2,zero
 1005d7c:	10c6b03a 	or	r3,r2,r3
 1005d80:	e0bfffc3 	ldbu	r2,-1(fp)
 1005d84:	10800058 	cmpnei	r2,r2,1
 1005d88:	1000021e 	bne	r2,zero,1005d94 <getPHYSpeed+0x420>
 1005d8c:	00800104 	movi	r2,4
 1005d90:	00000106 	br	1005d98 <getPHYSpeed+0x424>
 1005d94:	0005883a 	mov	r2,zero
 1005d98:	10c6b03a 	or	r3,r2,r3
 1005d9c:	e0bfffc3 	ldbu	r2,-1(fp)
 1005da0:	1000021e 	bne	r2,zero,1005dac <getPHYSpeed+0x438>
 1005da4:	00800204 	movi	r2,8
 1005da8:	00000106 	br	1005db0 <getPHYSpeed+0x43c>
 1005dac:	0005883a 	mov	r2,zero
 1005db0:	10c6b03a 	or	r3,r2,r3
 1005db4:	e0bfffc3 	ldbu	r2,-1(fp)
 1005db8:	108000d8 	cmpnei	r2,r2,3
 1005dbc:	1000021e 	bne	r2,zero,1005dc8 <getPHYSpeed+0x454>
 1005dc0:	00800074 	movhi	r2,1
 1005dc4:	00000106 	br	1005dcc <getPHYSpeed+0x458>
 1005dc8:	0005883a 	mov	r2,zero
 1005dcc:	10c4b03a 	or	r2,r2,r3
 1005dd0:	10800834 	orhi	r2,r2,32
 1005dd4:	e0bffe15 	stw	r2,-8(fp)
            tse_dprintf(2, "ERROR   : PHY[%d.%d] - No PHY connected! Speed = %s, Duplex = %s\n", mac_group_index, mac_info_index, speed == TSE_PHY_SPEED_1000 ? "1000" :
 1005dd8:	e13ff987 	ldb	r4,-26(fp)
 1005ddc:	e17ff9c7 	ldb	r5,-25(fp)
 1005de0:	e0bfffc3 	ldbu	r2,-1(fp)
 1005de4:	108000a0 	cmpeqi	r2,r2,2
 1005de8:	10000e1e 	bne	r2,zero,1005e24 <getPHYSpeed+0x4b0>
 1005dec:	e0bfffc3 	ldbu	r2,-1(fp)
 1005df0:	10800060 	cmpeqi	r2,r2,1
 1005df4:	1000081e 	bne	r2,zero,1005e18 <getPHYSpeed+0x4a4>
 1005df8:	e0bfffc3 	ldbu	r2,-1(fp)
 1005dfc:	1000031e 	bne	r2,zero,1005e0c <getPHYSpeed+0x498>
 1005e00:	00804074 	movhi	r2,257
 1005e04:	10ae7404 	addi	r2,r2,-17968
 1005e08:	00000806 	br	1005e2c <getPHYSpeed+0x4b8>
 1005e0c:	00804074 	movhi	r2,257
 1005e10:	10ae7504 	addi	r2,r2,-17964
 1005e14:	00000506 	br	1005e2c <getPHYSpeed+0x4b8>
 1005e18:	00804074 	movhi	r2,257
 1005e1c:	10ae7704 	addi	r2,r2,-17956
 1005e20:	00000206 	br	1005e2c <getPHYSpeed+0x4b8>
 1005e24:	00804074 	movhi	r2,257
 1005e28:	10ae7804 	addi	r2,r2,-17952
 1005e2c:	e0ffff83 	ldbu	r3,-2(fp)
 1005e30:	18c00058 	cmpnei	r3,r3,1
 1005e34:	1800031e 	bne	r3,zero,1005e44 <getPHYSpeed+0x4d0>
 1005e38:	00c04074 	movhi	r3,257
 1005e3c:	18ee7a04 	addi	r3,r3,-17944
 1005e40:	00000206 	br	1005e4c <getPHYSpeed+0x4d8>
 1005e44:	00c04074 	movhi	r3,257
 1005e48:	18ee7c04 	addi	r3,r3,-17936
 1005e4c:	d8c00015 	stw	r3,0(sp)
 1005e50:	100f883a 	mov	r7,r2
 1005e54:	280d883a 	mov	r6,r5
 1005e58:	200b883a 	mov	r5,r4
 1005e5c:	01004074 	movhi	r4,257
 1005e60:	212ecb04 	addi	r4,r4,-17620
 1005e64:	100460c0 	call	100460c <no_printf>
                                                                                 speed == TSE_PHY_SPEED_100 ? "100" :
                                                                                 speed == TSE_PHY_SPEED_10 ? "10" : "Unknown",
                                                                                 duplex == 1 ? "Full" : "Half");
            return result;
 1005e68:	e0bffe17 	ldw	r2,-8(fp)
 1005e6c:	00015a06 	br	10063d8 <getPHYSpeed+0xa64>
        }

        /* Small MAC */
        if(pmac_info->mac_type == ALTERA_TSE_MACLITE_10_100) {
 1005e70:	e0bffc17 	ldw	r2,-16(fp)
 1005e74:	10800003 	ldbu	r2,0(r2)
 1005e78:	10803fcc 	andi	r2,r2,255
 1005e7c:	10800058 	cmpnei	r2,r2,1
 1005e80:	1000071e 	bne	r2,zero,1005ea0 <getPHYSpeed+0x52c>
            alt_tse_phy_set_adv_1000(pphy, 0);
 1005e84:	000b883a 	mov	r5,zero
 1005e88:	e13ffd17 	ldw	r4,-12(fp)
 1005e8c:	10083240 	call	1008324 <alt_tse_phy_set_adv_1000>
            alt_tse_phy_restart_an(pphy, ALTERA_AUTONEG_TIMEOUT_THRESHOLD);
 1005e90:	01427104 	movi	r5,2500
 1005e94:	e13ffd17 	ldw	r4,-12(fp)
 1005e98:	1007a440 	call	1007a44 <alt_tse_phy_restart_an>
 1005e9c:	00000e06 	br	1005ed8 <getPHYSpeed+0x564>
        }
        else if(pmac_info->mac_type == ALTERA_TSE_MACLITE_1000) {
 1005ea0:	e0bffc17 	ldw	r2,-16(fp)
 1005ea4:	10800003 	ldbu	r2,0(r2)
 1005ea8:	10803fcc 	andi	r2,r2,255
 1005eac:	10800098 	cmpnei	r2,r2,2
 1005eb0:	1000091e 	bne	r2,zero,1005ed8 <getPHYSpeed+0x564>
            alt_tse_phy_set_adv_100(pphy, 0);
 1005eb4:	000b883a 	mov	r5,zero
 1005eb8:	e13ffd17 	ldw	r4,-12(fp)
 1005ebc:	10084e80 	call	10084e8 <alt_tse_phy_set_adv_100>
            alt_tse_phy_set_adv_10(pphy, 0);
 1005ec0:	000b883a 	mov	r5,zero
 1005ec4:	e13ffd17 	ldw	r4,-12(fp)
 1005ec8:	100873c0 	call	100873c <alt_tse_phy_set_adv_10>
            alt_tse_phy_restart_an(pphy, ALTERA_AUTONEG_TIMEOUT_THRESHOLD);
 1005ecc:	01427104 	movi	r5,2500
 1005ed0:	e13ffd17 	ldw	r4,-12(fp)
 1005ed4:	1007a440 	call	1007a44 <alt_tse_phy_restart_an>
        }
        
        /* check link connection for this PHY */
        if(alt_tse_phy_check_link(pphy, ALTERA_AUTONEG_TIMEOUT_THRESHOLD) == TSE_PHY_AN_NOT_COMPLETE) {
 1005ed8:	01427104 	movi	r5,2500
 1005edc:	e13ffd17 	ldw	r4,-12(fp)
 1005ee0:	1007c080 	call	1007c08 <alt_tse_phy_check_link>
 1005ee4:	10bfffd8 	cmpnei	r2,r2,-1
 1005ee8:	1000491e 	bne	r2,zero,1006010 <getPHYSpeed+0x69c>
            speed = ALTERA_TSE_MAC_SPEED_DEFAULT;
 1005eec:	00800044 	movi	r2,1
 1005ef0:	e0bfffc5 	stb	r2,-1(fp)
            duplex = ALTERA_TSE_DUPLEX_MODE_DEFAULT;
 1005ef4:	00800044 	movi	r2,1
 1005ef8:	e0bfff85 	stb	r2,-2(fp)
            result = ALT_TSE_SPEED_DUPLEX(speed, duplex) | ALT_TSE_E_AN_NOT_COMPLETE;
 1005efc:	e0bfff83 	ldbu	r2,-2(fp)
 1005f00:	10c0004c 	andi	r3,r2,1
 1005f04:	e0bfffc3 	ldbu	r2,-1(fp)
 1005f08:	10800098 	cmpnei	r2,r2,2
 1005f0c:	1000021e 	bne	r2,zero,1005f18 <getPHYSpeed+0x5a4>
 1005f10:	00800084 	movi	r2,2
 1005f14:	00000106 	br	1005f1c <getPHYSpeed+0x5a8>
 1005f18:	0005883a 	mov	r2,zero
 1005f1c:	10c6b03a 	or	r3,r2,r3
 1005f20:	e0bfffc3 	ldbu	r2,-1(fp)
 1005f24:	10800058 	cmpnei	r2,r2,1
 1005f28:	1000021e 	bne	r2,zero,1005f34 <getPHYSpeed+0x5c0>
 1005f2c:	00800104 	movi	r2,4
 1005f30:	00000106 	br	1005f38 <getPHYSpeed+0x5c4>
 1005f34:	0005883a 	mov	r2,zero
 1005f38:	10c6b03a 	or	r3,r2,r3
 1005f3c:	e0bfffc3 	ldbu	r2,-1(fp)
 1005f40:	1000021e 	bne	r2,zero,1005f4c <getPHYSpeed+0x5d8>
 1005f44:	00800204 	movi	r2,8
 1005f48:	00000106 	br	1005f50 <getPHYSpeed+0x5dc>
 1005f4c:	0005883a 	mov	r2,zero
 1005f50:	10c6b03a 	or	r3,r2,r3
 1005f54:	e0bfffc3 	ldbu	r2,-1(fp)
 1005f58:	108000d8 	cmpnei	r2,r2,3
 1005f5c:	1000021e 	bne	r2,zero,1005f68 <getPHYSpeed+0x5f4>
 1005f60:	00800074 	movhi	r2,1
 1005f64:	00000106 	br	1005f6c <getPHYSpeed+0x5f8>
 1005f68:	0005883a 	mov	r2,zero
 1005f6c:	10c4b03a 	or	r2,r2,r3
 1005f70:	10800234 	orhi	r2,r2,8
 1005f74:	e0bffe15 	stw	r2,-8(fp)
            tse_dprintf(3, "WARNING : PHY[%d.%d] - Auto-Negotiation not completed! Speed = %s, Duplex = %s\n", mac_group_index, mac_info_index, speed == TSE_PHY_SPEED_1000 ? "1000" :
 1005f78:	e13ff987 	ldb	r4,-26(fp)
 1005f7c:	e17ff9c7 	ldb	r5,-25(fp)
 1005f80:	e0bfffc3 	ldbu	r2,-1(fp)
 1005f84:	108000a0 	cmpeqi	r2,r2,2
 1005f88:	10000e1e 	bne	r2,zero,1005fc4 <getPHYSpeed+0x650>
 1005f8c:	e0bfffc3 	ldbu	r2,-1(fp)
 1005f90:	10800060 	cmpeqi	r2,r2,1
 1005f94:	1000081e 	bne	r2,zero,1005fb8 <getPHYSpeed+0x644>
 1005f98:	e0bfffc3 	ldbu	r2,-1(fp)
 1005f9c:	1000031e 	bne	r2,zero,1005fac <getPHYSpeed+0x638>
 1005fa0:	00804074 	movhi	r2,257
 1005fa4:	10ae7404 	addi	r2,r2,-17968
 1005fa8:	00000806 	br	1005fcc <getPHYSpeed+0x658>
 1005fac:	00804074 	movhi	r2,257
 1005fb0:	10ae7504 	addi	r2,r2,-17964
 1005fb4:	00000506 	br	1005fcc <getPHYSpeed+0x658>
 1005fb8:	00804074 	movhi	r2,257
 1005fbc:	10ae7704 	addi	r2,r2,-17956
 1005fc0:	00000206 	br	1005fcc <getPHYSpeed+0x658>
 1005fc4:	00804074 	movhi	r2,257
 1005fc8:	10ae7804 	addi	r2,r2,-17952
 1005fcc:	e0ffff83 	ldbu	r3,-2(fp)
 1005fd0:	18c00058 	cmpnei	r3,r3,1
 1005fd4:	1800031e 	bne	r3,zero,1005fe4 <getPHYSpeed+0x670>
 1005fd8:	00c04074 	movhi	r3,257
 1005fdc:	18ee7a04 	addi	r3,r3,-17944
 1005fe0:	00000206 	br	1005fec <getPHYSpeed+0x678>
 1005fe4:	00c04074 	movhi	r3,257
 1005fe8:	18ee7c04 	addi	r3,r3,-17936
 1005fec:	d8c00015 	stw	r3,0(sp)
 1005ff0:	100f883a 	mov	r7,r2
 1005ff4:	280d883a 	mov	r6,r5
 1005ff8:	200b883a 	mov	r5,r4
 1005ffc:	01004074 	movhi	r4,257
 1006000:	212edc04 	addi	r4,r4,-17552
 1006004:	100460c0 	call	100460c <no_printf>
                                                                             speed == TSE_PHY_SPEED_100 ? "100" :
                                                                             speed == TSE_PHY_SPEED_10 ? "10" : "Unknown",
                                                                             duplex == 1 ? "Full" : "Half");
            return result;
 1006008:	e0bffe17 	ldw	r2,-8(fp)
 100600c:	0000f206 	br	10063d8 <getPHYSpeed+0xa64>
        }

        IOWR(&pmac_group_base->MDIO_ADDR1, 0, pphy->mdio_address);
 1006010:	e0bff817 	ldw	r2,-32(fp)
 1006014:	10801004 	addi	r2,r2,64
 1006018:	e0fffd17 	ldw	r3,-12(fp)
 100601c:	18c00003 	ldbu	r3,0(r3)
 1006020:	18c03fcc 	andi	r3,r3,255
 1006024:	10c00035 	stwio	r3,0(r2)
        /* To enable PHY loopback */
        #if ENABLE_PHY_LOOPBACK
            tse_dprintf(5, "INFO    : PHY[%d.%d] - Putting PHY in loopback\n", mac_group_index, mac_info_index);
            alt_tse_phy_wr_mdio_reg(pphy, TSE_PHY_MDIO_CONTROL, TSE_PHY_MDIO_CONTROL_LOOPBACK, 1, 1);   // enable PHY loopback
        #else
            alt_tse_phy_wr_mdio_reg(pphy, TSE_PHY_MDIO_CONTROL, TSE_PHY_MDIO_CONTROL_LOOPBACK, 1, 0);   // disable PHY loopback
 1006028:	d8000015 	stw	zero,0(sp)
 100602c:	01c00044 	movi	r7,1
 1006030:	01800384 	movi	r6,14
 1006034:	000b883a 	mov	r5,zero
 1006038:	e13ffd17 	ldw	r4,-12(fp)
 100603c:	100648c0 	call	100648c <alt_tse_phy_wr_mdio_reg>
        #endif
       
        /* if PHY not found in profile */
        if(pphy->pphy_profile == 0) {
 1006040:	e0bffd17 	ldw	r2,-12(fp)
 1006044:	10800517 	ldw	r2,20(r2)
 1006048:	10002b1e 	bne	r2,zero,10060f8 <getPHYSpeed+0x784>
            tse_dprintf(3, "WARNING : PHY[%d.%d] - PHY not found in PHY profile\n", mac_group_index, mac_info_index);
 100604c:	e0bff987 	ldb	r2,-26(fp)
 1006050:	e0fff9c7 	ldb	r3,-25(fp)
 1006054:	180d883a 	mov	r6,r3
 1006058:	100b883a 	mov	r5,r2
 100605c:	01004074 	movhi	r4,257
 1006060:	212ef004 	addi	r4,r4,-17472
 1006064:	100460c0 	call	100460c <no_printf>
            speed = ALTERA_TSE_MAC_SPEED_DEFAULT;
 1006068:	00800044 	movi	r2,1
 100606c:	e0bfffc5 	stb	r2,-1(fp)
            duplex = ALTERA_TSE_DUPLEX_MODE_DEFAULT;
 1006070:	00800044 	movi	r2,1
 1006074:	e0bfff85 	stb	r2,-2(fp)
            result = ALT_TSE_SPEED_DUPLEX(speed, duplex) | ALT_TSE_E_NO_PHY_PROFILE;
 1006078:	e0bfff83 	ldbu	r2,-2(fp)
 100607c:	10c0004c 	andi	r3,r2,1
 1006080:	e0bfffc3 	ldbu	r2,-1(fp)
 1006084:	10800098 	cmpnei	r2,r2,2
 1006088:	1000021e 	bne	r2,zero,1006094 <getPHYSpeed+0x720>
 100608c:	00800084 	movi	r2,2
 1006090:	00000106 	br	1006098 <getPHYSpeed+0x724>
 1006094:	0005883a 	mov	r2,zero
 1006098:	10c6b03a 	or	r3,r2,r3
 100609c:	e0bfffc3 	ldbu	r2,-1(fp)
 10060a0:	10800058 	cmpnei	r2,r2,1
 10060a4:	1000021e 	bne	r2,zero,10060b0 <getPHYSpeed+0x73c>
 10060a8:	00800104 	movi	r2,4
 10060ac:	00000106 	br	10060b4 <getPHYSpeed+0x740>
 10060b0:	0005883a 	mov	r2,zero
 10060b4:	10c6b03a 	or	r3,r2,r3
 10060b8:	e0bfffc3 	ldbu	r2,-1(fp)
 10060bc:	1000021e 	bne	r2,zero,10060c8 <getPHYSpeed+0x754>
 10060c0:	00800204 	movi	r2,8
 10060c4:	00000106 	br	10060cc <getPHYSpeed+0x758>
 10060c8:	0005883a 	mov	r2,zero
 10060cc:	10c6b03a 	or	r3,r2,r3
 10060d0:	e0bfffc3 	ldbu	r2,-1(fp)
 10060d4:	108000d8 	cmpnei	r2,r2,3
 10060d8:	1000021e 	bne	r2,zero,10060e4 <getPHYSpeed+0x770>
 10060dc:	00800074 	movhi	r2,1
 10060e0:	00000106 	br	10060e8 <getPHYSpeed+0x774>
 10060e4:	0005883a 	mov	r2,zero
 10060e8:	10c4b03a 	or	r2,r2,r3
 10060ec:	10800134 	orhi	r2,r2,4
 10060f0:	e0bffe15 	stw	r2,-8(fp)
 10060f4:	00009306 	br	1006344 <getPHYSpeed+0x9d0>
        }
        // retrieve duplex information from PHY
        else
        {
            if(pphy->pphy_profile->link_status_read)
 10060f8:	e0bffd17 	ldw	r2,-12(fp)
 10060fc:	10800517 	ldw	r2,20(r2)
 1006100:	10801817 	ldw	r2,96(r2)
 1006104:	10002526 	beq	r2,zero,100619c <getPHYSpeed+0x828>
            {
                result = pphy->pphy_profile->link_status_read(pmac_group_base);
 1006108:	e0bffd17 	ldw	r2,-12(fp)
 100610c:	10800517 	ldw	r2,20(r2)
 1006110:	10801817 	ldw	r2,96(r2)
 1006114:	e13ff817 	ldw	r4,-32(fp)
 1006118:	103ee83a 	callr	r2
 100611c:	e0bffe15 	stw	r2,-8(fp)
                speed = (result & 0x02) ? TSE_PHY_SPEED_1000 :
 1006120:	e0bffe17 	ldw	r2,-8(fp)
 1006124:	1080008c 	andi	r2,r2,2
 1006128:	10000c1e 	bne	r2,zero,100615c <getPHYSpeed+0x7e8>
                        (result & 0x04) ? TSE_PHY_SPEED_100  :
 100612c:	e0bffe17 	ldw	r2,-8(fp)
 1006130:	1080010c 	andi	r2,r2,4
                speed = (result & 0x02) ? TSE_PHY_SPEED_1000 :
 1006134:	1000071e 	bne	r2,zero,1006154 <getPHYSpeed+0x7e0>
                        (result & 0x08) ? TSE_PHY_SPEED_10  : TSE_PHY_SPEED_INVALID;
 1006138:	e0bffe17 	ldw	r2,-8(fp)
 100613c:	1080020c 	andi	r2,r2,8
                speed = (result & 0x02) ? TSE_PHY_SPEED_1000 :
 1006140:	10000226 	beq	r2,zero,100614c <getPHYSpeed+0x7d8>
 1006144:	0005883a 	mov	r2,zero
 1006148:	00000506 	br	1006160 <getPHYSpeed+0x7ec>
 100614c:	008000c4 	movi	r2,3
 1006150:	00000306 	br	1006160 <getPHYSpeed+0x7ec>
 1006154:	00800044 	movi	r2,1
 1006158:	00000106 	br	1006160 <getPHYSpeed+0x7ec>
 100615c:	00800084 	movi	r2,2
 1006160:	e0bfffc5 	stb	r2,-1(fp)
                duplex = (result & 0x01) ? TSE_PHY_DUPLEX_FULL : TSE_PHY_DUPLEX_HALF;
 1006164:	e0bffe17 	ldw	r2,-8(fp)
 1006168:	1080004c 	andi	r2,r2,1
 100616c:	e0bfff85 	stb	r2,-2(fp)
                
                if(result & ALT_TSE_E_INVALID_SPEED)
 1006170:	e0bffe17 	ldw	r2,-8(fp)
 1006174:	1080006c 	andhi	r2,r2,1
 1006178:	10007226 	beq	r2,zero,1006344 <getPHYSpeed+0x9d0>
                {
                    tse_dprintf(3, "WARNING : PHY[%d.%d] - Invalid speed read from PHY\n", mac_group_index, mac_info_index);
 100617c:	e0bff987 	ldb	r2,-26(fp)
 1006180:	e0fff9c7 	ldb	r3,-25(fp)
 1006184:	180d883a 	mov	r6,r3
 1006188:	100b883a 	mov	r5,r2
 100618c:	01004074 	movhi	r4,257
 1006190:	212efe04 	addi	r4,r4,-17416
 1006194:	100460c0 	call	100460c <no_printf>
 1006198:	00006a06 	br	1006344 <getPHYSpeed+0x9d0>
                }
            }
            else if(pphy->pphy_profile->status_reg_location == 0)
 100619c:	e0bffd17 	ldw	r2,-12(fp)
 10061a0:	10800517 	ldw	r2,20(r2)
 10061a4:	10801583 	ldbu	r2,86(r2)
 10061a8:	10803fcc 	andi	r2,r2,255
 10061ac:	10002b1e 	bne	r2,zero,100625c <getPHYSpeed+0x8e8>
            {
                tse_dprintf(3, "WARNING : PHY[%d.%d] - PHY Specific Status register information not provided in profile\n", mac_group_index, mac_info_index);
 10061b0:	e0bff987 	ldb	r2,-26(fp)
 10061b4:	e0fff9c7 	ldb	r3,-25(fp)
 10061b8:	180d883a 	mov	r6,r3
 10061bc:	100b883a 	mov	r5,r2
 10061c0:	01004074 	movhi	r4,257
 10061c4:	212f0b04 	addi	r4,r4,-17364
 10061c8:	100460c0 	call	100460c <no_printf>
                speed = ALTERA_TSE_MAC_SPEED_DEFAULT;
 10061cc:	00800044 	movi	r2,1
 10061d0:	e0bfffc5 	stb	r2,-1(fp)
                duplex = ALTERA_TSE_DUPLEX_MODE_DEFAULT;
 10061d4:	00800044 	movi	r2,1
 10061d8:	e0bfff85 	stb	r2,-2(fp)
                result = ALT_TSE_SPEED_DUPLEX(speed, duplex) | ALT_TSE_E_PROFILE_INCORRECT_DEFINED;
 10061dc:	e0bfff83 	ldbu	r2,-2(fp)
 10061e0:	10c0004c 	andi	r3,r2,1
 10061e4:	e0bfffc3 	ldbu	r2,-1(fp)
 10061e8:	10800098 	cmpnei	r2,r2,2
 10061ec:	1000021e 	bne	r2,zero,10061f8 <getPHYSpeed+0x884>
 10061f0:	00800084 	movi	r2,2
 10061f4:	00000106 	br	10061fc <getPHYSpeed+0x888>
 10061f8:	0005883a 	mov	r2,zero
 10061fc:	10c6b03a 	or	r3,r2,r3
 1006200:	e0bfffc3 	ldbu	r2,-1(fp)
 1006204:	10800058 	cmpnei	r2,r2,1
 1006208:	1000021e 	bne	r2,zero,1006214 <getPHYSpeed+0x8a0>
 100620c:	00800104 	movi	r2,4
 1006210:	00000106 	br	1006218 <getPHYSpeed+0x8a4>
 1006214:	0005883a 	mov	r2,zero
 1006218:	10c6b03a 	or	r3,r2,r3
 100621c:	e0bfffc3 	ldbu	r2,-1(fp)
 1006220:	1000021e 	bne	r2,zero,100622c <getPHYSpeed+0x8b8>
 1006224:	00800204 	movi	r2,8
 1006228:	00000106 	br	1006230 <getPHYSpeed+0x8bc>
 100622c:	0005883a 	mov	r2,zero
 1006230:	10c6b03a 	or	r3,r2,r3
 1006234:	e0bfffc3 	ldbu	r2,-1(fp)
 1006238:	108000d8 	cmpnei	r2,r2,3
 100623c:	1000021e 	bne	r2,zero,1006248 <getPHYSpeed+0x8d4>
 1006240:	00800074 	movhi	r2,1
 1006244:	00000106 	br	100624c <getPHYSpeed+0x8d8>
 1006248:	0005883a 	mov	r2,zero
 100624c:	10c4b03a 	or	r2,r2,r3
 1006250:	108000b4 	orhi	r2,r2,2
 1006254:	e0bffe15 	stw	r2,-8(fp)
 1006258:	00003a06 	br	1006344 <getPHYSpeed+0x9d0>
            }
            else
            {
                /* extract connection speed and duplex information */
                speed = alt_tse_phy_rd_mdio_reg(pphy, pphy->pphy_profile->status_reg_location, pphy->pphy_profile->speed_lsb_location, 2);
 100625c:	e0bffd17 	ldw	r2,-12(fp)
 1006260:	10800517 	ldw	r2,20(r2)
 1006264:	10801583 	ldbu	r2,86(r2)
 1006268:	10c03fcc 	andi	r3,r2,255
 100626c:	e0bffd17 	ldw	r2,-12(fp)
 1006270:	10800517 	ldw	r2,20(r2)
 1006274:	108015c3 	ldbu	r2,87(r2)
 1006278:	10803fcc 	andi	r2,r2,255
 100627c:	01c00084 	movi	r7,2
 1006280:	100d883a 	mov	r6,r2
 1006284:	180b883a 	mov	r5,r3
 1006288:	e13ffd17 	ldw	r4,-12(fp)
 100628c:	10065b80 	call	10065b8 <alt_tse_phy_rd_mdio_reg>
 1006290:	e0bfffc5 	stb	r2,-1(fp)
                duplex = alt_tse_phy_rd_mdio_reg(pphy, pphy->pphy_profile->status_reg_location, pphy->pphy_profile->duplex_bit_location, 1);
 1006294:	e0bffd17 	ldw	r2,-12(fp)
 1006298:	10800517 	ldw	r2,20(r2)
 100629c:	10801583 	ldbu	r2,86(r2)
 10062a0:	10c03fcc 	andi	r3,r2,255
 10062a4:	e0bffd17 	ldw	r2,-12(fp)
 10062a8:	10800517 	ldw	r2,20(r2)
 10062ac:	10801603 	ldbu	r2,88(r2)
 10062b0:	10803fcc 	andi	r2,r2,255
 10062b4:	01c00044 	movi	r7,1
 10062b8:	100d883a 	mov	r6,r2
 10062bc:	180b883a 	mov	r5,r3
 10062c0:	e13ffd17 	ldw	r4,-12(fp)
 10062c4:	10065b80 	call	10065b8 <alt_tse_phy_rd_mdio_reg>
 10062c8:	e0bfff85 	stb	r2,-2(fp)
                
                result = ALT_TSE_SPEED_DUPLEX(speed, duplex);
 10062cc:	e0bfff83 	ldbu	r2,-2(fp)
 10062d0:	10c0004c 	andi	r3,r2,1
 10062d4:	e0bfffc3 	ldbu	r2,-1(fp)
 10062d8:	10800098 	cmpnei	r2,r2,2
 10062dc:	1000021e 	bne	r2,zero,10062e8 <getPHYSpeed+0x974>
 10062e0:	00800084 	movi	r2,2
 10062e4:	00000106 	br	10062ec <getPHYSpeed+0x978>
 10062e8:	0005883a 	mov	r2,zero
 10062ec:	10c6b03a 	or	r3,r2,r3
 10062f0:	e0bfffc3 	ldbu	r2,-1(fp)
 10062f4:	10800058 	cmpnei	r2,r2,1
 10062f8:	1000021e 	bne	r2,zero,1006304 <getPHYSpeed+0x990>
 10062fc:	00800104 	movi	r2,4
 1006300:	00000106 	br	1006308 <getPHYSpeed+0x994>
 1006304:	0005883a 	mov	r2,zero
 1006308:	10c6b03a 	or	r3,r2,r3
 100630c:	e0bfffc3 	ldbu	r2,-1(fp)
 1006310:	1000021e 	bne	r2,zero,100631c <getPHYSpeed+0x9a8>
 1006314:	00800204 	movi	r2,8
 1006318:	00000106 	br	1006320 <getPHYSpeed+0x9ac>
 100631c:	0005883a 	mov	r2,zero
 1006320:	10c6b03a 	or	r3,r2,r3
 1006324:	e0bfffc3 	ldbu	r2,-1(fp)
 1006328:	108000d8 	cmpnei	r2,r2,3
 100632c:	1000021e 	bne	r2,zero,1006338 <getPHYSpeed+0x9c4>
 1006330:	00800074 	movhi	r2,1
 1006334:	00000106 	br	100633c <getPHYSpeed+0x9c8>
 1006338:	0005883a 	mov	r2,zero
 100633c:	10c4b03a 	or	r2,r2,r3
 1006340:	e0bffe15 	stw	r2,-8(fp)
        /* for simulation purpose, default to gigabit mode */
        speed = 1;
        duplex = 1;
    #endif

    tse_dprintf(5, "INFO    : PHY[%d.%d] - Speed = %s, Duplex = %s\n",  mac_group_index, mac_info_index, speed == TSE_PHY_SPEED_1000 ? "1000" :
 1006344:	e13ff987 	ldb	r4,-26(fp)
 1006348:	e17ff9c7 	ldb	r5,-25(fp)
 100634c:	e0bfffc3 	ldbu	r2,-1(fp)
 1006350:	108000a0 	cmpeqi	r2,r2,2
 1006354:	10000e1e 	bne	r2,zero,1006390 <getPHYSpeed+0xa1c>
 1006358:	e0bfffc3 	ldbu	r2,-1(fp)
 100635c:	10800060 	cmpeqi	r2,r2,1
 1006360:	1000081e 	bne	r2,zero,1006384 <getPHYSpeed+0xa10>
 1006364:	e0bfffc3 	ldbu	r2,-1(fp)
 1006368:	1000031e 	bne	r2,zero,1006378 <getPHYSpeed+0xa04>
 100636c:	00804074 	movhi	r2,257
 1006370:	10ae7404 	addi	r2,r2,-17968
 1006374:	00000806 	br	1006398 <getPHYSpeed+0xa24>
 1006378:	00804074 	movhi	r2,257
 100637c:	10ae7504 	addi	r2,r2,-17964
 1006380:	00000506 	br	1006398 <getPHYSpeed+0xa24>
 1006384:	00804074 	movhi	r2,257
 1006388:	10ae7704 	addi	r2,r2,-17956
 100638c:	00000206 	br	1006398 <getPHYSpeed+0xa24>
 1006390:	00804074 	movhi	r2,257
 1006394:	10ae7804 	addi	r2,r2,-17952
 1006398:	e0ffff83 	ldbu	r3,-2(fp)
 100639c:	18c00058 	cmpnei	r3,r3,1
 10063a0:	1800031e 	bne	r3,zero,10063b0 <getPHYSpeed+0xa3c>
 10063a4:	00c04074 	movhi	r3,257
 10063a8:	18ee7a04 	addi	r3,r3,-17944
 10063ac:	00000206 	br	10063b8 <getPHYSpeed+0xa44>
 10063b0:	00c04074 	movhi	r3,257
 10063b4:	18ee7c04 	addi	r3,r3,-17936
 10063b8:	d8c00015 	stw	r3,0(sp)
 10063bc:	100f883a 	mov	r7,r2
 10063c0:	280d883a 	mov	r6,r5
 10063c4:	200b883a 	mov	r5,r4
 10063c8:	01004074 	movhi	r4,257
 10063cc:	212f2204 	addi	r4,r4,-17272
 10063d0:	100460c0 	call	100460c <no_printf>
                                                                                 speed == TSE_PHY_SPEED_100 ? "100" :
                                                                                 speed == TSE_PHY_SPEED_10 ? "10" : "Unknown",
                                                                                 duplex == 1 ? "Full" : "Half");

    return result;
 10063d4:	e0bffe17 	ldw	r2,-8(fp)
}
 10063d8:	e037883a 	mov	sp,fp
 10063dc:	dfc00117 	ldw	ra,4(sp)
 10063e0:	df000017 	ldw	fp,0(sp)
 10063e4:	dec00204 	addi	sp,sp,8
 10063e8:	f800283a 	ret

010063ec <alt_tse_phy_rd_mdio_addr>:
/* @Function Description: Read MDIO address from the MDIO address1 register of first MAC within MAC group
 * @API Type:    Internal
 * @param pmac   Pointer to the alt_tse_phy_info structure
 * @return       return SUCCESS
 */
alt_32 alt_tse_phy_rd_mdio_addr(alt_tse_phy_info *pphy) {
 10063ec:	defffd04 	addi	sp,sp,-12
 10063f0:	df000215 	stw	fp,8(sp)
 10063f4:	df000204 	addi	fp,sp,8
 10063f8:	e13ffe15 	stw	r4,-8(fp)
    np_tse_mac *pmac_group_base = (np_tse_mac *) pphy->pmac_info->pmac_group->pmac_info[0]->psys_info->tse_mac_base;
 10063fc:	e0bffe17 	ldw	r2,-8(fp)
 1006400:	10800617 	ldw	r2,24(r2)
 1006404:	10800317 	ldw	r2,12(r2)
 1006408:	10800117 	ldw	r2,4(r2)
 100640c:	10800217 	ldw	r2,8(r2)
 1006410:	10800017 	ldw	r2,0(r2)
 1006414:	e0bfff15 	stw	r2,-4(fp)
    return IORD(&pmac_group_base->MDIO_ADDR1, 0);
 1006418:	e0bfff17 	ldw	r2,-4(fp)
 100641c:	10801004 	addi	r2,r2,64
 1006420:	10800037 	ldwio	r2,0(r2)
}
 1006424:	e037883a 	mov	sp,fp
 1006428:	df000017 	ldw	fp,0(sp)
 100642c:	dec00104 	addi	sp,sp,4
 1006430:	f800283a 	ret

01006434 <alt_tse_phy_wr_mdio_addr>:
 * @API Type:           Internal
 * @param pmac          Pointer to the alt_tse_phy_info structure
 * @param mdio_address  MDIO address to be written
 * @return              return SUCCESS
 */
alt_32 alt_tse_phy_wr_mdio_addr(alt_tse_phy_info *pphy, alt_u8 mdio_address) {
 1006434:	defffc04 	addi	sp,sp,-16
 1006438:	df000315 	stw	fp,12(sp)
 100643c:	df000304 	addi	fp,sp,12
 1006440:	e13ffe15 	stw	r4,-8(fp)
 1006444:	2805883a 	mov	r2,r5
 1006448:	e0bffd05 	stb	r2,-12(fp)
    np_tse_mac *pmac_group_base = (np_tse_mac *) pphy->pmac_info->pmac_group->pmac_info[0]->psys_info->tse_mac_base;
 100644c:	e0bffe17 	ldw	r2,-8(fp)
 1006450:	10800617 	ldw	r2,24(r2)
 1006454:	10800317 	ldw	r2,12(r2)
 1006458:	10800117 	ldw	r2,4(r2)
 100645c:	10800217 	ldw	r2,8(r2)
 1006460:	10800017 	ldw	r2,0(r2)
 1006464:	e0bfff15 	stw	r2,-4(fp)
    IOWR(&pmac_group_base->MDIO_ADDR1, 0, mdio_address);
 1006468:	e0bfff17 	ldw	r2,-4(fp)
 100646c:	10801004 	addi	r2,r2,64
 1006470:	e0fffd03 	ldbu	r3,-12(fp)
 1006474:	10c00035 	stwio	r3,0(r2)
    
    return SUCCESS;
 1006478:	0005883a 	mov	r2,zero
}
 100647c:	e037883a 	mov	sp,fp
 1006480:	df000017 	ldw	fp,0(sp)
 1006484:	dec00104 	addi	sp,sp,4
 1006488:	f800283a 	ret

0100648c <alt_tse_phy_wr_mdio_reg>:
  * @param  bit_length       number of bits to be written to the register.
  * @param  data             data to be written to the register at specific bit location of register.
  * @return SUCCESS 
  */
alt_32 alt_tse_phy_wr_mdio_reg(alt_tse_phy_info *pphy, alt_u8 reg_num, alt_u8 lsb_num, alt_u8 bit_length, alt_u16 data)
{
 100648c:	defff604 	addi	sp,sp,-40
 1006490:	df000915 	stw	fp,36(sp)
 1006494:	df000904 	addi	fp,sp,36
 1006498:	e13ffb15 	stw	r4,-20(fp)
 100649c:	2807883a 	mov	r3,r5
 10064a0:	300b883a 	mov	r5,r6
 10064a4:	3809883a 	mov	r4,r7
 10064a8:	e0800117 	ldw	r2,4(fp)
 10064ac:	e0fffa05 	stb	r3,-24(fp)
 10064b0:	2807883a 	mov	r3,r5
 10064b4:	e0fff905 	stb	r3,-28(fp)
 10064b8:	2007883a 	mov	r3,r4
 10064bc:	e0fff805 	stb	r3,-32(fp)
 10064c0:	e0bff70d 	sth	r2,-36(fp)
    
    alt_u16 temp_data;
    alt_u16 bit_mask;
    alt_32 i;
    np_tse_mac *pmac = (np_tse_mac *) pphy->pmac_info->pmac_group->pmac_info[0]->psys_info->tse_mac_base;
 10064c4:	e0bffb17 	ldw	r2,-20(fp)
 10064c8:	10800617 	ldw	r2,24(r2)
 10064cc:	10800317 	ldw	r2,12(r2)
 10064d0:	10800117 	ldw	r2,4(r2)
 10064d4:	10800217 	ldw	r2,8(r2)
 10064d8:	10800017 	ldw	r2,0(r2)
 10064dc:	e0bffd15 	stw	r2,-12(fp)
    
    bit_mask = 0x00;
 10064e0:	e03fff8d 	sth	zero,-2(fp)
    /* generate mask consist of bit_length number of 1
     * eg: bit_length = 3, bit_mask = 0b0000 0000 0000 0111
     */
    for(i = 0; i < bit_length; i++)
 10064e4:	e03ffe15 	stw	zero,-8(fp)
 10064e8:	00000906 	br	1006510 <alt_tse_phy_wr_mdio_reg+0x84>
    {
        bit_mask <<= 1;
 10064ec:	e0bfff8b 	ldhu	r2,-2(fp)
 10064f0:	1085883a 	add	r2,r2,r2
 10064f4:	e0bfff8d 	sth	r2,-2(fp)
        bit_mask |= 0x01;        
 10064f8:	e0bfff8b 	ldhu	r2,-2(fp)
 10064fc:	10800054 	ori	r2,r2,1
 1006500:	e0bfff8d 	sth	r2,-2(fp)
    for(i = 0; i < bit_length; i++)
 1006504:	e0bffe17 	ldw	r2,-8(fp)
 1006508:	10800044 	addi	r2,r2,1
 100650c:	e0bffe15 	stw	r2,-8(fp)
 1006510:	e0bff803 	ldbu	r2,-32(fp)
 1006514:	e0fffe17 	ldw	r3,-8(fp)
 1006518:	18bff416 	blt	r3,r2,10064ec <alt_tse_phy_wr_mdio_reg+0x60>
    }
    
    /* shifting mask to left by bit_num */
    bit_mask <<= lsb_num;
 100651c:	e0ffff8b 	ldhu	r3,-2(fp)
 1006520:	e0bff903 	ldbu	r2,-28(fp)
 1006524:	1884983a 	sll	r2,r3,r2
 1006528:	e0bfff8d 	sth	r2,-2(fp)

    /* read register data */
    temp_data = IORD(&pmac->mdio1, reg_num);
 100652c:	e0bffd17 	ldw	r2,-12(fp)
 1006530:	1080a004 	addi	r2,r2,640
 1006534:	e0fffa03 	ldbu	r3,-24(fp)
 1006538:	180690ba 	slli	r3,r3,2
 100653c:	10c5883a 	add	r2,r2,r3
 1006540:	10800037 	ldwio	r2,0(r2)
 1006544:	e0bffc8d 	sth	r2,-14(fp)
    
    /* clear bits to be written */
    temp_data &= ~bit_mask;
 1006548:	e0bfff8b 	ldhu	r2,-2(fp)
 100654c:	0084303a 	nor	r2,zero,r2
 1006550:	1007883a 	mov	r3,r2
 1006554:	e0bffc8b 	ldhu	r2,-14(fp)
 1006558:	1884703a 	and	r2,r3,r2
 100655c:	e0bffc8d 	sth	r2,-14(fp)
    
    /* OR-ed together corresponding bits data */
    temp_data |= ((data << lsb_num) & bit_mask);    
 1006560:	e0fff70b 	ldhu	r3,-36(fp)
 1006564:	e0bff903 	ldbu	r2,-28(fp)
 1006568:	1884983a 	sll	r2,r3,r2
 100656c:	1007883a 	mov	r3,r2
 1006570:	e0bfff8b 	ldhu	r2,-2(fp)
 1006574:	1884703a 	and	r2,r3,r2
 1006578:	1007883a 	mov	r3,r2
 100657c:	e0bffc8b 	ldhu	r2,-14(fp)
 1006580:	1884b03a 	or	r2,r3,r2
 1006584:	e0bffc8d 	sth	r2,-14(fp)
    
    /* write data to MDIO register */
    IOWR(&pmac->mdio1, reg_num, temp_data);
 1006588:	e0bffd17 	ldw	r2,-12(fp)
 100658c:	1080a004 	addi	r2,r2,640
 1006590:	e0fffa03 	ldbu	r3,-24(fp)
 1006594:	180690ba 	slli	r3,r3,2
 1006598:	10c5883a 	add	r2,r2,r3
 100659c:	e0fffc8b 	ldhu	r3,-14(fp)
 10065a0:	10c00035 	stwio	r3,0(r2)
    
    return SUCCESS;
 10065a4:	0005883a 	mov	r2,zero
    
}
 10065a8:	e037883a 	mov	sp,fp
 10065ac:	df000017 	ldw	fp,0(sp)
 10065b0:	dec00104 	addi	sp,sp,4
 10065b4:	f800283a 	ret

010065b8 <alt_tse_phy_rd_mdio_reg>:
 * @param  bit_length       number of bits to be read from the register.
 * @return data read from MDIO register 
 */

alt_u32 alt_tse_phy_rd_mdio_reg(alt_tse_phy_info *pphy, alt_u8 reg_num, alt_u8 lsb_num, alt_u8 bit_length)
{
 10065b8:	defff704 	addi	sp,sp,-36
 10065bc:	df000815 	stw	fp,32(sp)
 10065c0:	df000804 	addi	fp,sp,32
 10065c4:	e13ffb15 	stw	r4,-20(fp)
 10065c8:	2805883a 	mov	r2,r5
 10065cc:	3009883a 	mov	r4,r6
 10065d0:	3807883a 	mov	r3,r7
 10065d4:	e0bffa05 	stb	r2,-24(fp)
 10065d8:	2005883a 	mov	r2,r4
 10065dc:	e0bff905 	stb	r2,-28(fp)
 10065e0:	1805883a 	mov	r2,r3
 10065e4:	e0bff805 	stb	r2,-32(fp)
    alt_u16 temp_data;
    alt_u32 bit_mask;
    alt_32 i;
    np_tse_mac *pmac = (np_tse_mac *) pphy->pmac_info->pmac_group->pmac_info[0]->psys_info->tse_mac_base;
 10065e8:	e0bffb17 	ldw	r2,-20(fp)
 10065ec:	10800617 	ldw	r2,24(r2)
 10065f0:	10800317 	ldw	r2,12(r2)
 10065f4:	10800117 	ldw	r2,4(r2)
 10065f8:	10800217 	ldw	r2,8(r2)
 10065fc:	10800017 	ldw	r2,0(r2)
 1006600:	e0bffd15 	stw	r2,-12(fp)
    
    bit_mask = 0x00;
 1006604:	e03fff15 	stw	zero,-4(fp)
    /* generate mask consist of bit_length number of 1
     * eg: bit_length = 3, bit_mask = 0b0000 0000 0000 0111
     */
    for(i = 0; i < bit_length; i++)
 1006608:	e03ffe15 	stw	zero,-8(fp)
 100660c:	00000906 	br	1006634 <alt_tse_phy_rd_mdio_reg+0x7c>
    {
        bit_mask <<= 1;
 1006610:	e0bfff17 	ldw	r2,-4(fp)
 1006614:	1085883a 	add	r2,r2,r2
 1006618:	e0bfff15 	stw	r2,-4(fp)
        bit_mask |= 0x01;        
 100661c:	e0bfff17 	ldw	r2,-4(fp)
 1006620:	10800054 	ori	r2,r2,1
 1006624:	e0bfff15 	stw	r2,-4(fp)
    for(i = 0; i < bit_length; i++)
 1006628:	e0bffe17 	ldw	r2,-8(fp)
 100662c:	10800044 	addi	r2,r2,1
 1006630:	e0bffe15 	stw	r2,-8(fp)
 1006634:	e0bff803 	ldbu	r2,-32(fp)
 1006638:	e0fffe17 	ldw	r3,-8(fp)
 100663c:	18bff416 	blt	r3,r2,1006610 <alt_tse_phy_rd_mdio_reg+0x58>
    }
    
    /* read register data */
    temp_data = IORD(&pmac->mdio1, reg_num);
 1006640:	e0bffd17 	ldw	r2,-12(fp)
 1006644:	1080a004 	addi	r2,r2,640
 1006648:	e0fffa03 	ldbu	r3,-24(fp)
 100664c:	180690ba 	slli	r3,r3,2
 1006650:	10c5883a 	add	r2,r2,r3
 1006654:	10800037 	ldwio	r2,0(r2)
 1006658:	e0bffc8d 	sth	r2,-14(fp)
    
    /* shifting read data */
    temp_data >>= lsb_num;
 100665c:	e0fffc8b 	ldhu	r3,-14(fp)
 1006660:	e0bff903 	ldbu	r2,-28(fp)
 1006664:	1885d83a 	sra	r2,r3,r2
 1006668:	e0bffc8d 	sth	r2,-14(fp)
    
    return (temp_data & bit_mask);
 100666c:	e0fffc8b 	ldhu	r3,-14(fp)
 1006670:	e0bfff17 	ldw	r2,-4(fp)
 1006674:	1884703a 	and	r2,r3,r2
}
 1006678:	e037883a 	mov	sp,fp
 100667c:	df000017 	ldw	fp,0(sp)
 1006680:	dec00104 	addi	sp,sp,4
 1006684:	f800283a 	ret

01006688 <alt_tse_phy_add_profile_default>:
 * @param pmac  N/A
 * @return      Number of PHY in profile
 * 
 * User might add their own PHY by calling alt_tse_phy_add_profile()
 */
alt_32 alt_tse_phy_add_profile_default() {
 1006688:	deff8104 	addi	sp,sp,-508
 100668c:	dfc07e15 	stw	ra,504(sp)
 1006690:	df007d15 	stw	fp,500(sp)
 1006694:	df007d04 	addi	fp,sp,500
        
    /* ------------------------------ */
    /* Marvell PHY on PHYWORKX board  */
    /* ------------------------------ */
    
    alt_tse_phy_profile MV88E1111 = {"Marvell 88E1111",      /* Marvell 88E1111                                  */
 1006698:	e0bfe704 	addi	r2,fp,-100
 100669c:	00c01904 	movi	r3,100
 10066a0:	180d883a 	mov	r6,r3
 10066a4:	000b883a 	mov	r5,zero
 10066a8:	1009883a 	mov	r4,r2
 10066ac:	10026080 	call	1002608 <memset>
 10066b0:	009d9cb4 	movhi	r2,30322
 10066b4:	10985344 	addi	r2,r2,24909
 10066b8:	e0bfe715 	stw	r2,-100(fp)
 10066bc:	00881b34 	movhi	r2,8300
 10066c0:	109b1944 	addi	r2,r2,27749
 10066c4:	e0bfe815 	stw	r2,-96(fp)
 10066c8:	008c5174 	movhi	r2,12613
 10066cc:	108e0e04 	addi	r2,r2,14392
 10066d0:	e0bfe915 	stw	r2,-92(fp)
 10066d4:	00800c74 	movhi	r2,49
 10066d8:	108c4c44 	addi	r2,r2,12593
 10066dc:	e0bfea15 	stw	r2,-88(fp)
 10066e0:	e0bfeb04 	addi	r2,fp,-84
 10066e4:	00c01004 	movi	r3,64
 10066e8:	180d883a 	mov	r6,r3
 10066ec:	000b883a 	mov	r5,zero
 10066f0:	1009883a 	mov	r4,r2
 10066f4:	10026080 	call	1002608 <memset>
 10066f8:	009410c4 	movi	r2,20547
 10066fc:	e0bffb15 	stw	r2,-20(fp)
 1006700:	00800304 	movi	r2,12
 1006704:	e0bffc05 	stb	r2,-16(fp)
 1006708:	00800084 	movi	r2,2
 100670c:	e0bffc45 	stb	r2,-15(fp)
 1006710:	00800444 	movi	r2,17
 1006714:	e0bffc85 	stb	r2,-14(fp)
 1006718:	00800384 	movi	r2,14
 100671c:	e0bffcc5 	stb	r2,-13(fp)
 1006720:	00800344 	movi	r2,13
 1006724:	e0bffd05 	stb	r2,-12(fp)
 1006728:	00800284 	movi	r2,10
 100672c:	e0bffd45 	stb	r2,-11(fp)
 1006730:	00804074 	movhi	r2,257
 1006734:	10a42d04 	addi	r2,r2,-28492
 1006738:	e0bffe15 	stw	r2,-8(fp)
    
    /* ---------------------------------- */
    /* Marvell Quad PHY on PHYWORKX board */
    /* ---------------------------------- */
    
    alt_tse_phy_profile MV88E1145 = {"Marvell Quad PHY 88E1145",      /* Marvell 88E1145                                  */
 100673c:	e0bfce04 	addi	r2,fp,-200
 1006740:	00c01904 	movi	r3,100
 1006744:	180d883a 	mov	r6,r3
 1006748:	000b883a 	mov	r5,zero
 100674c:	1009883a 	mov	r4,r2
 1006750:	10026080 	call	1002608 <memset>
 1006754:	009d9cb4 	movhi	r2,30322
 1006758:	10985344 	addi	r2,r2,24909
 100675c:	e0bfce15 	stw	r2,-200(fp)
 1006760:	00881b34 	movhi	r2,8300
 1006764:	109b1944 	addi	r2,r2,27749
 1006768:	e0bfcf15 	stw	r2,-196(fp)
 100676c:	00991874 	movhi	r2,25697
 1006770:	109d5444 	addi	r2,r2,30033
 1006774:	e0bfd015 	stw	r2,-192(fp)
 1006778:	00965234 	movhi	r2,22856
 100677c:	10940804 	addi	r2,r2,20512
 1006780:	e0bfd115 	stw	r2,-188(fp)
 1006784:	00914e34 	movhi	r2,17720
 1006788:	108e0804 	addi	r2,r2,14368
 100678c:	e0bfd215 	stw	r2,-184(fp)
 1006790:	008d4d34 	movhi	r2,13620
 1006794:	108c4c44 	addi	r2,r2,12593
 1006798:	e0bfd315 	stw	r2,-180(fp)
 100679c:	e03fd415 	stw	zero,-176(fp)
 10067a0:	e03fd515 	stw	zero,-172(fp)
 10067a4:	e03fd615 	stw	zero,-168(fp)
 10067a8:	e03fd715 	stw	zero,-164(fp)
 10067ac:	e03fd815 	stw	zero,-160(fp)
 10067b0:	e03fd915 	stw	zero,-156(fp)
 10067b4:	e03fda15 	stw	zero,-152(fp)
 10067b8:	e03fdb15 	stw	zero,-148(fp)
 10067bc:	e03fdc15 	stw	zero,-144(fp)
 10067c0:	e03fdd15 	stw	zero,-140(fp)
 10067c4:	e03fde15 	stw	zero,-136(fp)
 10067c8:	e03fdf15 	stw	zero,-132(fp)
 10067cc:	e03fe015 	stw	zero,-128(fp)
 10067d0:	e03fe115 	stw	zero,-124(fp)
 10067d4:	009410c4 	movi	r2,20547
 10067d8:	e0bfe215 	stw	r2,-120(fp)
 10067dc:	00800344 	movi	r2,13
 10067e0:	e0bfe305 	stb	r2,-116(fp)
 10067e4:	00800084 	movi	r2,2
 10067e8:	e0bfe345 	stb	r2,-115(fp)
 10067ec:	00800444 	movi	r2,17
 10067f0:	e0bfe385 	stb	r2,-114(fp)
 10067f4:	00800384 	movi	r2,14
 10067f8:	e0bfe3c5 	stb	r2,-113(fp)
 10067fc:	00800344 	movi	r2,13
 1006800:	e0bfe405 	stb	r2,-112(fp)
 1006804:	00800284 	movi	r2,10
 1006808:	e0bfe445 	stb	r2,-111(fp)
 100680c:	00804074 	movhi	r2,257
 1006810:	10a42d04 	addi	r2,r2,-28492
 1006814:	e0bfe515 	stw	r2,-108(fp)
                      
    /* ------------------------------ */
    /* National PHY on PHYWORKX board */
    /* ------------------------------ */  
    
    alt_tse_phy_profile DP83865 = {"National DP83865",     /* National DP83865                                 */
 1006818:	e0bfb504 	addi	r2,fp,-300
 100681c:	00c01904 	movi	r3,100
 1006820:	180d883a 	mov	r6,r3
 1006824:	000b883a 	mov	r5,zero
 1006828:	1009883a 	mov	r4,r2
 100682c:	10026080 	call	1002608 <memset>
 1006830:	009a5d34 	movhi	r2,26996
 1006834:	10985384 	addi	r2,r2,24910
 1006838:	e0bfb515 	stw	r2,-300(fp)
 100683c:	009b1874 	movhi	r2,27745
 1006840:	109b9bc4 	addi	r2,r2,28271
 1006844:	e0bfb615 	stw	r2,-296(fp)
 1006848:	008e1434 	movhi	r2,14416
 100684c:	10910804 	addi	r2,r2,17440
 1006850:	e0bfb715 	stw	r2,-292(fp)
 1006854:	008d4db4 	movhi	r2,13622
 1006858:	108e0cc4 	addi	r2,r2,14387
 100685c:	e0bfb815 	stw	r2,-288(fp)
 1006860:	e03fb915 	stw	zero,-284(fp)
 1006864:	e0bfba04 	addi	r2,fp,-280
 1006868:	00c00f04 	movi	r3,60
 100686c:	180d883a 	mov	r6,r3
 1006870:	000b883a 	mov	r5,zero
 1006874:	1009883a 	mov	r4,r2
 1006878:	10026080 	call	1002608 <memset>
 100687c:	00800234 	movhi	r2,8
 1006880:	108005c4 	addi	r2,r2,23
 1006884:	e0bfc915 	stw	r2,-220(fp)
 1006888:	008001c4 	movi	r2,7
 100688c:	e0bfca05 	stb	r2,-216(fp)
 1006890:	00800284 	movi	r2,10
 1006894:	e0bfca45 	stb	r2,-215(fp)
 1006898:	00800444 	movi	r2,17
 100689c:	e0bfca85 	stb	r2,-214(fp)
 10068a0:	008000c4 	movi	r2,3
 10068a4:	e0bfcac5 	stb	r2,-213(fp)
 10068a8:	00800044 	movi	r2,1
 10068ac:	e0bfcb05 	stb	r2,-212(fp)
 10068b0:	00800084 	movi	r2,2
 10068b4:	e0bfcb45 	stb	r2,-211(fp)
                      
    /* -------------------------------------- */
    /* National 10/100 PHY on PHYWORKX board  */
    /* -------------------------------------- */ 
                      
    alt_tse_phy_profile DP83848C = {"National DP83848C",  /* National DP83848C                                          */
 10068b8:	e0ff9c04 	addi	r3,fp,-400
 10068bc:	00804074 	movhi	r2,257
 10068c0:	10af2e04 	addi	r2,r2,-17224
 10068c4:	01001904 	movi	r4,100
 10068c8:	200d883a 	mov	r6,r4
 10068cc:	100b883a 	mov	r5,r2
 10068d0:	1809883a 	mov	r4,r3
 10068d4:	10025e00 	call	10025e0 <memcpy>

    /* -------------------------------------- */
    /* Intel PHY on C10LP EVA board  */
    /* -------------------------------------- */ 
                      
    alt_tse_phy_profile PEF7071 = {"Intel PEF7071",       /* National DP83848C                                          */
 10068d8:	e0ff8304 	addi	r3,fp,-500
 10068dc:	00804074 	movhi	r2,257
 10068e0:	10af4704 	addi	r2,r2,-17124
 10068e4:	01001904 	movi	r4,100
 10068e8:	200d883a 	mov	r6,r4
 10068ec:	100b883a 	mov	r5,r2
 10068f0:	1809883a 	mov	r4,r3
 10068f4:	10025e00 	call	10025e0 <memcpy>
                           &PEF7071_config,               /* configure PEF7071                                          */
                           &PEF7071_link_status_read      /* Function pointer to read from PHY specific status register */           
                          };
                      
    /* add supported PHY to profile */                          
    alt_tse_phy_add_profile(&MV88E1111);
 10068f8:	e0bfe704 	addi	r2,fp,-100
 10068fc:	1009883a 	mov	r4,r2
 1006900:	10047680 	call	1004768 <alt_tse_phy_add_profile>
    alt_tse_phy_add_profile(&MV88E1145);
 1006904:	e0bfce04 	addi	r2,fp,-200
 1006908:	1009883a 	mov	r4,r2
 100690c:	10047680 	call	1004768 <alt_tse_phy_add_profile>
    alt_tse_phy_add_profile(&DP83865);
 1006910:	e0bfb504 	addi	r2,fp,-300
 1006914:	1009883a 	mov	r4,r2
 1006918:	10047680 	call	1004768 <alt_tse_phy_add_profile>
    alt_tse_phy_add_profile(&DP83848C);
 100691c:	e0bf9c04 	addi	r2,fp,-400
 1006920:	1009883a 	mov	r4,r2
 1006924:	10047680 	call	1004768 <alt_tse_phy_add_profile>
    alt_tse_phy_add_profile(&PEF7071);
 1006928:	e0bf8304 	addi	r2,fp,-500
 100692c:	1009883a 	mov	r4,r2
 1006930:	10047680 	call	1004768 <alt_tse_phy_add_profile>
    
    
    return phy_profile_count;
 1006934:	d0a0f203 	ldbu	r2,-31800(gp)
 1006938:	10803fcc 	andi	r2,r2,255
}
 100693c:	e037883a 	mov	sp,fp
 1006940:	dfc00117 	ldw	ra,4(sp)
 1006944:	df000017 	ldw	fp,0(sp)
 1006948:	dec00204 	addi	sp,sp,8
 100694c:	f800283a 	ret

01006950 <alt_tse_phy_print_profile>:
/* @Function Description: Display PHYs available in profile
 * @API Type:   Internal
 * @param pmac  N/A
 * @return      Number of PHY in profile
 */
alt_32 alt_tse_phy_print_profile() {
 1006950:	defffd04 	addi	sp,sp,-12
 1006954:	dfc00215 	stw	ra,8(sp)
 1006958:	df000115 	stw	fp,4(sp)
 100695c:	df000104 	addi	fp,sp,4
   
    alt_8 i;
    /* display PHY in profile */
    tse_dprintf(6, "List of PHY profiles supported (Total profiles = %d)...\n", phy_profile_count);
 1006960:	d0a0f203 	ldbu	r2,-31800(gp)
 1006964:	10803fcc 	andi	r2,r2,255
 1006968:	100b883a 	mov	r5,r2
 100696c:	01004074 	movhi	r4,257
 1006970:	212f6004 	addi	r4,r4,-17024
 1006974:	100460c0 	call	100460c <no_printf>
    
    for(i = 0; i < phy_profile_count; i++)
 1006978:	e03fffc5 	stb	zero,-1(fp)
 100697c:	00005d06 	br	1006af4 <alt_tse_phy_print_profile+0x1a4>
    {
        tse_dprintf(6, "Profile No.%2d   :\n", i);
 1006980:	e0bfffc7 	ldb	r2,-1(fp)
 1006984:	100b883a 	mov	r5,r2
 1006988:	01004074 	movhi	r4,257
 100698c:	212f6f04 	addi	r4,r4,-16964
 1006990:	100460c0 	call	100460c <no_printf>
        tse_dprintf(6, "PHY Name        : %s\n", pphy_profiles[i]->name);
 1006994:	e0bfffc7 	ldb	r2,-1(fp)
 1006998:	100690ba 	slli	r3,r2,2
 100699c:	00804074 	movhi	r2,257
 10069a0:	1885883a 	add	r2,r3,r2
 10069a4:	10b9e017 	ldw	r2,-6272(r2)
 10069a8:	100b883a 	mov	r5,r2
 10069ac:	01004074 	movhi	r4,257
 10069b0:	212f7404 	addi	r4,r4,-16944
 10069b4:	100460c0 	call	100460c <no_printf>
   
        tse_dprintf(6, "PHY OUI         : 0x%06x\n", (int)pphy_profiles[i]->oui);
 10069b8:	e0bfffc7 	ldb	r2,-1(fp)
 10069bc:	100690ba 	slli	r3,r2,2
 10069c0:	00804074 	movhi	r2,257
 10069c4:	1885883a 	add	r2,r3,r2
 10069c8:	10b9e017 	ldw	r2,-6272(r2)
 10069cc:	10801417 	ldw	r2,80(r2)
 10069d0:	100b883a 	mov	r5,r2
 10069d4:	01004074 	movhi	r4,257
 10069d8:	212f7a04 	addi	r4,r4,-16920
 10069dc:	100460c0 	call	100460c <no_printf>
        tse_dprintf(6, "PHY Model Num.  : 0x%02x\n", pphy_profiles[i]->model_number);
 10069e0:	e0bfffc7 	ldb	r2,-1(fp)
 10069e4:	100690ba 	slli	r3,r2,2
 10069e8:	00804074 	movhi	r2,257
 10069ec:	1885883a 	add	r2,r3,r2
 10069f0:	10b9e017 	ldw	r2,-6272(r2)
 10069f4:	10801503 	ldbu	r2,84(r2)
 10069f8:	10803fcc 	andi	r2,r2,255
 10069fc:	100b883a 	mov	r5,r2
 1006a00:	01004074 	movhi	r4,257
 1006a04:	212f8104 	addi	r4,r4,-16892
 1006a08:	100460c0 	call	100460c <no_printf>
        tse_dprintf(6, "PHY Rev. Num.   : 0x%02x\n", pphy_profiles[i]->revision_number);
 1006a0c:	e0bfffc7 	ldb	r2,-1(fp)
 1006a10:	100690ba 	slli	r3,r2,2
 1006a14:	00804074 	movhi	r2,257
 1006a18:	1885883a 	add	r2,r3,r2
 1006a1c:	10b9e017 	ldw	r2,-6272(r2)
 1006a20:	10801543 	ldbu	r2,85(r2)
 1006a24:	10803fcc 	andi	r2,r2,255
 1006a28:	100b883a 	mov	r5,r2
 1006a2c:	01004074 	movhi	r4,257
 1006a30:	212f8804 	addi	r4,r4,-16864
 1006a34:	100460c0 	call	100460c <no_printf>
        
        tse_dprintf(6, "Status Register : 0x%02x\n", pphy_profiles[i]->status_reg_location); 
 1006a38:	e0bfffc7 	ldb	r2,-1(fp)
 1006a3c:	100690ba 	slli	r3,r2,2
 1006a40:	00804074 	movhi	r2,257
 1006a44:	1885883a 	add	r2,r3,r2
 1006a48:	10b9e017 	ldw	r2,-6272(r2)
 1006a4c:	10801583 	ldbu	r2,86(r2)
 1006a50:	10803fcc 	andi	r2,r2,255
 1006a54:	100b883a 	mov	r5,r2
 1006a58:	01004074 	movhi	r4,257
 1006a5c:	212f8f04 	addi	r4,r4,-16836
 1006a60:	100460c0 	call	100460c <no_printf>
        
        tse_dprintf(6, "Speed Bit       : %d\n", pphy_profiles[i]->speed_lsb_location);
 1006a64:	e0bfffc7 	ldb	r2,-1(fp)
 1006a68:	100690ba 	slli	r3,r2,2
 1006a6c:	00804074 	movhi	r2,257
 1006a70:	1885883a 	add	r2,r3,r2
 1006a74:	10b9e017 	ldw	r2,-6272(r2)
 1006a78:	108015c3 	ldbu	r2,87(r2)
 1006a7c:	10803fcc 	andi	r2,r2,255
 1006a80:	100b883a 	mov	r5,r2
 1006a84:	01004074 	movhi	r4,257
 1006a88:	212f9604 	addi	r4,r4,-16808
 1006a8c:	100460c0 	call	100460c <no_printf>
        
        tse_dprintf(6, "Duplex Bit      : %d\n", pphy_profiles[i]->duplex_bit_location);
 1006a90:	e0bfffc7 	ldb	r2,-1(fp)
 1006a94:	100690ba 	slli	r3,r2,2
 1006a98:	00804074 	movhi	r2,257
 1006a9c:	1885883a 	add	r2,r3,r2
 1006aa0:	10b9e017 	ldw	r2,-6272(r2)
 1006aa4:	10801603 	ldbu	r2,88(r2)
 1006aa8:	10803fcc 	andi	r2,r2,255
 1006aac:	100b883a 	mov	r5,r2
 1006ab0:	01004074 	movhi	r4,257
 1006ab4:	212f9c04 	addi	r4,r4,-16784
 1006ab8:	100460c0 	call	100460c <no_printf>
        
        tse_dprintf(6, "Link Bit        : %d\n\n", pphy_profiles[i]->link_bit_location);
 1006abc:	e0bfffc7 	ldb	r2,-1(fp)
 1006ac0:	100690ba 	slli	r3,r2,2
 1006ac4:	00804074 	movhi	r2,257
 1006ac8:	1885883a 	add	r2,r3,r2
 1006acc:	10b9e017 	ldw	r2,-6272(r2)
 1006ad0:	10801643 	ldbu	r2,89(r2)
 1006ad4:	10803fcc 	andi	r2,r2,255
 1006ad8:	100b883a 	mov	r5,r2
 1006adc:	01004074 	movhi	r4,257
 1006ae0:	212fa204 	addi	r4,r4,-16760
 1006ae4:	100460c0 	call	100460c <no_printf>
    for(i = 0; i < phy_profile_count; i++)
 1006ae8:	e0bfffc3 	ldbu	r2,-1(fp)
 1006aec:	10800044 	addi	r2,r2,1
 1006af0:	e0bfffc5 	stb	r2,-1(fp)
 1006af4:	e0ffffc7 	ldb	r3,-1(fp)
 1006af8:	d0a0f203 	ldbu	r2,-31800(gp)
 1006afc:	10803fcc 	andi	r2,r2,255
 1006b00:	18bf9f16 	blt	r3,r2,1006980 <alt_tse_phy_print_profile+0x30>
 
    }
    
    return phy_profile_count;
 1006b04:	d0a0f203 	ldbu	r2,-31800(gp)
 1006b08:	10803fcc 	andi	r2,r2,255
}
 1006b0c:	e037883a 	mov	sp,fp
 1006b10:	dfc00117 	ldw	ra,4(sp)
 1006b14:	df000017 	ldw	fp,0(sp)
 1006b18:	dec00204 	addi	sp,sp,8
 1006b1c:	f800283a 	ret

01006b20 <alt_tse_mac_group_init>:
 * @API Type:   Internal
 * @param pmac  N/A
 * @return      return SUCCESS
 *              return ALTERA_TSE_SYSTEM_DEF_ERROR if alt_tse_system_info structure definition error
 */
alt_32 alt_tse_mac_group_init() {
 1006b20:	defffa04 	addi	sp,sp,-24
 1006b24:	dfc00515 	stw	ra,20(sp)
 1006b28:	df000415 	stw	fp,16(sp)
 1006b2c:	df000404 	addi	fp,sp,16
    
    alt_8 i;
    alt_8 j;
    
    alt_tse_mac_group *pmac_group = 0;
 1006b30:	e03ffe15 	stw	zero,-8(fp)
    alt_tse_mac_info *pmac_info = 0;
 1006b34:	e03ffd15 	stw	zero,-12(fp)
    alt_tse_system_info *psys = 0;
 1006b38:	e03ffc15 	stw	zero,-16(fp)

    /* reset number of MAC group */
    mac_group_count = 0;
 1006b3c:	d020f245 	stb	zero,-31799(gp)
    
    /* loop through every alt_tse_system_info structure */
    for(i = 0; i < max_mac_system; i++) {
 1006b40:	e03fffc5 	stb	zero,-1(fp)
 1006b44:	00019806 	br	10071a8 <alt_tse_mac_group_init+0x688>
        psys = &tse_mac_device[i];
 1006b48:	e0bfffc7 	ldb	r2,-1(fp)
 1006b4c:	01401304 	movi	r5,76
 1006b50:	1009883a 	mov	r4,r2
 1006b54:	1002f140 	call	1002f14 <__mulsi3>
 1006b58:	1007883a 	mov	r3,r2
 1006b5c:	00804074 	movhi	r2,257
 1006b60:	10b93504 	addi	r2,r2,-6956
 1006b64:	1885883a 	add	r2,r3,r2
 1006b68:	e0bffc15 	stw	r2,-16(fp)

        if((psys->tse_msgdma_tx != 0) && (psys->tse_msgdma_rx != 0)) {        
 1006b6c:	e0bffc17 	ldw	r2,-16(fp)
 1006b70:	10800617 	ldw	r2,24(r2)
 1006b74:	10018926 	beq	r2,zero,100719c <alt_tse_mac_group_init+0x67c>
 1006b78:	e0bffc17 	ldw	r2,-16(fp)
 1006b7c:	10800717 	ldw	r2,28(r2)
 1006b80:	10018626 	beq	r2,zero,100719c <alt_tse_mac_group_init+0x67c>
            tse_dprintf(5, "INFO    : TSE MAC %d found at address 0x%08x\n", mac_group_count, (int) psys->tse_mac_base);
 1006b84:	d0a0f243 	ldbu	r2,-31799(gp)
 1006b88:	10c03fcc 	andi	r3,r2,255
 1006b8c:	e0bffc17 	ldw	r2,-16(fp)
 1006b90:	10800017 	ldw	r2,0(r2)
 1006b94:	100d883a 	mov	r6,r2
 1006b98:	180b883a 	mov	r5,r3
 1006b9c:	01004074 	movhi	r4,257
 1006ba0:	212fa804 	addi	r4,r4,-16736
 1006ba4:	100460c0 	call	100460c <no_printf>
            
            /* Allocate memory for the structure */
            pmac_group = (alt_tse_mac_group *) malloc(sizeof(alt_tse_mac_group));
 1006ba8:	01000904 	movi	r4,36
 1006bac:	100a5dc0 	call	100a5dc <malloc>
 1006bb0:	e0bffe15 	stw	r2,-8(fp)
            if(!pmac_group) {
 1006bb4:	e0bffe17 	ldw	r2,-8(fp)
 1006bb8:	1000081e 	bne	r2,zero,1006bdc <alt_tse_mac_group_init+0xbc>
                tse_dprintf(1, "ERROR   : Unable to allocate memory for MAC Group[%d]\n", mac_group_count);
 1006bbc:	d0a0f243 	ldbu	r2,-31799(gp)
 1006bc0:	10803fcc 	andi	r2,r2,255
 1006bc4:	100b883a 	mov	r5,r2
 1006bc8:	01004074 	movhi	r4,257
 1006bcc:	212fb404 	addi	r4,r4,-16688
 1006bd0:	100460c0 	call	100460c <no_printf>
                return ALTERA_TSE_MALLOC_FAILED;
 1006bd4:	00bfffc4 	movi	r2,-1
 1006bd8:	00017806 	br	10071bc <alt_tse_mac_group_init+0x69c>
            }
           
            /* Non-multi-channel MAC considered as 1 channel */
            if(psys->tse_multichannel_mac) {
 1006bdc:	e0bffc17 	ldw	r2,-16(fp)
 1006be0:	108003c3 	ldbu	r2,15(r2)
 1006be4:	10803fcc 	andi	r2,r2,255
 1006be8:	10001226 	beq	r2,zero,1006c34 <alt_tse_mac_group_init+0x114>
                pmac_group->channel = psys->tse_num_of_channel;
 1006bec:	e0bffc17 	ldw	r2,-16(fp)
 1006bf0:	10c00403 	ldbu	r3,16(r2)
 1006bf4:	e0bffe17 	ldw	r2,-8(fp)
 1006bf8:	10c00005 	stb	r3,0(r2)
                tse_dprintf(6, "INFO    : Multi Channel            = Yes\n");
 1006bfc:	01004074 	movhi	r4,257
 1006c00:	212fc204 	addi	r4,r4,-16632
 1006c04:	100460c0 	call	100460c <no_printf>
                tse_dprintf(6, "INFO    : Number of channel        = %d\n", pmac_group->channel);
 1006c08:	e0bffe17 	ldw	r2,-8(fp)
 1006c0c:	10800003 	ldbu	r2,0(r2)
 1006c10:	10803fcc 	andi	r2,r2,255
 1006c14:	100b883a 	mov	r5,r2
 1006c18:	01004074 	movhi	r4,257
 1006c1c:	212fcd04 	addi	r4,r4,-16588
 1006c20:	100460c0 	call	100460c <no_printf>
                tse_dprintf(6, "INFO    : MDIO Shared              = Yes\n");
 1006c24:	01004074 	movhi	r4,257
 1006c28:	212fd804 	addi	r4,r4,-16544
 1006c2c:	100460c0 	call	100460c <no_printf>
 1006c30:	00001f06 	br	1006cb0 <alt_tse_mac_group_init+0x190>
            }
            else if(psys->tse_mdio_shared) {
 1006c34:	e0bffc17 	ldw	r2,-16(fp)
 1006c38:	10800443 	ldbu	r2,17(r2)
 1006c3c:	10803fcc 	andi	r2,r2,255
 1006c40:	10001226 	beq	r2,zero,1006c8c <alt_tse_mac_group_init+0x16c>
                pmac_group->channel = psys->tse_number_of_mac_mdio_shared;
 1006c44:	e0bffc17 	ldw	r2,-16(fp)
 1006c48:	10c00483 	ldbu	r3,18(r2)
 1006c4c:	e0bffe17 	ldw	r2,-8(fp)
 1006c50:	10c00005 	stb	r3,0(r2)
                tse_dprintf(6, "INFO    : Multi Channel            = No\n");
 1006c54:	01004074 	movhi	r4,257
 1006c58:	212fe304 	addi	r4,r4,-16500
 1006c5c:	100460c0 	call	100460c <no_printf>
                tse_dprintf(6, "INFO    : MDIO Shared              = Yes\n");
 1006c60:	01004074 	movhi	r4,257
 1006c64:	212fd804 	addi	r4,r4,-16544
 1006c68:	100460c0 	call	100460c <no_printf>
                tse_dprintf(6, "INFO    : Number of MAC Share MDIO = %d\n", pmac_group->channel);
 1006c6c:	e0bffe17 	ldw	r2,-8(fp)
 1006c70:	10800003 	ldbu	r2,0(r2)
 1006c74:	10803fcc 	andi	r2,r2,255
 1006c78:	100b883a 	mov	r5,r2
 1006c7c:	01004074 	movhi	r4,257
 1006c80:	212fee04 	addi	r4,r4,-16456
 1006c84:	100460c0 	call	100460c <no_printf>
 1006c88:	00000906 	br	1006cb0 <alt_tse_mac_group_init+0x190>
            }
            else {
                pmac_group->channel = 1;
 1006c8c:	e0bffe17 	ldw	r2,-8(fp)
 1006c90:	00c00044 	movi	r3,1
 1006c94:	10c00005 	stb	r3,0(r2)
                tse_dprintf(6, "INFO    : Multi Channel            = No\n");
 1006c98:	01004074 	movhi	r4,257
 1006c9c:	212fe304 	addi	r4,r4,-16500
 1006ca0:	100460c0 	call	100460c <no_printf>
                tse_dprintf(6, "INFO    : MDIO Shared              = No\n");
 1006ca4:	01004074 	movhi	r4,257
 1006ca8:	212ff904 	addi	r4,r4,-16412
 1006cac:	100460c0 	call	100460c <no_printf>
            }
            
            for(j = 0; j < pmac_group->channel; j++) {
 1006cb0:	e03fff85 	stb	zero,-2(fp)
 1006cb4:	00012406 	br	1007148 <alt_tse_mac_group_init+0x628>
                /* Allocate memory for the structure */
                pmac_info = (alt_tse_mac_info *) malloc(sizeof(alt_tse_mac_info));
 1006cb8:	01000404 	movi	r4,16
 1006cbc:	100a5dc0 	call	100a5dc <malloc>
 1006cc0:	e0bffd15 	stw	r2,-12(fp)
                if(!pmac_info) {
 1006cc4:	e0bffd17 	ldw	r2,-12(fp)
 1006cc8:	10000a1e 	bne	r2,zero,1006cf4 <alt_tse_mac_group_init+0x1d4>
                    tse_dprintf(1, "ERROR   : Unable to allocate memory for MAC Group[%d]->pmac_info[%d]\n", mac_group_count, j);
 1006ccc:	d0a0f243 	ldbu	r2,-31799(gp)
 1006cd0:	10803fcc 	andi	r2,r2,255
 1006cd4:	e0ffff87 	ldb	r3,-2(fp)
 1006cd8:	180d883a 	mov	r6,r3
 1006cdc:	100b883a 	mov	r5,r2
 1006ce0:	01004074 	movhi	r4,257
 1006ce4:	21300404 	addi	r4,r4,-16368
 1006ce8:	100460c0 	call	100460c <no_printf>
                    return ALTERA_TSE_MALLOC_FAILED;
 1006cec:	00bfffc4 	movi	r2,-1
 1006cf0:	00013206 	br	10071bc <alt_tse_mac_group_init+0x69c>
                }
                
                pmac_info->pmac_group = pmac_group;
 1006cf4:	e0bffd17 	ldw	r2,-12(fp)
 1006cf8:	e0fffe17 	ldw	r3,-8(fp)
 1006cfc:	10c00315 	stw	r3,12(r2)
                
                pmac_info->pphy_info = 0;
 1006d00:	e0bffd17 	ldw	r2,-12(fp)
 1006d04:	10000115 	stw	zero,4(r2)
                
                pmac_info->psys_info = &tse_mac_device[i + j];
 1006d08:	e0ffffc7 	ldb	r3,-1(fp)
 1006d0c:	e0bfff87 	ldb	r2,-2(fp)
 1006d10:	1885883a 	add	r2,r3,r2
 1006d14:	01401304 	movi	r5,76
 1006d18:	1009883a 	mov	r4,r2
 1006d1c:	1002f140 	call	1002f14 <__mulsi3>
 1006d20:	1007883a 	mov	r3,r2
 1006d24:	00804074 	movhi	r2,257
 1006d28:	10b93504 	addi	r2,r2,-6956
 1006d2c:	1887883a 	add	r3,r3,r2
 1006d30:	e0bffd17 	ldw	r2,-12(fp)
 1006d34:	10c00215 	stw	r3,8(r2)
                
                /* check to make sure the alt_tse_system_info defined correctly or has been defined */
                if((pmac_info->psys_info->tse_msgdma_tx == 0) || (pmac_info->psys_info->tse_msgdma_rx == 0)){                    
 1006d38:	e0bffd17 	ldw	r2,-12(fp)
 1006d3c:	10800217 	ldw	r2,8(r2)
 1006d40:	10800617 	ldw	r2,24(r2)
 1006d44:	10000426 	beq	r2,zero,1006d58 <alt_tse_mac_group_init+0x238>
 1006d48:	e0bffd17 	ldw	r2,-12(fp)
 1006d4c:	10800217 	ldw	r2,8(r2)
 1006d50:	10800717 	ldw	r2,28(r2)
 1006d54:	1000091e 	bne	r2,zero,1006d7c <alt_tse_mac_group_init+0x25c>
                    tse_dprintf(2, "ERROR   : tse_mac_device[%d] does not defined correctly!\n", i + j);
 1006d58:	e0ffffc7 	ldb	r3,-1(fp)
 1006d5c:	e0bfff87 	ldb	r2,-2(fp)
 1006d60:	1885883a 	add	r2,r3,r2
 1006d64:	100b883a 	mov	r5,r2
 1006d68:	01004074 	movhi	r4,257
 1006d6c:	21301604 	addi	r4,r4,-16296
 1006d70:	100460c0 	call	100460c <no_printf>
                    return ALTERA_TSE_SYSTEM_DEF_ERROR;
 1006d74:	00bfffc4 	movi	r2,-1
 1006d78:	00011006 	br	10071bc <alt_tse_mac_group_init+0x69c>
                }
                
                /* MAC type detection */
                if(pmac_info->psys_info->tse_en_maclite) {
 1006d7c:	e0bffd17 	ldw	r2,-12(fp)
 1006d80:	10800217 	ldw	r2,8(r2)
 1006d84:	10800343 	ldbu	r2,13(r2)
 1006d88:	10803fcc 	andi	r2,r2,255
 1006d8c:	10000d26 	beq	r2,zero,1006dc4 <alt_tse_mac_group_init+0x2a4>
                    if(pmac_info->psys_info->tse_maclite_gige) {
 1006d90:	e0bffd17 	ldw	r2,-12(fp)
 1006d94:	10800217 	ldw	r2,8(r2)
 1006d98:	10800383 	ldbu	r2,14(r2)
 1006d9c:	10803fcc 	andi	r2,r2,255
 1006da0:	10000426 	beq	r2,zero,1006db4 <alt_tse_mac_group_init+0x294>
                        pmac_info->mac_type = ALTERA_TSE_MACLITE_1000;
 1006da4:	e0bffd17 	ldw	r2,-12(fp)
 1006da8:	00c00084 	movi	r3,2
 1006dac:	10c00005 	stb	r3,0(r2)
 1006db0:	00000606 	br	1006dcc <alt_tse_mac_group_init+0x2ac>
                    }
                    else {
                        pmac_info->mac_type = ALTERA_TSE_MACLITE_10_100;
 1006db4:	e0bffd17 	ldw	r2,-12(fp)
 1006db8:	00c00044 	movi	r3,1
 1006dbc:	10c00005 	stb	r3,0(r2)
 1006dc0:	00000206 	br	1006dcc <alt_tse_mac_group_init+0x2ac>
                    }
                }
                else {
                    pmac_info->mac_type = ALTERA_TSE_FULL_MAC;                    
 1006dc4:	e0bffd17 	ldw	r2,-12(fp)
 1006dc8:	10000005 	stb	zero,0(r2)
                }
                
                if((pmac_info->psys_info->tse_mdio_shared) && (!pmac_info->psys_info->tse_multichannel_mac)){
 1006dcc:	e0bffd17 	ldw	r2,-12(fp)
 1006dd0:	10800217 	ldw	r2,8(r2)
 1006dd4:	10800443 	ldbu	r2,17(r2)
 1006dd8:	10803fcc 	andi	r2,r2,255
 1006ddc:	10006626 	beq	r2,zero,1006f78 <alt_tse_mac_group_init+0x458>
 1006de0:	e0bffd17 	ldw	r2,-12(fp)
 1006de4:	10800217 	ldw	r2,8(r2)
 1006de8:	108003c3 	ldbu	r2,15(r2)
 1006dec:	10803fcc 	andi	r2,r2,255
 1006df0:	1000611e 	bne	r2,zero,1006f78 <alt_tse_mac_group_init+0x458>
                    tse_dprintf(6, "INFO    : MAC %2d Address           = 0x%08x\n", j, (int) pmac_info->psys_info->tse_mac_base);
 1006df4:	e0ffff87 	ldb	r3,-2(fp)
 1006df8:	e0bffd17 	ldw	r2,-12(fp)
 1006dfc:	10800217 	ldw	r2,8(r2)
 1006e00:	10800017 	ldw	r2,0(r2)
 1006e04:	100d883a 	mov	r6,r2
 1006e08:	180b883a 	mov	r5,r3
 1006e0c:	01004074 	movhi	r4,257
 1006e10:	21302504 	addi	r4,r4,-16236
 1006e14:	100460c0 	call	100460c <no_printf>
                    tse_dprintf(6, "INFO    : MAC %2d Device            = tse_mac_device[%d]\n", j, i + j);
 1006e18:	e13fff87 	ldb	r4,-2(fp)
 1006e1c:	e0ffffc7 	ldb	r3,-1(fp)
 1006e20:	e0bfff87 	ldb	r2,-2(fp)
 1006e24:	1885883a 	add	r2,r3,r2
 1006e28:	100d883a 	mov	r6,r2
 1006e2c:	200b883a 	mov	r5,r4
 1006e30:	01004074 	movhi	r4,257
 1006e34:	21303104 	addi	r4,r4,-16188
 1006e38:	100460c0 	call	100460c <no_printf>
                    
                    switch(pmac_info->mac_type) {
 1006e3c:	e0bffd17 	ldw	r2,-12(fp)
 1006e40:	10800003 	ldbu	r2,0(r2)
 1006e44:	10803fcc 	andi	r2,r2,255
 1006e48:	10c00060 	cmpeqi	r3,r2,1
 1006e4c:	18000c1e 	bne	r3,zero,1006e80 <alt_tse_mac_group_init+0x360>
 1006e50:	10c000a0 	cmpeqi	r3,r2,2
 1006e54:	1800021e 	bne	r3,zero,1006e60 <alt_tse_mac_group_init+0x340>
 1006e58:	10001126 	beq	r2,zero,1006ea0 <alt_tse_mac_group_init+0x380>
 1006e5c:	00001806 	br	1006ec0 <alt_tse_mac_group_init+0x3a0>
                        case ALTERA_TSE_MACLITE_1000:
                            tse_dprintf(6, "INFO    : MAC %2d Type              = %s\n", j, "1000 Mbps Small MAC");
 1006e60:	e0bfff87 	ldb	r2,-2(fp)
 1006e64:	01804074 	movhi	r6,257
 1006e68:	31b04004 	addi	r6,r6,-16128
 1006e6c:	100b883a 	mov	r5,r2
 1006e70:	01004074 	movhi	r4,257
 1006e74:	21304504 	addi	r4,r4,-16108
 1006e78:	100460c0 	call	100460c <no_printf>
                            break;
 1006e7c:	00001806 	br	1006ee0 <alt_tse_mac_group_init+0x3c0>
                        case ALTERA_TSE_MACLITE_10_100:
                            tse_dprintf(6, "INFO    : MAC %2d Type              = %s\n", j, "10/100 Mbps Small MAC");
 1006e80:	e0bfff87 	ldb	r2,-2(fp)
 1006e84:	01804074 	movhi	r6,257
 1006e88:	31b05004 	addi	r6,r6,-16064
 1006e8c:	100b883a 	mov	r5,r2
 1006e90:	01004074 	movhi	r4,257
 1006e94:	21304504 	addi	r4,r4,-16108
 1006e98:	100460c0 	call	100460c <no_printf>
                            break;
 1006e9c:	00001006 	br	1006ee0 <alt_tse_mac_group_init+0x3c0>
                        case ALTERA_TSE_FULL_MAC:
                            tse_dprintf(6, "INFO    : MAC %2d Type              = %s\n", j, "10/100/1000 Ethernet MAC");
 1006ea0:	e0bfff87 	ldb	r2,-2(fp)
 1006ea4:	01804074 	movhi	r6,257
 1006ea8:	31b05604 	addi	r6,r6,-16040
 1006eac:	100b883a 	mov	r5,r2
 1006eb0:	01004074 	movhi	r4,257
 1006eb4:	21304504 	addi	r4,r4,-16108
 1006eb8:	100460c0 	call	100460c <no_printf>
                            break;
 1006ebc:	00000806 	br	1006ee0 <alt_tse_mac_group_init+0x3c0>
                        default :
                            tse_dprintf(6, "INFO    : MAC %2d Type              = %s\n", j, "Unknown");
 1006ec0:	e0bfff87 	ldb	r2,-2(fp)
 1006ec4:	01804074 	movhi	r6,257
 1006ec8:	31ae7504 	addi	r6,r6,-17964
 1006ecc:	100b883a 	mov	r5,r2
 1006ed0:	01004074 	movhi	r4,257
 1006ed4:	21304504 	addi	r4,r4,-16108
 1006ed8:	100460c0 	call	100460c <no_printf>
                            break;
 1006edc:	0001883a 	nop
                    }
                    
                    if(pmac_info->psys_info->tse_pcs_ena) {
 1006ee0:	e0bffd17 	ldw	r2,-12(fp)
 1006ee4:	10800217 	ldw	r2,8(r2)
 1006ee8:	108004c3 	ldbu	r2,19(r2)
 1006eec:	10803fcc 	andi	r2,r2,255
 1006ef0:	10008b26 	beq	r2,zero,1007120 <alt_tse_mac_group_init+0x600>
                        tse_dprintf(6, "INFO    : PCS %2d Enable            = %s\n", j, pmac_info->psys_info->tse_pcs_ena ? "Yes" : "No");
 1006ef4:	e0ffff87 	ldb	r3,-2(fp)
 1006ef8:	e0bffd17 	ldw	r2,-12(fp)
 1006efc:	10800217 	ldw	r2,8(r2)
 1006f00:	108004c3 	ldbu	r2,19(r2)
 1006f04:	10803fcc 	andi	r2,r2,255
 1006f08:	10000326 	beq	r2,zero,1006f18 <alt_tse_mac_group_init+0x3f8>
 1006f0c:	00804074 	movhi	r2,257
 1006f10:	10b05d04 	addi	r2,r2,-16012
 1006f14:	00000206 	br	1006f20 <alt_tse_mac_group_init+0x400>
 1006f18:	00804074 	movhi	r2,257
 1006f1c:	10b05e04 	addi	r2,r2,-16008
 1006f20:	100d883a 	mov	r6,r2
 1006f24:	180b883a 	mov	r5,r3
 1006f28:	01004074 	movhi	r4,257
 1006f2c:	21305f04 	addi	r4,r4,-16004
 1006f30:	100460c0 	call	100460c <no_printf>
                        tse_dprintf(6, "INFO    : PCS %2d SGMII Enable      = %s\n", j, pmac_info->psys_info->tse_pcs_sgmii ? "Yes" : "No");                        
 1006f34:	e0ffff87 	ldb	r3,-2(fp)
 1006f38:	e0bffd17 	ldw	r2,-12(fp)
 1006f3c:	10800217 	ldw	r2,8(r2)
 1006f40:	10800503 	ldbu	r2,20(r2)
 1006f44:	10803fcc 	andi	r2,r2,255
 1006f48:	10000326 	beq	r2,zero,1006f58 <alt_tse_mac_group_init+0x438>
 1006f4c:	00804074 	movhi	r2,257
 1006f50:	10b05d04 	addi	r2,r2,-16012
 1006f54:	00000206 	br	1006f60 <alt_tse_mac_group_init+0x440>
 1006f58:	00804074 	movhi	r2,257
 1006f5c:	10b05e04 	addi	r2,r2,-16008
 1006f60:	100d883a 	mov	r6,r2
 1006f64:	180b883a 	mov	r5,r3
 1006f68:	01004074 	movhi	r4,257
 1006f6c:	21306a04 	addi	r4,r4,-15960
 1006f70:	100460c0 	call	100460c <no_printf>
                    if(pmac_info->psys_info->tse_pcs_ena) {
 1006f74:	00006a06 	br	1007120 <alt_tse_mac_group_init+0x600>
                    }
                }
                else {
                    /* display only once for all MAC, except shared MDIO MACs */
                    if(j == 0) {
 1006f78:	e0bfff87 	ldb	r2,-2(fp)
 1006f7c:	1000421e 	bne	r2,zero,1007088 <alt_tse_mac_group_init+0x568>
                        switch(pmac_info->mac_type) {
 1006f80:	e0bffd17 	ldw	r2,-12(fp)
 1006f84:	10800003 	ldbu	r2,0(r2)
 1006f88:	10803fcc 	andi	r2,r2,255
 1006f8c:	10c00060 	cmpeqi	r3,r2,1
 1006f90:	18000a1e 	bne	r3,zero,1006fbc <alt_tse_mac_group_init+0x49c>
 1006f94:	10c000a0 	cmpeqi	r3,r2,2
 1006f98:	1800021e 	bne	r3,zero,1006fa4 <alt_tse_mac_group_init+0x484>
 1006f9c:	10000d26 	beq	r2,zero,1006fd4 <alt_tse_mac_group_init+0x4b4>
 1006fa0:	00001206 	br	1006fec <alt_tse_mac_group_init+0x4cc>
                            case ALTERA_TSE_MACLITE_1000:
                                tse_dprintf(6, "INFO    : MAC Type                 = %s\n", "1000 Mbps Small MAC");
 1006fa4:	01404074 	movhi	r5,257
 1006fa8:	29704004 	addi	r5,r5,-16128
 1006fac:	01004074 	movhi	r4,257
 1006fb0:	21307504 	addi	r4,r4,-15916
 1006fb4:	100460c0 	call	100460c <no_printf>
                                break;
 1006fb8:	00001206 	br	1007004 <alt_tse_mac_group_init+0x4e4>
                            case ALTERA_TSE_MACLITE_10_100:
                                tse_dprintf(6, "INFO    : MAC Type                 = %s\n", "10/100 Mbps Small MAC");
 1006fbc:	01404074 	movhi	r5,257
 1006fc0:	29705004 	addi	r5,r5,-16064
 1006fc4:	01004074 	movhi	r4,257
 1006fc8:	21307504 	addi	r4,r4,-15916
 1006fcc:	100460c0 	call	100460c <no_printf>
                                break;
 1006fd0:	00000c06 	br	1007004 <alt_tse_mac_group_init+0x4e4>
                            case ALTERA_TSE_FULL_MAC:
                                tse_dprintf(6, "INFO    : MAC Type                 = %s\n", "10/100/1000 Ethernet MAC");
 1006fd4:	01404074 	movhi	r5,257
 1006fd8:	29705604 	addi	r5,r5,-16040
 1006fdc:	01004074 	movhi	r4,257
 1006fe0:	21307504 	addi	r4,r4,-15916
 1006fe4:	100460c0 	call	100460c <no_printf>
                                break;
 1006fe8:	00000606 	br	1007004 <alt_tse_mac_group_init+0x4e4>
                            default :
                                tse_dprintf(6, "INFO    : MAC Type                 = %s\n", "Unknown");
 1006fec:	01404074 	movhi	r5,257
 1006ff0:	296e7504 	addi	r5,r5,-17964
 1006ff4:	01004074 	movhi	r4,257
 1006ff8:	21307504 	addi	r4,r4,-15916
 1006ffc:	100460c0 	call	100460c <no_printf>
                                    break;
 1007000:	0001883a 	nop
                }
                        
                        if(pmac_info->psys_info->tse_pcs_ena) {
 1007004:	e0bffd17 	ldw	r2,-12(fp)
 1007008:	10800217 	ldw	r2,8(r2)
 100700c:	108004c3 	ldbu	r2,19(r2)
 1007010:	10803fcc 	andi	r2,r2,255
 1007014:	10001c26 	beq	r2,zero,1007088 <alt_tse_mac_group_init+0x568>
                            tse_dprintf(6, "INFO    : PCS Enable               = %s\n", pmac_info->psys_info->tse_pcs_ena ? "Yes" : "No");
 1007018:	e0bffd17 	ldw	r2,-12(fp)
 100701c:	10800217 	ldw	r2,8(r2)
 1007020:	108004c3 	ldbu	r2,19(r2)
 1007024:	10803fcc 	andi	r2,r2,255
 1007028:	10000326 	beq	r2,zero,1007038 <alt_tse_mac_group_init+0x518>
 100702c:	00804074 	movhi	r2,257
 1007030:	10b05d04 	addi	r2,r2,-16012
 1007034:	00000206 	br	1007040 <alt_tse_mac_group_init+0x520>
 1007038:	00804074 	movhi	r2,257
 100703c:	10b05e04 	addi	r2,r2,-16008
 1007040:	100b883a 	mov	r5,r2
 1007044:	01004074 	movhi	r4,257
 1007048:	21308004 	addi	r4,r4,-15872
 100704c:	100460c0 	call	100460c <no_printf>
                            tse_dprintf(6, "INFO    : PCS SGMII Enable         = %s\n", pmac_info->psys_info->tse_pcs_sgmii ? "Yes" : "No");                            
 1007050:	e0bffd17 	ldw	r2,-12(fp)
 1007054:	10800217 	ldw	r2,8(r2)
 1007058:	10800503 	ldbu	r2,20(r2)
 100705c:	10803fcc 	andi	r2,r2,255
 1007060:	10000326 	beq	r2,zero,1007070 <alt_tse_mac_group_init+0x550>
 1007064:	00804074 	movhi	r2,257
 1007068:	10b05d04 	addi	r2,r2,-16012
 100706c:	00000206 	br	1007078 <alt_tse_mac_group_init+0x558>
 1007070:	00804074 	movhi	r2,257
 1007074:	10b05e04 	addi	r2,r2,-16008
 1007078:	100b883a 	mov	r5,r2
 100707c:	01004074 	movhi	r4,257
 1007080:	21308b04 	addi	r4,r4,-15828
 1007084:	100460c0 	call	100460c <no_printf>
                        }
                    }
                    
                    if(pmac_info->psys_info->tse_multichannel_mac) {
 1007088:	e0bffd17 	ldw	r2,-12(fp)
 100708c:	10800217 	ldw	r2,8(r2)
 1007090:	108003c3 	ldbu	r2,15(r2)
 1007094:	10803fcc 	andi	r2,r2,255
 1007098:	10001326 	beq	r2,zero,10070e8 <alt_tse_mac_group_init+0x5c8>
                        tse_dprintf(6, "INFO    : Channel %2d Address       = 0x%08x\n", j, (int) pmac_info->psys_info->tse_mac_base);
 100709c:	e0ffff87 	ldb	r3,-2(fp)
 10070a0:	e0bffd17 	ldw	r2,-12(fp)
 10070a4:	10800217 	ldw	r2,8(r2)
 10070a8:	10800017 	ldw	r2,0(r2)
 10070ac:	100d883a 	mov	r6,r2
 10070b0:	180b883a 	mov	r5,r3
 10070b4:	01004074 	movhi	r4,257
 10070b8:	21309604 	addi	r4,r4,-15784
 10070bc:	100460c0 	call	100460c <no_printf>
                        tse_dprintf(6, "INFO    : Channel %2d Device        = tse_mac_device[%d]\n", j, i + j);
 10070c0:	e13fff87 	ldb	r4,-2(fp)
 10070c4:	e0ffffc7 	ldb	r3,-1(fp)
 10070c8:	e0bfff87 	ldb	r2,-2(fp)
 10070cc:	1885883a 	add	r2,r3,r2
 10070d0:	100d883a 	mov	r6,r2
 10070d4:	200b883a 	mov	r5,r4
 10070d8:	01004074 	movhi	r4,257
 10070dc:	2130a204 	addi	r4,r4,-15736
 10070e0:	100460c0 	call	100460c <no_printf>
 10070e4:	00000e06 	br	1007120 <alt_tse_mac_group_init+0x600>
                    }                
                    else {
                        tse_dprintf(6, "INFO    : MAC Address              = 0x%08x\n", (int) pmac_info->psys_info->tse_mac_base);
 10070e8:	e0bffd17 	ldw	r2,-12(fp)
 10070ec:	10800217 	ldw	r2,8(r2)
 10070f0:	10800017 	ldw	r2,0(r2)
 10070f4:	100b883a 	mov	r5,r2
 10070f8:	01004074 	movhi	r4,257
 10070fc:	2130b104 	addi	r4,r4,-15676
 1007100:	100460c0 	call	100460c <no_printf>
                        tse_dprintf(6, "INFO    : MAC Device               = tse_mac_device[%d]\n", i + j);
 1007104:	e0ffffc7 	ldb	r3,-1(fp)
 1007108:	e0bfff87 	ldb	r2,-2(fp)
 100710c:	1885883a 	add	r2,r3,r2
 1007110:	100b883a 	mov	r5,r2
 1007114:	01004074 	movhi	r4,257
 1007118:	2130bd04 	addi	r4,r4,-15628
 100711c:	100460c0 	call	100460c <no_printf>
                    }
                }
                
                /* store the pointer in MAC group variable for the detected channel */
                pmac_group->pmac_info[j] = pmac_info;
 1007120:	e0bfff87 	ldb	r2,-2(fp)
 1007124:	e0fffe17 	ldw	r3,-8(fp)
 1007128:	10800044 	addi	r2,r2,1
 100712c:	100490ba 	slli	r2,r2,2
 1007130:	1885883a 	add	r2,r3,r2
 1007134:	e0fffd17 	ldw	r3,-12(fp)
 1007138:	10c00015 	stw	r3,0(r2)
            for(j = 0; j < pmac_group->channel; j++) {
 100713c:	e0bfff83 	ldbu	r2,-2(fp)
 1007140:	10800044 	addi	r2,r2,1
 1007144:	e0bfff85 	stb	r2,-2(fp)
 1007148:	e0ffff87 	ldb	r3,-2(fp)
 100714c:	e0bffe17 	ldw	r2,-8(fp)
 1007150:	10800003 	ldbu	r2,0(r2)
 1007154:	10803fcc 	andi	r2,r2,255
 1007158:	18bed716 	blt	r3,r2,1006cb8 <alt_tse_mac_group_init+0x198>
            }
            
            /* store the pointer in global variable */
            pmac_groups[mac_group_count] = pmac_group;
 100715c:	d0a0f243 	ldbu	r2,-31799(gp)
 1007160:	10803fcc 	andi	r2,r2,255
 1007164:	100890ba 	slli	r4,r2,2
 1007168:	e0fffe17 	ldw	r3,-8(fp)
 100716c:	00804074 	movhi	r2,257
 1007170:	2085883a 	add	r2,r4,r2
 1007174:	10f9d815 	stw	r3,-6304(r2)
            
            mac_group_count++;
 1007178:	d0a0f243 	ldbu	r2,-31799(gp)
 100717c:	10800044 	addi	r2,r2,1
 1007180:	d0a0f245 	stb	r2,-31799(gp)

            /* skip for subsequent Multi-channel MAC */
            i += (pmac_group->channel - 1);
 1007184:	e0bffe17 	ldw	r2,-8(fp)
 1007188:	10c00003 	ldbu	r3,0(r2)
 100718c:	e0bfffc3 	ldbu	r2,-1(fp)
 1007190:	1885883a 	add	r2,r3,r2
 1007194:	10bfffc4 	addi	r2,r2,-1
 1007198:	e0bfffc5 	stb	r2,-1(fp)
    for(i = 0; i < max_mac_system; i++) {
 100719c:	e0bfffc3 	ldbu	r2,-1(fp)
 10071a0:	10800044 	addi	r2,r2,1
 10071a4:	e0bfffc5 	stb	r2,-1(fp)
 10071a8:	e0ffffc7 	ldb	r3,-1(fp)
 10071ac:	d0a00503 	ldbu	r2,-32748(gp)
 10071b0:	10803fcc 	andi	r2,r2,255
 10071b4:	18be6416 	blt	r3,r2,1006b48 <alt_tse_mac_group_init+0x28>
                        
        }
    }
    return SUCCESS;
 10071b8:	0005883a 	mov	r2,zero
}
 10071bc:	e037883a 	mov	sp,fp
 10071c0:	dfc00117 	ldw	ra,4(sp)
 10071c4:	df000017 	ldw	fp,0(sp)
 10071c8:	dec00204 	addi	sp,sp,8
 10071cc:	f800283a 	ret

010071d0 <alt_tse_mac_get_phy>:
/* @Function Description: Store information of all the PHYs connected to MAC to phy_list
 * @API Type:         Internal
 * @param pmac_group  Pointer to the TSE MAC grouping structure
 * @return            Number of PHY not in profile, return ALTERA_TSE_MALLOC_FAILED if memory allocation failed
 */
alt_32 alt_tse_mac_get_phy(alt_tse_mac_group *pmac_group) {
 10071d0:	deffed04 	addi	sp,sp,-76
 10071d4:	dfc01215 	stw	ra,72(sp)
 10071d8:	df001115 	stw	fp,68(sp)
 10071dc:	df001104 	addi	fp,sp,68
 10071e0:	e13ff015 	stw	r4,-64(fp)
    
    alt_32 phyid; 
    alt_32 phyid2 = 0;
 10071e4:	e03ffa15 	stw	zero,-24(fp)
    alt_u8 revision_number;

    alt_32 i;

    alt_u8 is_phy_in_profile;
    alt_32 return_value = 0;
 10071e8:	e03ffc15 	stw	zero,-16(fp)
    
    alt_8 phy_info_count = 0;
 10071ec:	e03ffbc5 	stb	zero,-17(fp)
    
    alt_tse_phy_info *pphy = 0;
 10071f0:	e03ff915 	stw	zero,-28(fp)
    alt_tse_mac_info *pmac_info = 0;
 10071f4:	e03ff815 	stw	zero,-32(fp)
    alt_tse_system_info *psys = 0;
 10071f8:	e03ff715 	stw	zero,-36(fp)
    
    np_tse_mac *pmac_group_base = (np_tse_mac *) pmac_group->pmac_info[0]->psys_info->tse_mac_base;
 10071fc:	e0bff017 	ldw	r2,-64(fp)
 1007200:	10800117 	ldw	r2,4(r2)
 1007204:	10800217 	ldw	r2,8(r2)
 1007208:	10800017 	ldw	r2,0(r2)
 100720c:	e0bff615 	stw	r2,-40(fp)
            
    /* Record previous MDIO address, to be restored at the end of function */
    alt_32 mdioadd_prev = IORD(&pmac_group_base->MDIO_ADDR1, 0);
 1007210:	e0bff617 	ldw	r2,-40(fp)
 1007214:	10801004 	addi	r2,r2,64
 1007218:	10800037 	ldwio	r2,0(r2)
 100721c:	e0bff515 	stw	r2,-44(fp)
    
    /* get index of the pointers in pointer array list */
    alt_8 mac_group_index = alt_tse_get_mac_group_index(pmac_group);
 1007220:	e13ff017 	ldw	r4,-64(fp)
 1007224:	10056540 	call	1005654 <alt_tse_get_mac_group_index>
 1007228:	e0bff4c5 	stb	r2,-45(fp)
    
    /* loop all valid PHY address to look for connected PHY */
    for (phyadd = 0x00; phyadd < 0x20; phyadd++)
 100722c:	e03fffc5 	stb	zero,-1(fp)
 1007230:	0000c206 	br	100753c <alt_tse_mac_get_phy+0x36c>
    {        
        IOWR(&pmac_group_base->MDIO_ADDR1, 0, phyadd);
 1007234:	e0bff617 	ldw	r2,-40(fp)
 1007238:	10801004 	addi	r2,r2,64
 100723c:	e0ffffc3 	ldbu	r3,-1(fp)
 1007240:	10c00035 	stwio	r3,0(r2)
        phyid = IORD(&pmac_group_base->mdio1.PHY_ID1,0);     // read PHY ID
 1007244:	e0bff617 	ldw	r2,-40(fp)
 1007248:	1080a204 	addi	r2,r2,648
 100724c:	10800037 	ldwio	r2,0(r2)
 1007250:	e0bff315 	stw	r2,-52(fp)
        phyid2 = IORD(&pmac_group_base->mdio1.PHY_ID2,0);     // read PHY ID
 1007254:	e0bff617 	ldw	r2,-40(fp)
 1007258:	1080a304 	addi	r2,r2,652
 100725c:	10800037 	ldwio	r2,0(r2)
 1007260:	e0bffa15 	stw	r2,-24(fp)
        
        /* PHY found */
        if (phyid != phyid2)
 1007264:	e0fff317 	ldw	r3,-52(fp)
 1007268:	e0bffa17 	ldw	r2,-24(fp)
 100726c:	1880b026 	beq	r3,r2,1007530 <alt_tse_mac_get_phy+0x360>
        {
            pphy = (alt_tse_phy_info *) malloc(sizeof(alt_tse_phy_info));
 1007270:	01000704 	movi	r4,28
 1007274:	100a5dc0 	call	100a5dc <malloc>
 1007278:	e0bff915 	stw	r2,-28(fp)
            if(!pphy) {
 100727c:	e0bff917 	ldw	r2,-28(fp)
 1007280:	1000091e 	bne	r2,zero,10072a8 <alt_tse_mac_get_phy+0xd8>
                tse_dprintf(1, "ERROR   : Unable to allocate memory for phy_info[%d.%d]\n", mac_group_index, phy_info_count);
 1007284:	e0bff4c7 	ldb	r2,-45(fp)
 1007288:	e0fffbc7 	ldb	r3,-17(fp)
 100728c:	180d883a 	mov	r6,r3
 1007290:	100b883a 	mov	r5,r2
 1007294:	01004074 	movhi	r4,257
 1007298:	2130cc04 	addi	r4,r4,-15568
 100729c:	100460c0 	call	100460c <no_printf>
                return ALTERA_TSE_MALLOC_FAILED;
 10072a0:	00bfffc4 	movi	r2,-1
 10072a4:	0000c506 	br	10075bc <alt_tse_mac_get_phy+0x3ec>
            }
            
            /* store PHY address */
            pphy->mdio_address = phyadd;
 10072a8:	e0bff917 	ldw	r2,-28(fp)
 10072ac:	e0ffffc3 	ldbu	r3,-1(fp)
 10072b0:	10c00005 	stb	r3,0(r2)

            /* get oui, model number, and revision number from PHYID and PHYID2 */
            oui = (phyid << 6) | ((phyid2 >> 10) & 0x3f);
 10072b4:	e0bff317 	ldw	r2,-52(fp)
 10072b8:	100691ba 	slli	r3,r2,6
 10072bc:	e0bffa17 	ldw	r2,-24(fp)
 10072c0:	1005d2ba 	srai	r2,r2,10
 10072c4:	10800fcc 	andi	r2,r2,63
 10072c8:	1884b03a 	or	r2,r3,r2
 10072cc:	e0bff215 	stw	r2,-56(fp)
            model_number = (phyid2 >> 4) & 0x3f;
 10072d0:	e0bffa17 	ldw	r2,-24(fp)
 10072d4:	1005d13a 	srai	r2,r2,4
 10072d8:	10800fcc 	andi	r2,r2,63
 10072dc:	e0bff1c5 	stb	r2,-57(fp)
            revision_number = phyid2 & 0x0f;
 10072e0:	e0bffa17 	ldw	r2,-24(fp)
 10072e4:	108003cc 	andi	r2,r2,15
 10072e8:	e0bff185 	stb	r2,-58(fp)
            
            /* map the PHY with PHY in profile */
            is_phy_in_profile = 0;
 10072ec:	e03ffdc5 	stb	zero,-9(fp)
            for(i = 0; i < phy_profile_count; i++) {
 10072f0:	e03ffe15 	stw	zero,-8(fp)
 10072f4:	00002c06 	br	10073a8 <alt_tse_mac_get_phy+0x1d8>
                
                /* if PHY match with PHY in profile */
                if((pphy_profiles[i]->oui == oui) && (pphy_profiles[i]->model_number == model_number))
 10072f8:	e0bffe17 	ldw	r2,-8(fp)
 10072fc:	100690ba 	slli	r3,r2,2
 1007300:	00804074 	movhi	r2,257
 1007304:	1885883a 	add	r2,r3,r2
 1007308:	10b9e017 	ldw	r2,-6272(r2)
 100730c:	10801417 	ldw	r2,80(r2)
 1007310:	e0fff217 	ldw	r3,-56(fp)
 1007314:	1880211e 	bne	r3,r2,100739c <alt_tse_mac_get_phy+0x1cc>
 1007318:	e0bffe17 	ldw	r2,-8(fp)
 100731c:	100690ba 	slli	r3,r2,2
 1007320:	00804074 	movhi	r2,257
 1007324:	1885883a 	add	r2,r3,r2
 1007328:	10b9e017 	ldw	r2,-6272(r2)
 100732c:	10801503 	ldbu	r2,84(r2)
 1007330:	e0fff1c3 	ldbu	r3,-57(fp)
 1007334:	10803fcc 	andi	r2,r2,255
 1007338:	1880181e 	bne	r3,r2,100739c <alt_tse_mac_get_phy+0x1cc>
                {
                    pphy->pphy_profile = pphy_profiles[i];
 100733c:	e0bffe17 	ldw	r2,-8(fp)
 1007340:	100690ba 	slli	r3,r2,2
 1007344:	00804074 	movhi	r2,257
 1007348:	1885883a 	add	r2,r3,r2
 100734c:	10f9e017 	ldw	r3,-6272(r2)
 1007350:	e0bff917 	ldw	r2,-28(fp)
 1007354:	10c00515 	stw	r3,20(r2)
                    
                    /* PHY found, add it to phy_list */
                    tse_dprintf(5, "INFO    : PHY %s found at PHY address 0x%02x of MAC Group[%d]\n", pphy_profiles[i]->name, phyadd, mac_group_index);
 1007358:	e0bffe17 	ldw	r2,-8(fp)
 100735c:	100690ba 	slli	r3,r2,2
 1007360:	00804074 	movhi	r2,257
 1007364:	1885883a 	add	r2,r3,r2
 1007368:	10b9e017 	ldw	r2,-6272(r2)
 100736c:	1009883a 	mov	r4,r2
 1007370:	e0bfffc3 	ldbu	r2,-1(fp)
 1007374:	e0fff4c7 	ldb	r3,-45(fp)
 1007378:	180f883a 	mov	r7,r3
 100737c:	100d883a 	mov	r6,r2
 1007380:	200b883a 	mov	r5,r4
 1007384:	01004074 	movhi	r4,257
 1007388:	2130db04 	addi	r4,r4,-15508
 100738c:	100460c0 	call	100460c <no_printf>
                    is_phy_in_profile = 1;
 1007390:	00800044 	movi	r2,1
 1007394:	e0bffdc5 	stb	r2,-9(fp)
                    break;
 1007398:	00000706 	br	10073b8 <alt_tse_mac_get_phy+0x1e8>
            for(i = 0; i < phy_profile_count; i++) {
 100739c:	e0bffe17 	ldw	r2,-8(fp)
 10073a0:	10800044 	addi	r2,r2,1
 10073a4:	e0bffe15 	stw	r2,-8(fp)
 10073a8:	d0a0f203 	ldbu	r2,-31800(gp)
 10073ac:	10803fcc 	andi	r2,r2,255
 10073b0:	e0fffe17 	ldw	r3,-8(fp)
 10073b4:	18bfd016 	blt	r3,r2,10072f8 <alt_tse_mac_get_phy+0x128>
                }
            }
            /* PHY not found in PHY profile */
            if(is_phy_in_profile == 0) {
 10073b8:	e0bffdc3 	ldbu	r2,-9(fp)
 10073bc:	10000f1e 	bne	r2,zero,10073fc <alt_tse_mac_get_phy+0x22c>
                pphy->pphy_profile = 0;
 10073c0:	e0bff917 	ldw	r2,-28(fp)
 10073c4:	10000515 	stw	zero,20(r2)
                tse_dprintf(3, "WARNING : Unknown PHY found at PHY address 0x%02x of MAC Group[%d]\n", phyadd, mac_group_index);
 10073c8:	e0bfffc3 	ldbu	r2,-1(fp)
 10073cc:	e0fff4c7 	ldb	r3,-45(fp)
 10073d0:	180d883a 	mov	r6,r3
 10073d4:	100b883a 	mov	r5,r2
 10073d8:	01004074 	movhi	r4,257
 10073dc:	2130eb04 	addi	r4,r4,-15444
 10073e0:	100460c0 	call	100460c <no_printf>
                tse_dprintf(3, "WARNING : Please add PHY information to PHY profile\n");
 10073e4:	01004074 	movhi	r4,257
 10073e8:	2130fc04 	addi	r4,r4,-15376
 10073ec:	100460c0 	call	100460c <no_printf>
                return_value++;
 10073f0:	e0bffc17 	ldw	r2,-16(fp)
 10073f4:	10800044 	addi	r2,r2,1
 10073f8:	e0bffc15 	stw	r2,-16(fp)
            }
            
            tse_dprintf(6, "INFO    : PHY OUI             =  0x%06x\n", (int) oui);
 10073fc:	e0bff217 	ldw	r2,-56(fp)
 1007400:	100b883a 	mov	r5,r2
 1007404:	01004074 	movhi	r4,257
 1007408:	21310a04 	addi	r4,r4,-15320
 100740c:	100460c0 	call	100460c <no_printf>
            tse_dprintf(6, "INFO    : PHY Model Number    =  0x%02x\n", model_number);
 1007410:	e0bff1c3 	ldbu	r2,-57(fp)
 1007414:	100b883a 	mov	r5,r2
 1007418:	01004074 	movhi	r4,257
 100741c:	21311504 	addi	r4,r4,-15276
 1007420:	100460c0 	call	100460c <no_printf>
            tse_dprintf(6, "INFO    : PHY Revision Number =  0x%01x\n", revision_number);
 1007424:	e0bff183 	ldbu	r2,-58(fp)
 1007428:	100b883a 	mov	r5,r2
 100742c:	01004074 	movhi	r4,257
 1007430:	21312004 	addi	r4,r4,-15232
 1007434:	100460c0 	call	100460c <no_printf>
            
            /* map the detected PHY to connected MAC */
            if(alt_tse_mac_associate_phy(pmac_group, pphy) == TSE_PHY_MAP_SUCCESS) {
 1007438:	e17ff917 	ldw	r5,-28(fp)
 100743c:	e13ff017 	ldw	r4,-64(fp)
 1007440:	10075d00 	call	10075d0 <alt_tse_mac_associate_phy>
 1007444:	1000341e 	bne	r2,zero,1007518 <alt_tse_mac_get_phy+0x348>
                
                pmac_info = pphy->pmac_info;
 1007448:	e0bff917 	ldw	r2,-28(fp)
 100744c:	10800617 	ldw	r2,24(r2)
 1007450:	e0bff815 	stw	r2,-32(fp)
                psys = pmac_info->psys_info;
 1007454:	e0bff817 	ldw	r2,-32(fp)
 1007458:	10800217 	ldw	r2,8(r2)
 100745c:	e0bff715 	stw	r2,-36(fp)
                
                /* Disable PHY loopback to allow Auto-Negotiation completed */
                alt_tse_phy_wr_mdio_reg(pphy, TSE_PHY_MDIO_CONTROL, TSE_PHY_MDIO_CONTROL_LOOPBACK, 1, 0);   // disable PHY loopback
 1007460:	d8000015 	stw	zero,0(sp)
 1007464:	01c00044 	movi	r7,1
 1007468:	01800384 	movi	r6,14
 100746c:	000b883a 	mov	r5,zero
 1007470:	e13ff917 	ldw	r4,-28(fp)
 1007474:	100648c0 	call	100648c <alt_tse_phy_wr_mdio_reg>
                
                /* Reset auto-negotiation advertisement */
                alt_tse_phy_set_adv_1000(pphy, 1);
 1007478:	01400044 	movi	r5,1
 100747c:	e13ff917 	ldw	r4,-28(fp)
 1007480:	10083240 	call	1008324 <alt_tse_phy_set_adv_1000>
                alt_tse_phy_set_adv_100(pphy, 1);
 1007484:	01400044 	movi	r5,1
 1007488:	e13ff917 	ldw	r4,-28(fp)
 100748c:	10084e80 	call	10084e8 <alt_tse_phy_set_adv_100>
                alt_tse_phy_set_adv_10(pphy, 1);
 1007490:	01400044 	movi	r5,1
 1007494:	e13ff917 	ldw	r4,-28(fp)
 1007498:	100873c0 	call	100873c <alt_tse_phy_set_adv_10>
                                
                /* check link connection for this PHY */
                alt_tse_phy_restart_an(pphy, ALTERA_CHECKLINK_TIMEOUT_THRESHOLD);
 100749c:	0149c404 	movi	r5,10000
 10074a0:	e13ff917 	ldw	r4,-28(fp)
 10074a4:	1007a440 	call	1007a44 <alt_tse_phy_restart_an>
                
                /* Perform additional setting if there is any */
                /* Profile specific */
                if(pphy->pphy_profile) {
 10074a8:	e0bff917 	ldw	r2,-28(fp)
 10074ac:	10800517 	ldw	r2,20(r2)
 10074b0:	10000f26 	beq	r2,zero,10074f0 <alt_tse_mac_get_phy+0x320>
                    if(pphy->pphy_profile->phy_cfg) {
 10074b4:	e0bff917 	ldw	r2,-28(fp)
 10074b8:	10800517 	ldw	r2,20(r2)
 10074bc:	10801717 	ldw	r2,92(r2)
 10074c0:	10000b26 	beq	r2,zero,10074f0 <alt_tse_mac_get_phy+0x320>
                        tse_dprintf(6, "INFO    : Applying additional PHY configuration of %s\n", pphy->pphy_profile->name);
 10074c4:	e0bff917 	ldw	r2,-28(fp)
 10074c8:	10800517 	ldw	r2,20(r2)
 10074cc:	100b883a 	mov	r5,r2
 10074d0:	01004074 	movhi	r4,257
 10074d4:	21312b04 	addi	r4,r4,-15188
 10074d8:	100460c0 	call	100460c <no_printf>
                        pphy->pphy_profile->phy_cfg(pmac_group_base);
 10074dc:	e0bff917 	ldw	r2,-28(fp)
 10074e0:	10800517 	ldw	r2,20(r2)
 10074e4:	10801717 	ldw	r2,92(r2)
 10074e8:	e13ff617 	ldw	r4,-40(fp)
 10074ec:	103ee83a 	callr	r2
                    }
                }
                
                /* Initialize PHY, call user's function pointer in alt_tse_system_info structure */
                /* Individual PHY specific */
                if(psys->tse_phy_cfg) {
 10074f0:	e0bff717 	ldw	r2,-36(fp)
 10074f4:	10801217 	ldw	r2,72(r2)
 10074f8:	10000726 	beq	r2,zero,1007518 <alt_tse_mac_get_phy+0x348>
                    tse_dprintf(6, "INFO    : Applying additional user PHY configuration\n");
 10074fc:	01004074 	movhi	r4,257
 1007500:	21313904 	addi	r4,r4,-15132
 1007504:	100460c0 	call	100460c <no_printf>
                    psys->tse_phy_cfg(pmac_group_base);
 1007508:	e0bff717 	ldw	r2,-36(fp)
 100750c:	10801217 	ldw	r2,72(r2)
 1007510:	e13ff617 	ldw	r4,-40(fp)
 1007514:	103ee83a 	callr	r2
                }
            }
            
            tse_dprintf(6, "\n");
 1007518:	01004074 	movhi	r4,257
 100751c:	21314704 	addi	r4,r4,-15076
 1007520:	100460c0 	call	100460c <no_printf>
                
            phy_info_count++;
 1007524:	e0bffbc3 	ldbu	r2,-17(fp)
 1007528:	10800044 	addi	r2,r2,1
 100752c:	e0bffbc5 	stb	r2,-17(fp)
    for (phyadd = 0x00; phyadd < 0x20; phyadd++)
 1007530:	e0bfffc3 	ldbu	r2,-1(fp)
 1007534:	10800044 	addi	r2,r2,1
 1007538:	e0bfffc5 	stb	r2,-1(fp)
 100753c:	e0bfffc3 	ldbu	r2,-1(fp)
 1007540:	10800830 	cmpltui	r2,r2,32
 1007544:	103f3b1e 	bne	r2,zero,1007234 <alt_tse_mac_get_phy+0x64>
        }
    }
    
    /* check to verify the number of connected PHY match the number of channel */
    if(pmac_group->channel != phy_info_count) {
 1007548:	e0bff017 	ldw	r2,-64(fp)
 100754c:	10800003 	ldbu	r2,0(r2)
 1007550:	10c03fcc 	andi	r3,r2,255
 1007554:	e0bffbc7 	ldb	r2,-17(fp)
 1007558:	18801326 	beq	r3,r2,10075a8 <alt_tse_mac_get_phy+0x3d8>
        if(phy_info_count == 0) {
 100755c:	e0bffbc7 	ldb	r2,-17(fp)
 1007560:	1000061e 	bne	r2,zero,100757c <alt_tse_mac_get_phy+0x3ac>
            tse_dprintf(2, "ERROR   : MAC Group[%d] - No PHY connected!\n", mac_group_index);
 1007564:	e0bff4c7 	ldb	r2,-45(fp)
 1007568:	100b883a 	mov	r5,r2
 100756c:	01004074 	movhi	r4,257
 1007570:	21314804 	addi	r4,r4,-15072
 1007574:	100460c0 	call	100460c <no_printf>
 1007578:	00000b06 	br	10075a8 <alt_tse_mac_get_phy+0x3d8>
        }
        else {
            tse_dprintf(3, "WARNING : MAC Group[%d] - Number of PHY connected is not equal to the number of channel, Number of PHY : %d, Channel : %d\n", mac_group_index, phy_info_count, pmac_group->channel);
 100757c:	e0fff4c7 	ldb	r3,-45(fp)
 1007580:	e13ffbc7 	ldb	r4,-17(fp)
 1007584:	e0bff017 	ldw	r2,-64(fp)
 1007588:	10800003 	ldbu	r2,0(r2)
 100758c:	10803fcc 	andi	r2,r2,255
 1007590:	100f883a 	mov	r7,r2
 1007594:	200d883a 	mov	r6,r4
 1007598:	180b883a 	mov	r5,r3
 100759c:	01004074 	movhi	r4,257
 10075a0:	21315404 	addi	r4,r4,-15024
 10075a4:	100460c0 	call	100460c <no_printf>
        }
    }
    
    /* Restore previous MDIO address */
    IOWR(&pmac_group_base->MDIO_ADDR1, 0, mdioadd_prev);
 10075a8:	e0bff617 	ldw	r2,-40(fp)
 10075ac:	10801004 	addi	r2,r2,64
 10075b0:	e0fff517 	ldw	r3,-44(fp)
 10075b4:	10c00035 	stwio	r3,0(r2)
    
    return return_value;
 10075b8:	e0bffc17 	ldw	r2,-16(fp)
}
 10075bc:	e037883a 	mov	sp,fp
 10075c0:	dfc00117 	ldw	ra,4(sp)
 10075c4:	df000017 	ldw	fp,0(sp)
 10075c8:	dec00204 	addi	sp,sp,8
 10075cc:	f800283a 	ret

010075d0 <alt_tse_mac_associate_phy>:
 * @param pmac_group  Pointer to the TSE MAC grouping structure
 * @param pphy        Pointer to the TSE PHY info structure which hold information of PHY
 * @return            return TSE_PHY_MAP_ERROR if mapping error
 *                    return TSE_PHY_MAP_SUCCESS otherwise
 */
alt_32 alt_tse_mac_associate_phy(alt_tse_mac_group *pmac_group, alt_tse_phy_info *pphy) {
 10075d0:	defff604 	addi	sp,sp,-40
 10075d4:	dfc00915 	stw	ra,36(sp)
 10075d8:	df000815 	stw	fp,32(sp)
 10075dc:	df000804 	addi	fp,sp,32
 10075e0:	e13ff915 	stw	r4,-28(fp)
 10075e4:	e17ff815 	stw	r5,-32(fp)
    
    alt_32 i;
    alt_32 return_value = TSE_PHY_MAP_SUCCESS;
 10075e8:	e03ffe15 	stw	zero,-8(fp)
    
    alt_u8 is_mapped;

    alt_tse_system_info *psys = 0;
 10075ec:	e03ffc15 	stw	zero,-16(fp)
    alt_tse_mac_info *pmac_info = 0;
 10075f0:	e03ffb15 	stw	zero,-20(fp)
    
    /* get index of the pointers in pointer array list */
    alt_8 mac_info_index = 0;
 10075f4:	e03ffac5 	stb	zero,-21(fp)
    alt_8 mac_group_index = alt_tse_get_mac_group_index(pmac_group);
 10075f8:	e13ff917 	ldw	r4,-28(fp)
 10075fc:	10056540 	call	1005654 <alt_tse_get_mac_group_index>
 1007600:	e0bffa85 	stb	r2,-22(fp)
    alt_8 sys_info_index = 0;
 1007604:	e03ffa45 	stb	zero,-23(fp)
    
    is_mapped = 0;
 1007608:	e03ffdc5 	stb	zero,-9(fp)
    
    for(i = 0; i < pmac_group->channel; i++) {
 100760c:	e03fff15 	stw	zero,-4(fp)
 1007610:	00002b06 	br	10076c0 <alt_tse_mac_associate_phy+0xf0>
        pmac_info = pmac_group->pmac_info[i];
 1007614:	e0fff917 	ldw	r3,-28(fp)
 1007618:	e0bfff17 	ldw	r2,-4(fp)
 100761c:	10800044 	addi	r2,r2,1
 1007620:	100490ba 	slli	r2,r2,2
 1007624:	1885883a 	add	r2,r3,r2
 1007628:	10800017 	ldw	r2,0(r2)
 100762c:	e0bffb15 	stw	r2,-20(fp)
        psys = pmac_info->psys_info;
 1007630:	e0bffb17 	ldw	r2,-20(fp)
 1007634:	10800217 	ldw	r2,8(r2)
 1007638:	e0bffc15 	stw	r2,-16(fp)
       
        /* map according to the PHY address in alt_tse_system_info.h */
        if(psys->tse_phy_mdio_address == pphy->mdio_address) {
 100763c:	e0bffc17 	ldw	r2,-16(fp)
 1007640:	10c01117 	ldw	r3,68(r2)
 1007644:	e0bff817 	ldw	r2,-32(fp)
 1007648:	10800003 	ldbu	r2,0(r2)
 100764c:	10803fcc 	andi	r2,r2,255
 1007650:	1880181e 	bne	r3,r2,10076b4 <alt_tse_mac_associate_phy+0xe4>
            mac_info_index = alt_tse_get_mac_info_index(pmac_info);
 1007654:	e13ffb17 	ldw	r4,-20(fp)
 1007658:	10056c00 	call	10056c0 <alt_tse_get_mac_info_index>
 100765c:	e0bffac5 	stb	r2,-21(fp)
            sys_info_index = alt_tse_get_system_index(psys);
 1007660:	e13ffc17 	ldw	r4,-16(fp)
 1007664:	10055d80 	call	10055d8 <alt_tse_get_system_index>
 1007668:	e0bffa45 	stb	r2,-23(fp)
            
            pmac_info->pphy_info = pphy;
 100766c:	e0bffb17 	ldw	r2,-20(fp)
 1007670:	e0fff817 	ldw	r3,-32(fp)
 1007674:	10c00115 	stw	r3,4(r2)
            pphy->pmac_info = pmac_info;
 1007678:	e0bff817 	ldw	r2,-32(fp)
 100767c:	e0fffb17 	ldw	r3,-20(fp)
 1007680:	10c00615 	stw	r3,24(r2)
            tse_dprintf(5, "INFO    : PHY[%d.%d] - Explicitly mapped to tse_mac_device[%d]\n", mac_group_index, mac_info_index, sys_info_index);
 1007684:	e0bffa87 	ldb	r2,-22(fp)
 1007688:	e0fffac7 	ldb	r3,-21(fp)
 100768c:	e13ffa47 	ldb	r4,-23(fp)
 1007690:	200f883a 	mov	r7,r4
 1007694:	180d883a 	mov	r6,r3
 1007698:	100b883a 	mov	r5,r2
 100769c:	01004074 	movhi	r4,257
 10076a0:	21317304 	addi	r4,r4,-14900
 10076a4:	100460c0 	call	100460c <no_printf>
            is_mapped = 1;
 10076a8:	00800044 	movi	r2,1
 10076ac:	e0bffdc5 	stb	r2,-9(fp)
            break;
 10076b0:	00000806 	br	10076d4 <alt_tse_mac_associate_phy+0x104>
    for(i = 0; i < pmac_group->channel; i++) {
 10076b4:	e0bfff17 	ldw	r2,-4(fp)
 10076b8:	10800044 	addi	r2,r2,1
 10076bc:	e0bfff15 	stw	r2,-4(fp)
 10076c0:	e0bff917 	ldw	r2,-28(fp)
 10076c4:	10800003 	ldbu	r2,0(r2)
 10076c8:	10803fcc 	andi	r2,r2,255
 10076cc:	e0ffff17 	ldw	r3,-4(fp)
 10076d0:	18bfd016 	blt	r3,r2,1007614 <alt_tse_mac_associate_phy+0x44>
        }
    }
    
    /* if not yet map, it will automatically mapped to the first TSE device encountered with tse_phy_mdio_address = TSE_PHY_AUTO_ADDRESS */
    if(is_mapped == 0) {
 10076d4:	e0bffdc3 	ldbu	r2,-9(fp)
 10076d8:	10003c1e 	bne	r2,zero,10077cc <alt_tse_mac_associate_phy+0x1fc>
        for(i = 0; i < pmac_group->channel; i++) {
 10076dc:	e03fff15 	stw	zero,-4(fp)
 10076e0:	00003506 	br	10077b8 <alt_tse_mac_associate_phy+0x1e8>
            pmac_info = pmac_group->pmac_info[i];
 10076e4:	e0fff917 	ldw	r3,-28(fp)
 10076e8:	e0bfff17 	ldw	r2,-4(fp)
 10076ec:	10800044 	addi	r2,r2,1
 10076f0:	100490ba 	slli	r2,r2,2
 10076f4:	1885883a 	add	r2,r3,r2
 10076f8:	10800017 	ldw	r2,0(r2)
 10076fc:	e0bffb15 	stw	r2,-20(fp)
            psys = pmac_info->psys_info;
 1007700:	e0bffb17 	ldw	r2,-20(fp)
 1007704:	10800217 	ldw	r2,8(r2)
 1007708:	e0bffc15 	stw	r2,-16(fp)
            
            /* alt_tse_system_info structure definition error */
            if((psys->tse_msgdma_tx == 0) || (psys->tse_msgdma_rx == 0)){
 100770c:	e0bffc17 	ldw	r2,-16(fp)
 1007710:	10800617 	ldw	r2,24(r2)
 1007714:	10002426 	beq	r2,zero,10077a8 <alt_tse_mac_associate_phy+0x1d8>
 1007718:	e0bffc17 	ldw	r2,-16(fp)
 100771c:	10800717 	ldw	r2,28(r2)
 1007720:	10002126 	beq	r2,zero,10077a8 <alt_tse_mac_associate_phy+0x1d8>
                continue;
            }
            
            if(psys->tse_phy_mdio_address == TSE_PHY_AUTO_ADDRESS) {
 1007724:	e0bffc17 	ldw	r2,-16(fp)
 1007728:	10801117 	ldw	r2,68(r2)
 100772c:	10bfffd8 	cmpnei	r2,r2,-1
 1007730:	10001e1e 	bne	r2,zero,10077ac <alt_tse_mac_associate_phy+0x1dc>
                mac_info_index = alt_tse_get_mac_info_index(pmac_info);
 1007734:	e13ffb17 	ldw	r4,-20(fp)
 1007738:	10056c00 	call	10056c0 <alt_tse_get_mac_info_index>
 100773c:	e0bffac5 	stb	r2,-21(fp)
                sys_info_index = alt_tse_get_system_index(psys);
 1007740:	e13ffc17 	ldw	r4,-16(fp)
 1007744:	10055d80 	call	10055d8 <alt_tse_get_system_index>
 1007748:	e0bffa45 	stb	r2,-23(fp)
                
                pmac_info->pphy_info = pphy;
 100774c:	e0bffb17 	ldw	r2,-20(fp)
 1007750:	e0fff817 	ldw	r3,-32(fp)
 1007754:	10c00115 	stw	r3,4(r2)
                pphy->pmac_info = pmac_info;
 1007758:	e0bff817 	ldw	r2,-32(fp)
 100775c:	e0fffb17 	ldw	r3,-20(fp)
 1007760:	10c00615 	stw	r3,24(r2)
                psys->tse_phy_mdio_address = pphy->mdio_address;
 1007764:	e0bff817 	ldw	r2,-32(fp)
 1007768:	10800003 	ldbu	r2,0(r2)
 100776c:	10c03fcc 	andi	r3,r2,255
 1007770:	e0bffc17 	ldw	r2,-16(fp)
 1007774:	10c01115 	stw	r3,68(r2)
                tse_dprintf(5, "INFO    : PHY[%d.%d] - Automatically mapped to tse_mac_device[%d]\n", mac_group_index, mac_info_index, sys_info_index);
 1007778:	e0bffa87 	ldb	r2,-22(fp)
 100777c:	e0fffac7 	ldb	r3,-21(fp)
 1007780:	e13ffa47 	ldb	r4,-23(fp)
 1007784:	200f883a 	mov	r7,r4
 1007788:	180d883a 	mov	r6,r3
 100778c:	100b883a 	mov	r5,r2
 1007790:	01004074 	movhi	r4,257
 1007794:	21318304 	addi	r4,r4,-14836
 1007798:	100460c0 	call	100460c <no_printf>
                is_mapped = 1;
 100779c:	00800044 	movi	r2,1
 10077a0:	e0bffdc5 	stb	r2,-9(fp)
                break;
 10077a4:	00000906 	br	10077cc <alt_tse_mac_associate_phy+0x1fc>
                continue;
 10077a8:	0001883a 	nop
        for(i = 0; i < pmac_group->channel; i++) {
 10077ac:	e0bfff17 	ldw	r2,-4(fp)
 10077b0:	10800044 	addi	r2,r2,1
 10077b4:	e0bfff15 	stw	r2,-4(fp)
 10077b8:	e0bff917 	ldw	r2,-28(fp)
 10077bc:	10800003 	ldbu	r2,0(r2)
 10077c0:	10803fcc 	andi	r2,r2,255
 10077c4:	e0ffff17 	ldw	r3,-4(fp)
 10077c8:	18bfc616 	blt	r3,r2,10076e4 <alt_tse_mac_associate_phy+0x114>
            }
        }
    }
    
    /* Still cannot find any matched MAC-PHY */
    if(is_mapped == 0) {
 10077cc:	e0bffdc3 	ldbu	r2,-9(fp)
 10077d0:	1000091e 	bne	r2,zero,10077f8 <alt_tse_mac_associate_phy+0x228>
        pphy->pmac_info = 0;
 10077d4:	e0bff817 	ldw	r2,-32(fp)
 10077d8:	10000615 	stw	zero,24(r2)
        tse_dprintf(2, "WARNING : PHY[%d.X] - Mapping of PHY to MAC failed! Make sure the PHY address is defined correctly in tse_mac_device[] structure, and number of PHYs connected is equivalent to number of channel\n", mac_group_index);
 10077dc:	e0bffa87 	ldb	r2,-22(fp)
 10077e0:	100b883a 	mov	r5,r2
 10077e4:	01004074 	movhi	r4,257
 10077e8:	21319404 	addi	r4,r4,-14768
 10077ec:	100460c0 	call	100460c <no_printf>
        return_value = TSE_PHY_MAP_ERROR;
 10077f0:	00bfffc4 	movi	r2,-1
 10077f4:	e0bffe15 	stw	r2,-8(fp)
    }
    
    return return_value;
 10077f8:	e0bffe17 	ldw	r2,-8(fp)
}
 10077fc:	e037883a 	mov	sp,fp
 1007800:	dfc00117 	ldw	ra,4(sp)
 1007804:	df000017 	ldw	fp,0(sp)
 1007808:	dec00204 	addi	sp,sp,8
 100780c:	f800283a 	ret

01007810 <alt_tse_phy_cfg_pcs>:
/* @Function Description: Configure operating mode of Altera PCS if available
 * @API Type:           Internal
 * @param pmac_info     pointer to MAC info variable
 * @return              return SUCCESS
 */
alt_32 alt_tse_phy_cfg_pcs(alt_tse_mac_info *pmac_info) {
 1007810:	defff804 	addi	sp,sp,-32
 1007814:	dfc00715 	stw	ra,28(sp)
 1007818:	df000615 	stw	fp,24(sp)
 100781c:	df000604 	addi	fp,sp,24
 1007820:	e13ffa15 	stw	r4,-24(fp)
    
    alt_tse_system_info *psys = pmac_info->psys_info;
 1007824:	e0bffa17 	ldw	r2,-24(fp)
 1007828:	10800217 	ldw	r2,8(r2)
 100782c:	e0bfff15 	stw	r2,-4(fp)
    np_tse_mac *pmac = (np_tse_mac *) psys->tse_mac_base;
 1007830:	e0bfff17 	ldw	r2,-4(fp)
 1007834:	10800017 	ldw	r2,0(r2)
 1007838:	e0bffe15 	stw	r2,-8(fp)
    alt_tse_mac_group *pmac_group = pmac_info->pmac_group;
 100783c:	e0bffa17 	ldw	r2,-24(fp)
 1007840:	10800317 	ldw	r2,12(r2)
 1007844:	e0bffd15 	stw	r2,-12(fp)
    
    /* get index of the pointers in pointer array list */
    alt_8 mac_info_index = alt_tse_get_mac_info_index(pmac_info);
 1007848:	e13ffa17 	ldw	r4,-24(fp)
 100784c:	10056c00 	call	10056c0 <alt_tse_get_mac_info_index>
 1007850:	e0bffcc5 	stb	r2,-13(fp)
    alt_8 mac_group_index = alt_tse_get_mac_group_index(pmac_group);
 1007854:	e13ffd17 	ldw	r4,-12(fp)
 1007858:	10056540 	call	1005654 <alt_tse_get_mac_group_index>
 100785c:	e0bffc85 	stb	r2,-14(fp)

    if(psys->tse_pcs_ena) {
 1007860:	e0bfff17 	ldw	r2,-4(fp)
 1007864:	108004c3 	ldbu	r2,19(r2)
 1007868:	10803fcc 	andi	r2,r2,255
 100786c:	10002c26 	beq	r2,zero,1007920 <alt_tse_phy_cfg_pcs+0x110>
        tse_dprintf(5, "INFO    : PCS[%d.%d] - Configuring PCS operating mode\n", mac_group_index, mac_info_index);
 1007870:	e0bffc87 	ldb	r2,-14(fp)
 1007874:	e0fffcc7 	ldb	r3,-13(fp)
 1007878:	180d883a 	mov	r6,r3
 100787c:	100b883a 	mov	r5,r2
 1007880:	01004074 	movhi	r4,257
 1007884:	2131c504 	addi	r4,r4,-14572
 1007888:	100460c0 	call	100460c <no_printf>
        
        alt_32 data = IORD(&pmac->mdio0.CONTROL, ALTERA_TSE_PCS_IF_MODE); 
 100788c:	e0bffe17 	ldw	r2,-8(fp)
 1007890:	10808004 	addi	r2,r2,512
 1007894:	10801404 	addi	r2,r2,80
 1007898:	10800037 	ldwio	r2,0(r2)
 100789c:	e0bffb15 	stw	r2,-20(fp)
        
        if(psys->tse_pcs_sgmii) {
 10078a0:	e0bfff17 	ldw	r2,-4(fp)
 10078a4:	10800503 	ldbu	r2,20(r2)
 10078a8:	10803fcc 	andi	r2,r2,255
 10078ac:	10000e26 	beq	r2,zero,10078e8 <alt_tse_phy_cfg_pcs+0xd8>
            tse_dprintf(5, "INFO    : PCS[%d.%d] - PCS SGMII mode enabled\n", mac_group_index, mac_info_index);
 10078b0:	e0bffc87 	ldb	r2,-14(fp)
 10078b4:	e0fffcc7 	ldb	r3,-13(fp)
 10078b8:	180d883a 	mov	r6,r3
 10078bc:	100b883a 	mov	r5,r2
 10078c0:	01004074 	movhi	r4,257
 10078c4:	2131d304 	addi	r4,r4,-14516
 10078c8:	100460c0 	call	100460c <no_printf>
            IOWR(&pmac->mdio0.CONTROL, ALTERA_TSE_PCS_IF_MODE, data | 0x03);
 10078cc:	e0bffe17 	ldw	r2,-8(fp)
 10078d0:	10808004 	addi	r2,r2,512
 10078d4:	10801404 	addi	r2,r2,80
 10078d8:	e0fffb17 	ldw	r3,-20(fp)
 10078dc:	18c000d4 	ori	r3,r3,3
 10078e0:	10c00035 	stwio	r3,0(r2)
 10078e4:	00000e06 	br	1007920 <alt_tse_phy_cfg_pcs+0x110>
            }
        else {
            tse_dprintf(5, "INFO    : PCS[%d.%d] - PCS SGMII mode disabled\n", mac_group_index, mac_info_index);
 10078e8:	e0bffc87 	ldb	r2,-14(fp)
 10078ec:	e0fffcc7 	ldb	r3,-13(fp)
 10078f0:	180d883a 	mov	r6,r3
 10078f4:	100b883a 	mov	r5,r2
 10078f8:	01004074 	movhi	r4,257
 10078fc:	2131df04 	addi	r4,r4,-14468
 1007900:	100460c0 	call	100460c <no_printf>
            IOWR(&pmac->mdio0.CONTROL, ALTERA_TSE_PCS_IF_MODE, data & ~0x03);
 1007904:	e0bffe17 	ldw	r2,-8(fp)
 1007908:	10808004 	addi	r2,r2,512
 100790c:	10801404 	addi	r2,r2,80
 1007910:	e13ffb17 	ldw	r4,-20(fp)
 1007914:	00ffff04 	movi	r3,-4
 1007918:	20c6703a 	and	r3,r4,r3
 100791c:	10c00035 	stwio	r3,0(r2)
        }
    }
    
    return SUCCESS;
 1007920:	0005883a 	mov	r2,zero
}
 1007924:	e037883a 	mov	sp,fp
 1007928:	dfc00117 	ldw	ra,4(sp)
 100792c:	df000017 	ldw	fp,0(sp)
 1007930:	dec00204 	addi	sp,sp,8
 1007934:	f800283a 	ret

01007938 <alt_tse_phy_init>:
/* @Function Description: Detect and initialize all the PHYs connected
 * @API Type:   Internal
 * @param pmac  N/A
 * @return      SUCCESS
 */
alt_32 alt_tse_phy_init() {
 1007938:	defffb04 	addi	sp,sp,-20
 100793c:	dfc00415 	stw	ra,16(sp)
 1007940:	df000315 	stw	fp,12(sp)
 1007944:	df000304 	addi	fp,sp,12
    alt_8 i = 0;
 1007948:	e03fffc5 	stb	zero,-1(fp)
    alt_8 j = 0;
 100794c:	e03fff85 	stb	zero,-2(fp)
    
    alt_tse_mac_group *pmac_group = 0;
 1007950:	e03ffe15 	stw	zero,-8(fp)
    alt_tse_mac_info *pmac_info = 0;
 1007954:	e03ffd15 	stw	zero,-12(fp)
    
    /* add supported PHYs */
    alt_tse_phy_add_profile_default();
 1007958:	10066880 	call	1006688 <alt_tse_phy_add_profile_default>
    
    /* display PHY in profile */
    alt_tse_phy_print_profile();
 100795c:	10069500 	call	1006950 <alt_tse_phy_print_profile>
    
    alt_tse_mac_group_init();
 1007960:	1006b200 	call	1006b20 <alt_tse_mac_group_init>
        
    /* initialize for each TSE MAC */
    /* run once only for multi-channel MAC */
    for(i = 0; i < mac_group_count; i++) {
 1007964:	e03fffc5 	stb	zero,-1(fp)
 1007968:	00002c06 	br	1007a1c <alt_tse_phy_init+0xe4>
        pmac_group = pmac_groups[i];
 100796c:	e0bfffc7 	ldb	r2,-1(fp)
 1007970:	100690ba 	slli	r3,r2,2
 1007974:	00804074 	movhi	r2,257
 1007978:	1885883a 	add	r2,r3,r2
 100797c:	10b9d817 	ldw	r2,-6304(r2)
 1007980:	e0bffe15 	stw	r2,-8(fp)
        
        if(pmac_group->pmac_info[0]->psys_info->tse_use_mdio) {
 1007984:	e0bffe17 	ldw	r2,-8(fp)
 1007988:	10800117 	ldw	r2,4(r2)
 100798c:	10800217 	ldw	r2,8(r2)
 1007990:	10800303 	ldbu	r2,12(r2)
 1007994:	10803fcc 	andi	r2,r2,255
 1007998:	10000326 	beq	r2,zero,10079a8 <alt_tse_phy_init+0x70>
            
            /* get connected PHYs */
            alt_tse_mac_get_phy(pmac_group);
 100799c:	e13ffe17 	ldw	r4,-8(fp)
 10079a0:	10071d00 	call	10071d0 <alt_tse_mac_get_phy>
 10079a4:	00000706 	br	10079c4 <alt_tse_phy_init+0x8c>
        }
        else {
            tse_dprintf(3, "WARNING : MAC Groups[%d]->pmac_info[%d] MDIO is not used, unable to run PHY detection\n", i, j);
 10079a8:	e0bfffc7 	ldb	r2,-1(fp)
 10079ac:	e0ffff87 	ldb	r3,-2(fp)
 10079b0:	180d883a 	mov	r6,r3
 10079b4:	100b883a 	mov	r5,r2
 10079b8:	01004074 	movhi	r4,257
 10079bc:	2131eb04 	addi	r4,r4,-14420
 10079c0:	100460c0 	call	100460c <no_printf>
        }
        
        /* Configure PCS mode if MAC+PCS system is used */
        for(j = 0; j < pmac_group->channel; j++) {
 10079c4:	e03fff85 	stb	zero,-2(fp)
 10079c8:	00000c06 	br	10079fc <alt_tse_phy_init+0xc4>
            pmac_info = pmac_group->pmac_info[j];
 10079cc:	e0bfff87 	ldb	r2,-2(fp)
 10079d0:	e0fffe17 	ldw	r3,-8(fp)
 10079d4:	10800044 	addi	r2,r2,1
 10079d8:	100490ba 	slli	r2,r2,2
 10079dc:	1885883a 	add	r2,r3,r2
 10079e0:	10800017 	ldw	r2,0(r2)
 10079e4:	e0bffd15 	stw	r2,-12(fp)
            
            alt_tse_phy_cfg_pcs(pmac_info);
 10079e8:	e13ffd17 	ldw	r4,-12(fp)
 10079ec:	10078100 	call	1007810 <alt_tse_phy_cfg_pcs>
        for(j = 0; j < pmac_group->channel; j++) {
 10079f0:	e0bfff83 	ldbu	r2,-2(fp)
 10079f4:	10800044 	addi	r2,r2,1
 10079f8:	e0bfff85 	stb	r2,-2(fp)
 10079fc:	e0ffff87 	ldb	r3,-2(fp)
 1007a00:	e0bffe17 	ldw	r2,-8(fp)
 1007a04:	10800003 	ldbu	r2,0(r2)
 1007a08:	10803fcc 	andi	r2,r2,255
 1007a0c:	18bfef16 	blt	r3,r2,10079cc <alt_tse_phy_init+0x94>
    for(i = 0; i < mac_group_count; i++) {
 1007a10:	e0bfffc3 	ldbu	r2,-1(fp)
 1007a14:	10800044 	addi	r2,r2,1
 1007a18:	e0bfffc5 	stb	r2,-1(fp)
 1007a1c:	e0ffffc7 	ldb	r3,-1(fp)
 1007a20:	d0a0f243 	ldbu	r2,-31799(gp)
 1007a24:	10803fcc 	andi	r2,r2,255
 1007a28:	18bfd016 	blt	r3,r2,100796c <alt_tse_phy_init+0x34>
        }
    }
                
    return SUCCESS;
 1007a2c:	0005883a 	mov	r2,zero
}
 1007a30:	e037883a 	mov	sp,fp
 1007a34:	dfc00117 	ldw	ra,4(sp)
 1007a38:	df000017 	ldw	fp,0(sp)
 1007a3c:	dec00204 	addi	sp,sp,8
 1007a40:	f800283a 	ret

01007a44 <alt_tse_phy_restart_an>:
 *        timeout_threshold     timeout value of Auto-Negotiation
 * @return                      return TSE_PHY_AN_COMPLETE if success
 *                              return TSE_PHY_AN_NOT_COMPLETE if auto-negotiation not completed
 *                              return TSE_PHY_AN_NOT_CAPABLE if the PHY not capable for AN
 */
alt_32 alt_tse_phy_restart_an(alt_tse_phy_info *pphy, alt_u32 timeout_threshold) {
 1007a44:	defff704 	addi	sp,sp,-36
 1007a48:	dfc00815 	stw	ra,32(sp)
 1007a4c:	df000715 	stw	fp,28(sp)
 1007a50:	df000704 	addi	fp,sp,28
 1007a54:	e13ffb15 	stw	r4,-20(fp)
 1007a58:	e17ffa15 	stw	r5,-24(fp)
    
    /* pointer to MAC associated and MAC group */
    alt_tse_mac_info *pmac_info = pphy->pmac_info;
 1007a5c:	e0bffb17 	ldw	r2,-20(fp)
 1007a60:	10800617 	ldw	r2,24(r2)
 1007a64:	e0bffe15 	stw	r2,-8(fp)
    alt_tse_mac_group *pmac_group = pmac_info->pmac_group;
 1007a68:	e0bffe17 	ldw	r2,-8(fp)
 1007a6c:	10800317 	ldw	r2,12(r2)
 1007a70:	e0bffd15 	stw	r2,-12(fp)
    
    /* get index of the pointers in pointer array list */
    alt_8 mac_info_index = alt_tse_get_mac_info_index(pmac_info);
 1007a74:	e13ffe17 	ldw	r4,-8(fp)
 1007a78:	10056c00 	call	10056c0 <alt_tse_get_mac_info_index>
 1007a7c:	e0bffcc5 	stb	r2,-13(fp)
    alt_8 mac_group_index = alt_tse_get_mac_group_index(pmac_group);
 1007a80:	e13ffd17 	ldw	r4,-12(fp)
 1007a84:	10056540 	call	1005654 <alt_tse_get_mac_group_index>
 1007a88:	e0bffc85 	stb	r2,-14(fp)
    
    /* Record previous MDIO address, to be restored at the end of function */
    alt_u8 mdioadd_prev = alt_tse_phy_rd_mdio_addr(pphy); 
 1007a8c:	e13ffb17 	ldw	r4,-20(fp)
 1007a90:	10063ec0 	call	10063ec <alt_tse_phy_rd_mdio_addr>
 1007a94:	e0bffc45 	stb	r2,-15(fp)
    
    /* write PHY address to MDIO to access the i-th PHY */
    alt_tse_phy_wr_mdio_addr(pphy, pphy->mdio_address);
 1007a98:	e0bffb17 	ldw	r2,-20(fp)
 1007a9c:	10800003 	ldbu	r2,0(r2)
 1007aa0:	10803fcc 	andi	r2,r2,255
 1007aa4:	100b883a 	mov	r5,r2
 1007aa8:	e13ffb17 	ldw	r4,-20(fp)
 1007aac:	10064340 	call	1006434 <alt_tse_phy_wr_mdio_addr>
    
    if(!alt_tse_phy_rd_mdio_reg(pphy, TSE_PHY_MDIO_STATUS, TSE_PHY_MDIO_STATUS_AN_ABILITY, 1)) {
 1007ab0:	01c00044 	movi	r7,1
 1007ab4:	018000c4 	movi	r6,3
 1007ab8:	01400044 	movi	r5,1
 1007abc:	e13ffb17 	ldw	r4,-20(fp)
 1007ac0:	10065b80 	call	10065b8 <alt_tse_phy_rd_mdio_reg>
 1007ac4:	10000d1e 	bne	r2,zero,1007afc <alt_tse_phy_restart_an+0xb8>
        tse_dprintf(3, "WARNING : PHY[%d.%d] - PHY not capable for Auto-Negotiation\n", mac_group_index, mac_info_index);
 1007ac8:	e0bffc87 	ldb	r2,-14(fp)
 1007acc:	e0fffcc7 	ldb	r3,-13(fp)
 1007ad0:	180d883a 	mov	r6,r3
 1007ad4:	100b883a 	mov	r5,r2
 1007ad8:	01004074 	movhi	r4,257
 1007adc:	21320104 	addi	r4,r4,-14332
 1007ae0:	100460c0 	call	100460c <no_printf>
        
        /* Restore previous MDIO address */
        alt_tse_phy_wr_mdio_addr(pphy, mdioadd_prev);
 1007ae4:	e0bffc43 	ldbu	r2,-15(fp)
 1007ae8:	100b883a 	mov	r5,r2
 1007aec:	e13ffb17 	ldw	r4,-20(fp)
 1007af0:	10064340 	call	1006434 <alt_tse_phy_wr_mdio_addr>
        
        return TSE_PHY_AN_NOT_CAPABLE;
 1007af4:	00bfff84 	movi	r2,-2
 1007af8:	00003e06 	br	1007bf4 <alt_tse_phy_restart_an+0x1b0>
    }
    
    /* enable Auto-Negotiation */    
    alt_tse_phy_wr_mdio_reg(pphy, TSE_PHY_MDIO_CONTROL, TSE_PHY_MDIO_CONTROL_AN_ENA, 1, 1);
 1007afc:	00800044 	movi	r2,1
 1007b00:	d8800015 	stw	r2,0(sp)
 1007b04:	01c00044 	movi	r7,1
 1007b08:	01800304 	movi	r6,12
 1007b0c:	000b883a 	mov	r5,zero
 1007b10:	e13ffb17 	ldw	r4,-20(fp)
 1007b14:	100648c0 	call	100648c <alt_tse_phy_wr_mdio_reg>
    
    /* send PHY reset command */
    alt_tse_phy_wr_mdio_reg(pphy, TSE_PHY_MDIO_CONTROL, TSE_PHY_MDIO_CONTROL_RESTART_AN, 1, 1);
 1007b18:	00800044 	movi	r2,1
 1007b1c:	d8800015 	stw	r2,0(sp)
 1007b20:	01c00044 	movi	r7,1
 1007b24:	01800244 	movi	r6,9
 1007b28:	000b883a 	mov	r5,zero
 1007b2c:	e13ffb17 	ldw	r4,-20(fp)
 1007b30:	100648c0 	call	100648c <alt_tse_phy_wr_mdio_reg>
    tse_dprintf(5, "INFO    : PHY[%d.%d] - Restart Auto-Negotiation, checking PHY link...\n", mac_group_index, mac_info_index);
 1007b34:	e0bffc87 	ldb	r2,-14(fp)
 1007b38:	e0fffcc7 	ldb	r3,-13(fp)
 1007b3c:	180d883a 	mov	r6,r3
 1007b40:	100b883a 	mov	r5,r2
 1007b44:	01004074 	movhi	r4,257
 1007b48:	21321104 	addi	r4,r4,-14268
 1007b4c:	100460c0 	call	100460c <no_printf>
    
    alt_32 timeout = 0;
 1007b50:	e03fff15 	stw	zero,-4(fp)
    while(alt_tse_phy_rd_mdio_reg(pphy, TSE_PHY_MDIO_STATUS, TSE_PHY_MDIO_STATUS_AN_COMPLETE, 1) == 0 ){ 
 1007b54:	00001506 	br	1007bac <alt_tse_phy_restart_an+0x168>
        if(timeout++ > timeout_threshold) {
 1007b58:	e0bfff17 	ldw	r2,-4(fp)
 1007b5c:	10c00044 	addi	r3,r2,1
 1007b60:	e0ffff15 	stw	r3,-4(fp)
 1007b64:	1007883a 	mov	r3,r2
 1007b68:	e0bffa17 	ldw	r2,-24(fp)
 1007b6c:	10c00d2e 	bgeu	r2,r3,1007ba4 <alt_tse_phy_restart_an+0x160>
           tse_dprintf(4, "WARNING : PHY[%d.%d] - Auto-Negotiation FAILED\n", mac_group_index, mac_info_index);
 1007b70:	e0bffc87 	ldb	r2,-14(fp)
 1007b74:	e0fffcc7 	ldb	r3,-13(fp)
 1007b78:	180d883a 	mov	r6,r3
 1007b7c:	100b883a 	mov	r5,r2
 1007b80:	01004074 	movhi	r4,257
 1007b84:	21322304 	addi	r4,r4,-14196
 1007b88:	100460c0 	call	100460c <no_printf>
           
           /* Restore previous MDIO address */
           alt_tse_phy_wr_mdio_addr(pphy, mdioadd_prev);
 1007b8c:	e0bffc43 	ldbu	r2,-15(fp)
 1007b90:	100b883a 	mov	r5,r2
 1007b94:	e13ffb17 	ldw	r4,-20(fp)
 1007b98:	10064340 	call	1006434 <alt_tse_phy_wr_mdio_addr>
           
           return TSE_PHY_AN_NOT_COMPLETE;
 1007b9c:	00bfffc4 	movi	r2,-1
 1007ba0:	00001406 	br	1007bf4 <alt_tse_phy_restart_an+0x1b0>
        }
        usleep(1000);
 1007ba4:	0100fa04 	movi	r4,1000
 1007ba8:	100a1a40 	call	100a1a4 <usleep>
    while(alt_tse_phy_rd_mdio_reg(pphy, TSE_PHY_MDIO_STATUS, TSE_PHY_MDIO_STATUS_AN_COMPLETE, 1) == 0 ){ 
 1007bac:	01c00044 	movi	r7,1
 1007bb0:	01800144 	movi	r6,5
 1007bb4:	01400044 	movi	r5,1
 1007bb8:	e13ffb17 	ldw	r4,-20(fp)
 1007bbc:	10065b80 	call	10065b8 <alt_tse_phy_rd_mdio_reg>
 1007bc0:	103fe526 	beq	r2,zero,1007b58 <alt_tse_phy_restart_an+0x114>
    }
    tse_dprintf(5, "INFO    : PHY[%d.%d] - Auto-Negotiation PASSED\n", mac_group_index, mac_info_index);
 1007bc4:	e0bffc87 	ldb	r2,-14(fp)
 1007bc8:	e0fffcc7 	ldb	r3,-13(fp)
 1007bcc:	180d883a 	mov	r6,r3
 1007bd0:	100b883a 	mov	r5,r2
 1007bd4:	01004074 	movhi	r4,257
 1007bd8:	21322f04 	addi	r4,r4,-14148
 1007bdc:	100460c0 	call	100460c <no_printf>
    
    /* Restore previous MDIO address */
    alt_tse_phy_wr_mdio_addr(pphy, mdioadd_prev);
 1007be0:	e0bffc43 	ldbu	r2,-15(fp)
 1007be4:	100b883a 	mov	r5,r2
 1007be8:	e13ffb17 	ldw	r4,-20(fp)
 1007bec:	10064340 	call	1006434 <alt_tse_phy_wr_mdio_addr>
    
    return TSE_PHY_AN_COMPLETE;
 1007bf0:	0005883a 	mov	r2,zero
}
 1007bf4:	e037883a 	mov	sp,fp
 1007bf8:	dfc00117 	ldw	ra,4(sp)
 1007bfc:	df000017 	ldw	fp,0(sp)
 1007c00:	dec00204 	addi	sp,sp,8
 1007c04:	f800283a 	ret

01007c08 <alt_tse_phy_check_link>:
 *        timeout_threshold     timeout value of Auto-Negotiation
 * @return                      return TSE_PHY_AN_COMPLETE if success
 *                              return TSE_PHY_AN_NOT_COMPLETE if auto-negotiation not completed
 */
alt_32 alt_tse_phy_check_link(alt_tse_phy_info *pphy, alt_u32 timeout_threshold)
{
 1007c08:	defff804 	addi	sp,sp,-32
 1007c0c:	dfc00715 	stw	ra,28(sp)
 1007c10:	df000615 	stw	fp,24(sp)
 1007c14:	df000604 	addi	fp,sp,24
 1007c18:	e13ffb15 	stw	r4,-20(fp)
 1007c1c:	e17ffa15 	stw	r5,-24(fp)
    alt_32 timeout=0;
 1007c20:	e03fff15 	stw	zero,-4(fp)
    
    /* pointer to MAC associated and MAC group */
    alt_tse_mac_info *pmac_info = pphy->pmac_info;
 1007c24:	e0bffb17 	ldw	r2,-20(fp)
 1007c28:	10800617 	ldw	r2,24(r2)
 1007c2c:	e0bffe15 	stw	r2,-8(fp)
    alt_tse_mac_group *pmac_group = pmac_info->pmac_group;
 1007c30:	e0bffe17 	ldw	r2,-8(fp)
 1007c34:	10800317 	ldw	r2,12(r2)
 1007c38:	e0bffd15 	stw	r2,-12(fp)
    
    /* get index of the pointers in pointer array list */
    alt_8 mac_info_index = alt_tse_get_mac_info_index(pmac_info);
 1007c3c:	e13ffe17 	ldw	r4,-8(fp)
 1007c40:	10056c00 	call	10056c0 <alt_tse_get_mac_info_index>
 1007c44:	e0bffcc5 	stb	r2,-13(fp)
    alt_8 mac_group_index = alt_tse_get_mac_group_index(pmac_group); 
 1007c48:	e13ffd17 	ldw	r4,-12(fp)
 1007c4c:	10056540 	call	1005654 <alt_tse_get_mac_group_index>
 1007c50:	e0bffc85 	stb	r2,-14(fp)
    
    /* Record previous MDIO address, to be restored at the end of function */
    alt_u8 mdioadd_prev = alt_tse_phy_rd_mdio_addr(pphy); 
 1007c54:	e13ffb17 	ldw	r4,-20(fp)
 1007c58:	10063ec0 	call	10063ec <alt_tse_phy_rd_mdio_addr>
 1007c5c:	e0bffc45 	stb	r2,-15(fp)
    
    /* write PHY address to MDIO to access the i-th PHY */
    alt_tse_phy_wr_mdio_addr(pphy, pphy->mdio_address);
 1007c60:	e0bffb17 	ldw	r2,-20(fp)
 1007c64:	10800003 	ldbu	r2,0(r2)
 1007c68:	10803fcc 	andi	r2,r2,255
 1007c6c:	100b883a 	mov	r5,r2
 1007c70:	e13ffb17 	ldw	r4,-20(fp)
 1007c74:	10064340 	call	1006434 <alt_tse_phy_wr_mdio_addr>
    /* Issue a PHY reset here and wait for the link
     * autonegotiation complete again... this takes several SECONDS(!)
     * so be very careful not to do it frequently
     * perform this when PHY is configured in loopback or has no link yet.
     */
    tse_dprintf(5, "INFO    : PHY[%d.%d] - Checking link...\n", mac_group_index, mac_info_index);
 1007c78:	e0bffc87 	ldb	r2,-14(fp)
 1007c7c:	e0fffcc7 	ldb	r3,-13(fp)
 1007c80:	180d883a 	mov	r6,r3
 1007c84:	100b883a 	mov	r5,r2
 1007c88:	01004074 	movhi	r4,257
 1007c8c:	21323b04 	addi	r4,r4,-14100
 1007c90:	100460c0 	call	100460c <no_printf>
    while( ((alt_tse_phy_rd_mdio_reg(pphy, TSE_PHY_MDIO_CONTROL, TSE_PHY_MDIO_CONTROL_LOOPBACK, 1)) != 0) ||
 1007c94:	00002106 	br	1007d1c <alt_tse_phy_check_link+0x114>
        ((alt_tse_phy_rd_mdio_reg(pphy, TSE_PHY_MDIO_STATUS, TSE_PHY_MDIO_STATUS_AN_COMPLETE, 1)) == 0) )
    {                 
        if (timeout++ > timeout_threshold) 
 1007c98:	e0bfff17 	ldw	r2,-4(fp)
 1007c9c:	10c00044 	addi	r3,r2,1
 1007ca0:	e0ffff15 	stw	r3,-4(fp)
 1007ca4:	1007883a 	mov	r3,r2
 1007ca8:	e0bffa17 	ldw	r2,-24(fp)
 1007cac:	10c0192e 	bgeu	r2,r3,1007d14 <alt_tse_phy_check_link+0x10c>
        {    
          tse_dprintf(5, "INFO    : PHY[%d.%d] - Link not yet established, restart auto-negotiation...\n", mac_group_index, mac_info_index);
 1007cb0:	e0bffc87 	ldb	r2,-14(fp)
 1007cb4:	e0fffcc7 	ldb	r3,-13(fp)
 1007cb8:	180d883a 	mov	r6,r3
 1007cbc:	100b883a 	mov	r5,r2
 1007cc0:	01004074 	movhi	r4,257
 1007cc4:	21324604 	addi	r4,r4,-14056
 1007cc8:	100460c0 	call	100460c <no_printf>
          /* restart Auto-Negotiation */
          /* if Auto-Negotiation still cannot complete, then go to next PHY */
          if(alt_tse_phy_restart_an(pphy, timeout_threshold) == TSE_PHY_AN_NOT_COMPLETE)
 1007ccc:	e17ffa17 	ldw	r5,-24(fp)
 1007cd0:	e13ffb17 	ldw	r4,-20(fp)
 1007cd4:	1007a440 	call	1007a44 <alt_tse_phy_restart_an>
 1007cd8:	10bfffd8 	cmpnei	r2,r2,-1
 1007cdc:	10000d1e 	bne	r2,zero,1007d14 <alt_tse_phy_check_link+0x10c>
          {
            tse_dprintf(3, "WARNING : PHY[%d.%d] - Link could not established\n", mac_group_index, mac_info_index);
 1007ce0:	e0bffc87 	ldb	r2,-14(fp)
 1007ce4:	e0fffcc7 	ldb	r3,-13(fp)
 1007ce8:	180d883a 	mov	r6,r3
 1007cec:	100b883a 	mov	r5,r2
 1007cf0:	01004074 	movhi	r4,257
 1007cf4:	21325a04 	addi	r4,r4,-13976
 1007cf8:	100460c0 	call	100460c <no_printf>
            
            /* Restore previous MDIO address */
            alt_tse_phy_wr_mdio_addr(pphy, mdioadd_prev);
 1007cfc:	e0bffc43 	ldbu	r2,-15(fp)
 1007d00:	100b883a 	mov	r5,r2
 1007d04:	e13ffb17 	ldw	r4,-20(fp)
 1007d08:	10064340 	call	1006434 <alt_tse_phy_wr_mdio_addr>
    
            return TSE_PHY_AN_NOT_COMPLETE;
 1007d0c:	00bfffc4 	movi	r2,-1
 1007d10:	00001a06 	br	1007d7c <alt_tse_phy_check_link+0x174>
          } 
        }   
        usleep(1000);        
 1007d14:	0100fa04 	movi	r4,1000
 1007d18:	100a1a40 	call	100a1a4 <usleep>
    while( ((alt_tse_phy_rd_mdio_reg(pphy, TSE_PHY_MDIO_CONTROL, TSE_PHY_MDIO_CONTROL_LOOPBACK, 1)) != 0) ||
 1007d1c:	01c00044 	movi	r7,1
 1007d20:	01800384 	movi	r6,14
 1007d24:	000b883a 	mov	r5,zero
 1007d28:	e13ffb17 	ldw	r4,-20(fp)
 1007d2c:	10065b80 	call	10065b8 <alt_tse_phy_rd_mdio_reg>
 1007d30:	103fd91e 	bne	r2,zero,1007c98 <alt_tse_phy_check_link+0x90>
        ((alt_tse_phy_rd_mdio_reg(pphy, TSE_PHY_MDIO_STATUS, TSE_PHY_MDIO_STATUS_AN_COMPLETE, 1)) == 0) )
 1007d34:	01c00044 	movi	r7,1
 1007d38:	01800144 	movi	r6,5
 1007d3c:	01400044 	movi	r5,1
 1007d40:	e13ffb17 	ldw	r4,-20(fp)
 1007d44:	10065b80 	call	10065b8 <alt_tse_phy_rd_mdio_reg>
    while( ((alt_tse_phy_rd_mdio_reg(pphy, TSE_PHY_MDIO_CONTROL, TSE_PHY_MDIO_CONTROL_LOOPBACK, 1)) != 0) ||
 1007d48:	103fd326 	beq	r2,zero,1007c98 <alt_tse_phy_check_link+0x90>
    }
    tse_dprintf(5, "INFO    : PHY[%d.%d] - Link established\n", mac_group_index, mac_info_index);
 1007d4c:	e0bffc87 	ldb	r2,-14(fp)
 1007d50:	e0fffcc7 	ldb	r3,-13(fp)
 1007d54:	180d883a 	mov	r6,r3
 1007d58:	100b883a 	mov	r5,r2
 1007d5c:	01004074 	movhi	r4,257
 1007d60:	21326704 	addi	r4,r4,-13924
 1007d64:	100460c0 	call	100460c <no_printf>
            
    /* Restore previous MDIO address */
    alt_tse_phy_wr_mdio_addr(pphy, mdioadd_prev);
 1007d68:	e0bffc43 	ldbu	r2,-15(fp)
 1007d6c:	100b883a 	mov	r5,r2
 1007d70:	e13ffb17 	ldw	r4,-20(fp)
 1007d74:	10064340 	call	1006434 <alt_tse_phy_wr_mdio_addr>
    
    return TSE_PHY_AN_COMPLETE; 
 1007d78:	0005883a 	mov	r2,zero
}
 1007d7c:	e037883a 	mov	sp,fp
 1007d80:	dfc00117 	ldw	ra,4(sp)
 1007d84:	df000017 	ldw	fp,0(sp)
 1007d88:	dec00204 	addi	sp,sp,8
 1007d8c:	f800283a 	ret

01007d90 <alt_tse_phy_get_cap>:
 * @param pmac  Pointer to the alt_tse_phy_info structure
 * @return      return TSE_PHY_AN_COMPLETE if success
 *              return TSE_PHY_AN_NOT_COMPLETE if auto-negotiation not completed
 *              return TSE_PHY_AN_NOT_CAPABLE if the PHY not capable for AN
 */
alt_32 alt_tse_phy_get_cap(alt_tse_phy_info *pphy) {
 1007d90:	defff904 	addi	sp,sp,-28
 1007d94:	dfc00615 	stw	ra,24(sp)
 1007d98:	df000515 	stw	fp,20(sp)
 1007d9c:	df000504 	addi	fp,sp,20
 1007da0:	e13ffb15 	stw	r4,-20(fp)
    alt_32 return_value = TSE_PHY_AN_COMPLETE;
 1007da4:	e03fff15 	stw	zero,-4(fp)
    
    /* pointer to MAC associated and MAC group */
    alt_tse_mac_info *pmac_info = pphy->pmac_info;
 1007da8:	e0bffb17 	ldw	r2,-20(fp)
 1007dac:	10800617 	ldw	r2,24(r2)
 1007db0:	e0bffe15 	stw	r2,-8(fp)
    alt_tse_mac_group *pmac_group = pmac_info->pmac_group;
 1007db4:	e0bffe17 	ldw	r2,-8(fp)
 1007db8:	10800317 	ldw	r2,12(r2)
 1007dbc:	e0bffd15 	stw	r2,-12(fp)
    
    /* get index of the pointers in pointer array list */
    alt_8 mac_info_index = alt_tse_get_mac_info_index(pmac_info);
 1007dc0:	e13ffe17 	ldw	r4,-8(fp)
 1007dc4:	10056c00 	call	10056c0 <alt_tse_get_mac_info_index>
 1007dc8:	e0bffcc5 	stb	r2,-13(fp)
    alt_8 mac_group_index = alt_tse_get_mac_group_index(pmac_group);    
 1007dcc:	e13ffd17 	ldw	r4,-12(fp)
 1007dd0:	10056540 	call	1005654 <alt_tse_get_mac_group_index>
 1007dd4:	e0bffc85 	stb	r2,-14(fp)
        
    /* Record previous MDIO address, to be restored at the end of function */
    alt_u8 mdioadd_prev = alt_tse_phy_rd_mdio_addr(pphy); 
 1007dd8:	e13ffb17 	ldw	r4,-20(fp)
 1007ddc:	10063ec0 	call	10063ec <alt_tse_phy_rd_mdio_addr>
 1007de0:	e0bffc45 	stb	r2,-15(fp)
       
    /* write PHY address to MDIO to access the i-th PHY */
    alt_tse_phy_wr_mdio_addr(pphy, pphy->mdio_address);
 1007de4:	e0bffb17 	ldw	r2,-20(fp)
 1007de8:	10800003 	ldbu	r2,0(r2)
 1007dec:	10803fcc 	andi	r2,r2,255
 1007df0:	100b883a 	mov	r5,r2
 1007df4:	e13ffb17 	ldw	r4,-20(fp)
 1007df8:	10064340 	call	1006434 <alt_tse_phy_wr_mdio_addr>
            
    if(!alt_tse_phy_rd_mdio_reg(pphy, TSE_PHY_MDIO_STATUS, TSE_PHY_MDIO_STATUS_AN_ABILITY, 1)) {
 1007dfc:	01c00044 	movi	r7,1
 1007e00:	018000c4 	movi	r6,3
 1007e04:	01400044 	movi	r5,1
 1007e08:	e13ffb17 	ldw	r4,-20(fp)
 1007e0c:	10065b80 	call	10065b8 <alt_tse_phy_rd_mdio_reg>
 1007e10:	10000d1e 	bne	r2,zero,1007e48 <alt_tse_phy_get_cap+0xb8>
        tse_dprintf(3, "WARNING : PHY[%d.%d] - PHY not capable for Auto-Negotiation\n", mac_group_index, mac_info_index);
 1007e14:	e0bffc87 	ldb	r2,-14(fp)
 1007e18:	e0fffcc7 	ldb	r3,-13(fp)
 1007e1c:	180d883a 	mov	r6,r3
 1007e20:	100b883a 	mov	r5,r2
 1007e24:	01004074 	movhi	r4,257
 1007e28:	21320104 	addi	r4,r4,-14332
 1007e2c:	100460c0 	call	100460c <no_printf>
        
        /* Restore previous MDIO address */
        alt_tse_phy_wr_mdio_addr(pphy, mdioadd_prev);
 1007e30:	e0bffc43 	ldbu	r2,-15(fp)
 1007e34:	100b883a 	mov	r5,r2
 1007e38:	e13ffb17 	ldw	r4,-20(fp)
 1007e3c:	10064340 	call	1006434 <alt_tse_phy_wr_mdio_addr>
        
        return TSE_PHY_AN_NOT_CAPABLE;
 1007e40:	00bfff84 	movi	r2,-2
 1007e44:	00013206 	br	1008310 <alt_tse_phy_get_cap+0x580>
    }
    
    /* check whether link has been established */
    alt_tse_phy_restart_an(pphy, ALTERA_AUTONEG_TIMEOUT_THRESHOLD);
 1007e48:	01427104 	movi	r5,2500
 1007e4c:	e13ffb17 	ldw	r4,-20(fp)
 1007e50:	1007a440 	call	1007a44 <alt_tse_phy_restart_an>
    
    if(alt_tse_phy_rd_mdio_reg(pphy, TSE_PHY_MDIO_STATUS, TSE_PHY_MDIO_STATUS_AN_COMPLETE, 1) == 0) {
 1007e54:	01c00044 	movi	r7,1
 1007e58:	01800144 	movi	r6,5
 1007e5c:	01400044 	movi	r5,1
 1007e60:	e13ffb17 	ldw	r4,-20(fp)
 1007e64:	10065b80 	call	10065b8 <alt_tse_phy_rd_mdio_reg>
 1007e68:	1000021e 	bne	r2,zero,1007e74 <alt_tse_phy_get_cap+0xe4>
        return_value = TSE_PHY_AN_NOT_COMPLETE;
 1007e6c:	00bfffc4 	movi	r2,-1
 1007e70:	e0bfff15 	stw	r2,-4(fp)
    }
    
    /* get PHY capabilities */
    pphy->link_capability.cap_1000_base_x_full = alt_tse_phy_rd_mdio_reg(pphy, TSE_PHY_MDIO_EXT_STATUS, TSE_PHY_MDIO_EXT_STATUS_1000BASE_X_FULL, 1);
 1007e74:	01c00044 	movi	r7,1
 1007e78:	018003c4 	movi	r6,15
 1007e7c:	014003c4 	movi	r5,15
 1007e80:	e13ffb17 	ldw	r4,-20(fp)
 1007e84:	10065b80 	call	10065b8 <alt_tse_phy_rd_mdio_reg>
 1007e88:	1007883a 	mov	r3,r2
 1007e8c:	e0bffb17 	ldw	r2,-20(fp)
 1007e90:	10c00045 	stb	r3,1(r2)
    pphy->link_capability.cap_1000_base_x_half = alt_tse_phy_rd_mdio_reg(pphy, TSE_PHY_MDIO_EXT_STATUS, TSE_PHY_MDIO_EXT_STATUS_1000BASE_X_HALF, 1);
 1007e94:	01c00044 	movi	r7,1
 1007e98:	01800384 	movi	r6,14
 1007e9c:	014003c4 	movi	r5,15
 1007ea0:	e13ffb17 	ldw	r4,-20(fp)
 1007ea4:	10065b80 	call	10065b8 <alt_tse_phy_rd_mdio_reg>
 1007ea8:	1007883a 	mov	r3,r2
 1007eac:	e0bffb17 	ldw	r2,-20(fp)
 1007eb0:	10c00085 	stb	r3,2(r2)
    pphy->link_capability.cap_1000_base_t_full = alt_tse_phy_rd_mdio_reg(pphy, TSE_PHY_MDIO_EXT_STATUS, TSE_PHY_MDIO_EXT_STATUS_1000BASE_T_FULL, 1);
 1007eb4:	01c00044 	movi	r7,1
 1007eb8:	01800344 	movi	r6,13
 1007ebc:	014003c4 	movi	r5,15
 1007ec0:	e13ffb17 	ldw	r4,-20(fp)
 1007ec4:	10065b80 	call	10065b8 <alt_tse_phy_rd_mdio_reg>
 1007ec8:	1007883a 	mov	r3,r2
 1007ecc:	e0bffb17 	ldw	r2,-20(fp)
 1007ed0:	10c000c5 	stb	r3,3(r2)
    pphy->link_capability.cap_1000_base_t_half = alt_tse_phy_rd_mdio_reg(pphy, TSE_PHY_MDIO_EXT_STATUS, TSE_PHY_MDIO_EXT_STATUS_1000BASE_T_HALF, 1);
 1007ed4:	01c00044 	movi	r7,1
 1007ed8:	01800304 	movi	r6,12
 1007edc:	014003c4 	movi	r5,15
 1007ee0:	e13ffb17 	ldw	r4,-20(fp)
 1007ee4:	10065b80 	call	10065b8 <alt_tse_phy_rd_mdio_reg>
 1007ee8:	1007883a 	mov	r3,r2
 1007eec:	e0bffb17 	ldw	r2,-20(fp)
 1007ef0:	10c00105 	stb	r3,4(r2)
    
    pphy->link_capability.cap_100_base_t4      = alt_tse_phy_rd_mdio_reg(pphy, TSE_PHY_MDIO_STATUS, TSE_PHY_MDIO_STATUS_100BASE_T4, 1);
 1007ef4:	01c00044 	movi	r7,1
 1007ef8:	018003c4 	movi	r6,15
 1007efc:	01400044 	movi	r5,1
 1007f00:	e13ffb17 	ldw	r4,-20(fp)
 1007f04:	10065b80 	call	10065b8 <alt_tse_phy_rd_mdio_reg>
 1007f08:	1007883a 	mov	r3,r2
 1007f0c:	e0bffb17 	ldw	r2,-20(fp)
 1007f10:	10c00145 	stb	r3,5(r2)
    pphy->link_capability.cap_100_base_x_full  = alt_tse_phy_rd_mdio_reg(pphy, TSE_PHY_MDIO_STATUS, TSE_PHY_MDIO_STATUS_100BASE_X_FULL, 1);
 1007f14:	01c00044 	movi	r7,1
 1007f18:	01800384 	movi	r6,14
 1007f1c:	01400044 	movi	r5,1
 1007f20:	e13ffb17 	ldw	r4,-20(fp)
 1007f24:	10065b80 	call	10065b8 <alt_tse_phy_rd_mdio_reg>
 1007f28:	1007883a 	mov	r3,r2
 1007f2c:	e0bffb17 	ldw	r2,-20(fp)
 1007f30:	10c00185 	stb	r3,6(r2)
    pphy->link_capability.cap_100_base_x_half  = alt_tse_phy_rd_mdio_reg(pphy, TSE_PHY_MDIO_STATUS, TSE_PHY_MDIO_STATUS_100BASE_X_HALF, 1);
 1007f34:	01c00044 	movi	r7,1
 1007f38:	01800344 	movi	r6,13
 1007f3c:	01400044 	movi	r5,1
 1007f40:	e13ffb17 	ldw	r4,-20(fp)
 1007f44:	10065b80 	call	10065b8 <alt_tse_phy_rd_mdio_reg>
 1007f48:	1007883a 	mov	r3,r2
 1007f4c:	e0bffb17 	ldw	r2,-20(fp)
 1007f50:	10c001c5 	stb	r3,7(r2)
    pphy->link_capability.cap_100_base_t2_full = alt_tse_phy_rd_mdio_reg(pphy, TSE_PHY_MDIO_STATUS, TSE_PHY_MDIO_STATUS_100BASE_T2_FULL, 1);
 1007f54:	01c00044 	movi	r7,1
 1007f58:	01800284 	movi	r6,10
 1007f5c:	01400044 	movi	r5,1
 1007f60:	e13ffb17 	ldw	r4,-20(fp)
 1007f64:	10065b80 	call	10065b8 <alt_tse_phy_rd_mdio_reg>
 1007f68:	1007883a 	mov	r3,r2
 1007f6c:	e0bffb17 	ldw	r2,-20(fp)
 1007f70:	10c00205 	stb	r3,8(r2)
    pphy->link_capability.cap_100_base_t2_half = alt_tse_phy_rd_mdio_reg(pphy, TSE_PHY_MDIO_STATUS, TSE_PHY_MDIO_STATUS_100BASE_T2_HALF, 1);
 1007f74:	01c00044 	movi	r7,1
 1007f78:	01800244 	movi	r6,9
 1007f7c:	01400044 	movi	r5,1
 1007f80:	e13ffb17 	ldw	r4,-20(fp)
 1007f84:	10065b80 	call	10065b8 <alt_tse_phy_rd_mdio_reg>
 1007f88:	1007883a 	mov	r3,r2
 1007f8c:	e0bffb17 	ldw	r2,-20(fp)
 1007f90:	10c00245 	stb	r3,9(r2)
    pphy->link_capability.cap_10_base_t_full   = alt_tse_phy_rd_mdio_reg(pphy, TSE_PHY_MDIO_STATUS, TSE_PHY_MDIO_STATUS_10BASE_T_FULL, 1);
 1007f94:	01c00044 	movi	r7,1
 1007f98:	01800304 	movi	r6,12
 1007f9c:	01400044 	movi	r5,1
 1007fa0:	e13ffb17 	ldw	r4,-20(fp)
 1007fa4:	10065b80 	call	10065b8 <alt_tse_phy_rd_mdio_reg>
 1007fa8:	1007883a 	mov	r3,r2
 1007fac:	e0bffb17 	ldw	r2,-20(fp)
 1007fb0:	10c00285 	stb	r3,10(r2)
    pphy->link_capability.cap_10_base_t_half   = alt_tse_phy_rd_mdio_reg(pphy, TSE_PHY_MDIO_STATUS, TSE_PHY_MDIO_STATUS_10BASE_T_HALF, 1);
 1007fb4:	01c00044 	movi	r7,1
 1007fb8:	018002c4 	movi	r6,11
 1007fbc:	01400044 	movi	r5,1
 1007fc0:	e13ffb17 	ldw	r4,-20(fp)
 1007fc4:	10065b80 	call	10065b8 <alt_tse_phy_rd_mdio_reg>
 1007fc8:	1007883a 	mov	r3,r2
 1007fcc:	e0bffb17 	ldw	r2,-20(fp)
 1007fd0:	10c002c5 	stb	r3,11(r2)
    
    /* get link partner capability */
    pphy->link_capability.lp_1000_base_t_full  = alt_tse_phy_rd_mdio_reg(pphy, TSE_PHY_MDIO_1000BASE_T_STATUS, TSE_PHY_MDIO_1000BASE_T_STATUS_LP_FULL_ADV, 1);
 1007fd4:	01c00044 	movi	r7,1
 1007fd8:	018002c4 	movi	r6,11
 1007fdc:	01400284 	movi	r5,10
 1007fe0:	e13ffb17 	ldw	r4,-20(fp)
 1007fe4:	10065b80 	call	10065b8 <alt_tse_phy_rd_mdio_reg>
 1007fe8:	1007883a 	mov	r3,r2
 1007fec:	e0bffb17 	ldw	r2,-20(fp)
 1007ff0:	10c00305 	stb	r3,12(r2)
    pphy->link_capability.lp_1000_base_t_half  = alt_tse_phy_rd_mdio_reg(pphy, TSE_PHY_MDIO_1000BASE_T_STATUS, TSE_PHY_MDIO_1000BASE_T_STATUS_LP_HALF_ADV, 1);
 1007ff4:	01c00044 	movi	r7,1
 1007ff8:	01800284 	movi	r6,10
 1007ffc:	01400284 	movi	r5,10
 1008000:	e13ffb17 	ldw	r4,-20(fp)
 1008004:	10065b80 	call	10065b8 <alt_tse_phy_rd_mdio_reg>
 1008008:	1007883a 	mov	r3,r2
 100800c:	e0bffb17 	ldw	r2,-20(fp)
 1008010:	10c00345 	stb	r3,13(r2)
    
    pphy->link_capability.lp_100_base_t4       = alt_tse_phy_rd_mdio_reg(pphy, TSE_PHY_MDIO_REMADV, TSE_PHY_MDIO_ADV_100BASE_T4, 1);
 1008014:	01c00044 	movi	r7,1
 1008018:	01800244 	movi	r6,9
 100801c:	01400144 	movi	r5,5
 1008020:	e13ffb17 	ldw	r4,-20(fp)
 1008024:	10065b80 	call	10065b8 <alt_tse_phy_rd_mdio_reg>
 1008028:	1007883a 	mov	r3,r2
 100802c:	e0bffb17 	ldw	r2,-20(fp)
 1008030:	10c00385 	stb	r3,14(r2)
    pphy->link_capability.lp_100_base_tx_full  = alt_tse_phy_rd_mdio_reg(pphy, TSE_PHY_MDIO_REMADV, TSE_PHY_MDIO_ADV_100BASE_TX_FULL, 1);
 1008034:	01c00044 	movi	r7,1
 1008038:	01800204 	movi	r6,8
 100803c:	01400144 	movi	r5,5
 1008040:	e13ffb17 	ldw	r4,-20(fp)
 1008044:	10065b80 	call	10065b8 <alt_tse_phy_rd_mdio_reg>
 1008048:	1007883a 	mov	r3,r2
 100804c:	e0bffb17 	ldw	r2,-20(fp)
 1008050:	10c003c5 	stb	r3,15(r2)
    pphy->link_capability.lp_100_base_tx_half  = alt_tse_phy_rd_mdio_reg(pphy, TSE_PHY_MDIO_REMADV, TSE_PHY_MDIO_ADV_100BASE_TX_HALF, 1);
 1008054:	01c00044 	movi	r7,1
 1008058:	018001c4 	movi	r6,7
 100805c:	01400144 	movi	r5,5
 1008060:	e13ffb17 	ldw	r4,-20(fp)
 1008064:	10065b80 	call	10065b8 <alt_tse_phy_rd_mdio_reg>
 1008068:	1007883a 	mov	r3,r2
 100806c:	e0bffb17 	ldw	r2,-20(fp)
 1008070:	10c00405 	stb	r3,16(r2)
    pphy->link_capability.lp_10_base_tx_full   = alt_tse_phy_rd_mdio_reg(pphy, TSE_PHY_MDIO_REMADV, TSE_PHY_MDIO_ADV_10BASE_TX_FULL, 1);
 1008074:	01c00044 	movi	r7,1
 1008078:	01800184 	movi	r6,6
 100807c:	01400144 	movi	r5,5
 1008080:	e13ffb17 	ldw	r4,-20(fp)
 1008084:	10065b80 	call	10065b8 <alt_tse_phy_rd_mdio_reg>
 1008088:	1007883a 	mov	r3,r2
 100808c:	e0bffb17 	ldw	r2,-20(fp)
 1008090:	10c00445 	stb	r3,17(r2)
    pphy->link_capability.lp_10_base_tx_half   = alt_tse_phy_rd_mdio_reg(pphy, TSE_PHY_MDIO_REMADV, TSE_PHY_MDIO_ADV_10BASE_TX_HALF, 1);
 1008094:	01c00044 	movi	r7,1
 1008098:	01800144 	movi	r6,5
 100809c:	01400144 	movi	r5,5
 10080a0:	e13ffb17 	ldw	r4,-20(fp)
 10080a4:	10065b80 	call	10065b8 <alt_tse_phy_rd_mdio_reg>
 10080a8:	1007883a 	mov	r3,r2
 10080ac:	e0bffb17 	ldw	r2,-20(fp)
 10080b0:	10c00485 	stb	r3,18(r2)
    
    tse_dprintf(6, "INFO    : PHY[%d.%d] - Capability of PHY :\n", mac_group_index, mac_info_index);
 10080b4:	e0bffc87 	ldb	r2,-14(fp)
 10080b8:	e0fffcc7 	ldb	r3,-13(fp)
 10080bc:	180d883a 	mov	r6,r3
 10080c0:	100b883a 	mov	r5,r2
 10080c4:	01004074 	movhi	r4,257
 10080c8:	21327204 	addi	r4,r4,-13880
 10080cc:	100460c0 	call	100460c <no_printf>
    tse_dprintf(6, "INFO    : 1000 Base-X Full Duplex = %d\n", pphy->link_capability.cap_1000_base_x_full);
 10080d0:	e0bffb17 	ldw	r2,-20(fp)
 10080d4:	10800043 	ldbu	r2,1(r2)
 10080d8:	10803fcc 	andi	r2,r2,255
 10080dc:	100b883a 	mov	r5,r2
 10080e0:	01004074 	movhi	r4,257
 10080e4:	21327d04 	addi	r4,r4,-13836
 10080e8:	100460c0 	call	100460c <no_printf>
    tse_dprintf(6, "INFO    : 1000 Base-X Half Duplex = %d\n", pphy->link_capability.cap_1000_base_x_half);
 10080ec:	e0bffb17 	ldw	r2,-20(fp)
 10080f0:	10800083 	ldbu	r2,2(r2)
 10080f4:	10803fcc 	andi	r2,r2,255
 10080f8:	100b883a 	mov	r5,r2
 10080fc:	01004074 	movhi	r4,257
 1008100:	21328704 	addi	r4,r4,-13796
 1008104:	100460c0 	call	100460c <no_printf>
    tse_dprintf(6, "INFO    : 1000 Base-T Full Duplex = %d\n", pphy->link_capability.cap_1000_base_t_full);
 1008108:	e0bffb17 	ldw	r2,-20(fp)
 100810c:	108000c3 	ldbu	r2,3(r2)
 1008110:	10803fcc 	andi	r2,r2,255
 1008114:	100b883a 	mov	r5,r2
 1008118:	01004074 	movhi	r4,257
 100811c:	21329104 	addi	r4,r4,-13756
 1008120:	100460c0 	call	100460c <no_printf>
    tse_dprintf(6, "INFO    : 1000 Base-T Half Duplex = %d\n", pphy->link_capability.cap_1000_base_t_half);
 1008124:	e0bffb17 	ldw	r2,-20(fp)
 1008128:	10800103 	ldbu	r2,4(r2)
 100812c:	10803fcc 	andi	r2,r2,255
 1008130:	100b883a 	mov	r5,r2
 1008134:	01004074 	movhi	r4,257
 1008138:	21329b04 	addi	r4,r4,-13716
 100813c:	100460c0 	call	100460c <no_printf>
    tse_dprintf(6, "INFO    : 100 Base-T4             = %d\n", pphy->link_capability.cap_100_base_t4);
 1008140:	e0bffb17 	ldw	r2,-20(fp)
 1008144:	10800143 	ldbu	r2,5(r2)
 1008148:	10803fcc 	andi	r2,r2,255
 100814c:	100b883a 	mov	r5,r2
 1008150:	01004074 	movhi	r4,257
 1008154:	2132a504 	addi	r4,r4,-13676
 1008158:	100460c0 	call	100460c <no_printf>
    tse_dprintf(6, "INFO    : 100 Base-X Full Duplex  = %d\n", pphy->link_capability.cap_100_base_x_full);
 100815c:	e0bffb17 	ldw	r2,-20(fp)
 1008160:	10800183 	ldbu	r2,6(r2)
 1008164:	10803fcc 	andi	r2,r2,255
 1008168:	100b883a 	mov	r5,r2
 100816c:	01004074 	movhi	r4,257
 1008170:	2132af04 	addi	r4,r4,-13636
 1008174:	100460c0 	call	100460c <no_printf>
    tse_dprintf(6, "INFO    : 100 Base-X Half Duplex  = %d\n", pphy->link_capability.cap_100_base_x_half);
 1008178:	e0bffb17 	ldw	r2,-20(fp)
 100817c:	108001c3 	ldbu	r2,7(r2)
 1008180:	10803fcc 	andi	r2,r2,255
 1008184:	100b883a 	mov	r5,r2
 1008188:	01004074 	movhi	r4,257
 100818c:	2132b904 	addi	r4,r4,-13596
 1008190:	100460c0 	call	100460c <no_printf>
    tse_dprintf(6, "INFO    : 100 Base-T2 Full Duplex = %d\n", pphy->link_capability.cap_100_base_t2_full);
 1008194:	e0bffb17 	ldw	r2,-20(fp)
 1008198:	10800203 	ldbu	r2,8(r2)
 100819c:	10803fcc 	andi	r2,r2,255
 10081a0:	100b883a 	mov	r5,r2
 10081a4:	01004074 	movhi	r4,257
 10081a8:	2132c304 	addi	r4,r4,-13556
 10081ac:	100460c0 	call	100460c <no_printf>
    tse_dprintf(6, "INFO    : 100 Base-T2 Half Duplex = %d\n", pphy->link_capability.cap_100_base_t2_half);
 10081b0:	e0bffb17 	ldw	r2,-20(fp)
 10081b4:	10800243 	ldbu	r2,9(r2)
 10081b8:	10803fcc 	andi	r2,r2,255
 10081bc:	100b883a 	mov	r5,r2
 10081c0:	01004074 	movhi	r4,257
 10081c4:	2132cd04 	addi	r4,r4,-13516
 10081c8:	100460c0 	call	100460c <no_printf>
    tse_dprintf(6, "INFO    : 10 Base-T Full Duplex   = %d\n", pphy->link_capability.cap_10_base_t_full);
 10081cc:	e0bffb17 	ldw	r2,-20(fp)
 10081d0:	10800283 	ldbu	r2,10(r2)
 10081d4:	10803fcc 	andi	r2,r2,255
 10081d8:	100b883a 	mov	r5,r2
 10081dc:	01004074 	movhi	r4,257
 10081e0:	2132d704 	addi	r4,r4,-13476
 10081e4:	100460c0 	call	100460c <no_printf>
    tse_dprintf(6, "INFO    : 10 Base-T Half Duplex   = %d\n", pphy->link_capability.cap_10_base_t_half);
 10081e8:	e0bffb17 	ldw	r2,-20(fp)
 10081ec:	108002c3 	ldbu	r2,11(r2)
 10081f0:	10803fcc 	andi	r2,r2,255
 10081f4:	100b883a 	mov	r5,r2
 10081f8:	01004074 	movhi	r4,257
 10081fc:	2132e104 	addi	r4,r4,-13436
 1008200:	100460c0 	call	100460c <no_printf>
    tse_dprintf(6, "\n");
 1008204:	01004074 	movhi	r4,257
 1008208:	21314704 	addi	r4,r4,-15076
 100820c:	100460c0 	call	100460c <no_printf>
    
    tse_dprintf(6, "INFO    : PHY[%d.%d] - Link Partner Capability :\n", mac_group_index, mac_info_index);
 1008210:	e0bffc87 	ldb	r2,-14(fp)
 1008214:	e0fffcc7 	ldb	r3,-13(fp)
 1008218:	180d883a 	mov	r6,r3
 100821c:	100b883a 	mov	r5,r2
 1008220:	01004074 	movhi	r4,257
 1008224:	2132eb04 	addi	r4,r4,-13396
 1008228:	100460c0 	call	100460c <no_printf>
    tse_dprintf(6, "INFO    : 1000 Base-T Full Duplex = %d\n", pphy->link_capability.lp_1000_base_t_full);
 100822c:	e0bffb17 	ldw	r2,-20(fp)
 1008230:	10800303 	ldbu	r2,12(r2)
 1008234:	10803fcc 	andi	r2,r2,255
 1008238:	100b883a 	mov	r5,r2
 100823c:	01004074 	movhi	r4,257
 1008240:	21329104 	addi	r4,r4,-13756
 1008244:	100460c0 	call	100460c <no_printf>
    tse_dprintf(6, "INFO    : 1000 Base-T Half Duplex = %d\n", pphy->link_capability.lp_1000_base_t_half);
 1008248:	e0bffb17 	ldw	r2,-20(fp)
 100824c:	10800343 	ldbu	r2,13(r2)
 1008250:	10803fcc 	andi	r2,r2,255
 1008254:	100b883a 	mov	r5,r2
 1008258:	01004074 	movhi	r4,257
 100825c:	21329b04 	addi	r4,r4,-13716
 1008260:	100460c0 	call	100460c <no_printf>
    tse_dprintf(6, "INFO    : 100 Base-T4             = %d\n", pphy->link_capability.lp_100_base_t4);
 1008264:	e0bffb17 	ldw	r2,-20(fp)
 1008268:	10800383 	ldbu	r2,14(r2)
 100826c:	10803fcc 	andi	r2,r2,255
 1008270:	100b883a 	mov	r5,r2
 1008274:	01004074 	movhi	r4,257
 1008278:	2132a504 	addi	r4,r4,-13676
 100827c:	100460c0 	call	100460c <no_printf>
    tse_dprintf(6, "INFO    : 100 Base-TX Full Duplex = %d\n", pphy->link_capability.lp_100_base_tx_full);
 1008280:	e0bffb17 	ldw	r2,-20(fp)
 1008284:	108003c3 	ldbu	r2,15(r2)
 1008288:	10803fcc 	andi	r2,r2,255
 100828c:	100b883a 	mov	r5,r2
 1008290:	01004074 	movhi	r4,257
 1008294:	2132f804 	addi	r4,r4,-13344
 1008298:	100460c0 	call	100460c <no_printf>
    tse_dprintf(6, "INFO    : 100 Base-TX Half Duplex = %d\n", pphy->link_capability.lp_100_base_tx_half);
 100829c:	e0bffb17 	ldw	r2,-20(fp)
 10082a0:	10800403 	ldbu	r2,16(r2)
 10082a4:	10803fcc 	andi	r2,r2,255
 10082a8:	100b883a 	mov	r5,r2
 10082ac:	01004074 	movhi	r4,257
 10082b0:	21330204 	addi	r4,r4,-13304
 10082b4:	100460c0 	call	100460c <no_printf>
    tse_dprintf(6, "INFO    : 10 Base-TX Full Duplex  = %d\n", pphy->link_capability.lp_10_base_tx_full);
 10082b8:	e0bffb17 	ldw	r2,-20(fp)
 10082bc:	10800443 	ldbu	r2,17(r2)
 10082c0:	10803fcc 	andi	r2,r2,255
 10082c4:	100b883a 	mov	r5,r2
 10082c8:	01004074 	movhi	r4,257
 10082cc:	21330c04 	addi	r4,r4,-13264
 10082d0:	100460c0 	call	100460c <no_printf>
    tse_dprintf(6, "INFO    : 10 Base-TX Half Duplex  = %d\n", pphy->link_capability.lp_10_base_tx_half);
 10082d4:	e0bffb17 	ldw	r2,-20(fp)
 10082d8:	10800483 	ldbu	r2,18(r2)
 10082dc:	10803fcc 	andi	r2,r2,255
 10082e0:	100b883a 	mov	r5,r2
 10082e4:	01004074 	movhi	r4,257
 10082e8:	21331604 	addi	r4,r4,-13224
 10082ec:	100460c0 	call	100460c <no_printf>
    tse_dprintf(6, "\n");
 10082f0:	01004074 	movhi	r4,257
 10082f4:	21314704 	addi	r4,r4,-15076
 10082f8:	100460c0 	call	100460c <no_printf>
    
    /* Restore previous MDIO address */
    alt_tse_phy_wr_mdio_addr(pphy, mdioadd_prev);
 10082fc:	e0bffc43 	ldbu	r2,-15(fp)
 1008300:	100b883a 	mov	r5,r2
 1008304:	e13ffb17 	ldw	r4,-20(fp)
 1008308:	10064340 	call	1006434 <alt_tse_phy_wr_mdio_addr>
    
    return return_value;
 100830c:	e0bfff17 	ldw	r2,-4(fp)
    
}
 1008310:	e037883a 	mov	sp,fp
 1008314:	dfc00117 	ldw	ra,4(sp)
 1008318:	df000017 	ldw	fp,0(sp)
 100831c:	dec00204 	addi	sp,sp,8
 1008320:	f800283a 	ret

01008324 <alt_tse_phy_set_adv_1000>:
 * @param pmac   Pointer to the alt_tse_phy_info structure
 *        enable set Enable = 1 to advertise this speed if the PHY capable
 *               set Enable = 0 to disable advertise of this speed
 * @return       return SUCCESS
 */
alt_32 alt_tse_phy_set_adv_1000(alt_tse_phy_info *pphy, alt_u8 enable) {
 1008324:	defff804 	addi	sp,sp,-32
 1008328:	dfc00715 	stw	ra,28(sp)
 100832c:	df000615 	stw	fp,24(sp)
 1008330:	df000604 	addi	fp,sp,24
 1008334:	e13ffc15 	stw	r4,-16(fp)
 1008338:	2805883a 	mov	r2,r5
 100833c:	e0bffb05 	stb	r2,-20(fp)
    alt_u8 cap;
    
    /* pointer to MAC associated and MAC group */
    alt_tse_mac_info *pmac_info = pphy->pmac_info;
 1008340:	e0bffc17 	ldw	r2,-16(fp)
 1008344:	10800617 	ldw	r2,24(r2)
 1008348:	e0bfff15 	stw	r2,-4(fp)
    alt_tse_mac_group *pmac_group = pmac_info->pmac_group;
 100834c:	e0bfff17 	ldw	r2,-4(fp)
 1008350:	10800317 	ldw	r2,12(r2)
 1008354:	e0bffe15 	stw	r2,-8(fp)
    
    /* get index of the pointers in pointer array list */
    alt_8 mac_info_index = alt_tse_get_mac_info_index(pmac_info);
 1008358:	e13fff17 	ldw	r4,-4(fp)
 100835c:	10056c00 	call	10056c0 <alt_tse_get_mac_info_index>
 1008360:	e0bffdc5 	stb	r2,-9(fp)
    alt_8 mac_group_index = alt_tse_get_mac_group_index(pmac_group);
 1008364:	e13ffe17 	ldw	r4,-8(fp)
 1008368:	10056540 	call	1005654 <alt_tse_get_mac_group_index>
 100836c:	e0bffd85 	stb	r2,-10(fp)
    
    /* Record previous MDIO address, to be restored at the end of function */
    alt_u8 mdioadd_prev = alt_tse_phy_rd_mdio_addr(pphy); 
 1008370:	e13ffc17 	ldw	r4,-16(fp)
 1008374:	10063ec0 	call	10063ec <alt_tse_phy_rd_mdio_addr>
 1008378:	e0bffd45 	stb	r2,-11(fp)
       
    /* write PHY address to MDIO to access the i-th PHY */
    alt_tse_phy_wr_mdio_addr(pphy, pphy->mdio_address);
 100837c:	e0bffc17 	ldw	r2,-16(fp)
 1008380:	10800003 	ldbu	r2,0(r2)
 1008384:	10803fcc 	andi	r2,r2,255
 1008388:	100b883a 	mov	r5,r2
 100838c:	e13ffc17 	ldw	r4,-16(fp)
 1008390:	10064340 	call	1006434 <alt_tse_phy_wr_mdio_addr>
    
    /* if enable = 1, set advertisement based on PHY capability */
    if(enable) {
 1008394:	e0bffb03 	ldbu	r2,-20(fp)
 1008398:	10002d26 	beq	r2,zero,1008450 <alt_tse_phy_set_adv_1000+0x12c>
        cap = alt_tse_phy_rd_mdio_reg(pphy, TSE_PHY_MDIO_EXT_STATUS, TSE_PHY_MDIO_EXT_STATUS_1000BASE_T_FULL, 1); 
 100839c:	01c00044 	movi	r7,1
 10083a0:	01800344 	movi	r6,13
 10083a4:	014003c4 	movi	r5,15
 10083a8:	e13ffc17 	ldw	r4,-16(fp)
 10083ac:	10065b80 	call	10065b8 <alt_tse_phy_rd_mdio_reg>
 10083b0:	e0bffd05 	stb	r2,-12(fp)
        alt_tse_phy_wr_mdio_reg(pphy, TSE_PHY_MDIO_1000BASE_T_CTRL, TSE_PHY_MDIO_1000BASE_T_CTRL_FULL_ADV, 1, cap);
 10083b4:	e0bffd03 	ldbu	r2,-12(fp)
 10083b8:	d8800015 	stw	r2,0(sp)
 10083bc:	01c00044 	movi	r7,1
 10083c0:	01800244 	movi	r6,9
 10083c4:	01400244 	movi	r5,9
 10083c8:	e13ffc17 	ldw	r4,-16(fp)
 10083cc:	100648c0 	call	100648c <alt_tse_phy_wr_mdio_reg>
        tse_dprintf(6, "INFO    : PHY[%d.%d] - Advertisement of 1000 Base-T Full Duplex set to %d\n", mac_group_index, mac_info_index, cap);
 10083d0:	e0bffd87 	ldb	r2,-10(fp)
 10083d4:	e0fffdc7 	ldb	r3,-9(fp)
 10083d8:	e13ffd03 	ldbu	r4,-12(fp)
 10083dc:	200f883a 	mov	r7,r4
 10083e0:	180d883a 	mov	r6,r3
 10083e4:	100b883a 	mov	r5,r2
 10083e8:	01004074 	movhi	r4,257
 10083ec:	21332004 	addi	r4,r4,-13184
 10083f0:	100460c0 	call	100460c <no_printf>
        
        /* 1000 Mbps Half duplex not supported by TSE MAC */
        cap = alt_tse_phy_rd_mdio_reg(pphy, TSE_PHY_MDIO_EXT_STATUS, TSE_PHY_MDIO_EXT_STATUS_1000BASE_T_HALF, 1);
 10083f4:	01c00044 	movi	r7,1
 10083f8:	01800304 	movi	r6,12
 10083fc:	014003c4 	movi	r5,15
 1008400:	e13ffc17 	ldw	r4,-16(fp)
 1008404:	10065b80 	call	10065b8 <alt_tse_phy_rd_mdio_reg>
 1008408:	e0bffd05 	stb	r2,-12(fp)
        alt_tse_phy_wr_mdio_reg(pphy, TSE_PHY_MDIO_1000BASE_T_CTRL, TSE_PHY_MDIO_1000BASE_T_CTRL_HALF_ADV, 1, cap);
 100840c:	e0bffd03 	ldbu	r2,-12(fp)
 1008410:	d8800015 	stw	r2,0(sp)
 1008414:	01c00044 	movi	r7,1
 1008418:	01800204 	movi	r6,8
 100841c:	01400244 	movi	r5,9
 1008420:	e13ffc17 	ldw	r4,-16(fp)
 1008424:	100648c0 	call	100648c <alt_tse_phy_wr_mdio_reg>
        tse_dprintf(6, "INFO    : PHY[%d.%d] - Advertisement of 1000 Base-T Half Duplex set to %d\n", mac_group_index, mac_info_index, cap);
 1008428:	e0bffd87 	ldb	r2,-10(fp)
 100842c:	e0fffdc7 	ldb	r3,-9(fp)
 1008430:	e13ffd03 	ldbu	r4,-12(fp)
 1008434:	200f883a 	mov	r7,r4
 1008438:	180d883a 	mov	r6,r3
 100843c:	100b883a 	mov	r5,r2
 1008440:	01004074 	movhi	r4,257
 1008444:	21333304 	addi	r4,r4,-13108
 1008448:	100460c0 	call	100460c <no_printf>
 100844c:	00001c06 	br	10084c0 <alt_tse_phy_set_adv_1000+0x19c>
    }
    /* else disable advertisement of this speed */
    else {
        alt_tse_phy_wr_mdio_reg(pphy, TSE_PHY_MDIO_1000BASE_T_CTRL, TSE_PHY_MDIO_1000BASE_T_CTRL_FULL_ADV, 1, 0);
 1008450:	d8000015 	stw	zero,0(sp)
 1008454:	01c00044 	movi	r7,1
 1008458:	01800244 	movi	r6,9
 100845c:	01400244 	movi	r5,9
 1008460:	e13ffc17 	ldw	r4,-16(fp)
 1008464:	100648c0 	call	100648c <alt_tse_phy_wr_mdio_reg>
        tse_dprintf(6, "INFO    : PHY[%d.%d] - Advertisement of 1000 Base-T Full Duplex set to %d\n", mac_group_index, mac_info_index, 0);
 1008468:	e0bffd87 	ldb	r2,-10(fp)
 100846c:	e0fffdc7 	ldb	r3,-9(fp)
 1008470:	000f883a 	mov	r7,zero
 1008474:	180d883a 	mov	r6,r3
 1008478:	100b883a 	mov	r5,r2
 100847c:	01004074 	movhi	r4,257
 1008480:	21332004 	addi	r4,r4,-13184
 1008484:	100460c0 	call	100460c <no_printf>
        
        /* 1000 Mbps Half duplex not supported by TSE MAC */
        alt_tse_phy_wr_mdio_reg(pphy, TSE_PHY_MDIO_1000BASE_T_CTRL, TSE_PHY_MDIO_1000BASE_T_CTRL_HALF_ADV, 1, 0);
 1008488:	d8000015 	stw	zero,0(sp)
 100848c:	01c00044 	movi	r7,1
 1008490:	01800204 	movi	r6,8
 1008494:	01400244 	movi	r5,9
 1008498:	e13ffc17 	ldw	r4,-16(fp)
 100849c:	100648c0 	call	100648c <alt_tse_phy_wr_mdio_reg>
        tse_dprintf(6, "INFO    : PHY[%d.%d] - Advertisement 1000 Base-T half Duplex set to %d\n", mac_group_index, mac_info_index, 0);
 10084a0:	e0bffd87 	ldb	r2,-10(fp)
 10084a4:	e0fffdc7 	ldb	r3,-9(fp)
 10084a8:	000f883a 	mov	r7,zero
 10084ac:	180d883a 	mov	r6,r3
 10084b0:	100b883a 	mov	r5,r2
 10084b4:	01004074 	movhi	r4,257
 10084b8:	21334604 	addi	r4,r4,-13032
 10084bc:	100460c0 	call	100460c <no_printf>
    }
    
    /* Restore previous MDIO address */
    alt_tse_phy_wr_mdio_addr(pphy, mdioadd_prev);    
 10084c0:	e0bffd43 	ldbu	r2,-11(fp)
 10084c4:	100b883a 	mov	r5,r2
 10084c8:	e13ffc17 	ldw	r4,-16(fp)
 10084cc:	10064340 	call	1006434 <alt_tse_phy_wr_mdio_addr>

    return SUCCESS;
 10084d0:	0005883a 	mov	r2,zero
}
 10084d4:	e037883a 	mov	sp,fp
 10084d8:	dfc00117 	ldw	ra,4(sp)
 10084dc:	df000017 	ldw	fp,0(sp)
 10084e0:	dec00204 	addi	sp,sp,8
 10084e4:	f800283a 	ret

010084e8 <alt_tse_phy_set_adv_100>:
 * @param pmac   Pointer to the alt_tse_phy_info structure
 *        enable set Enable = 1 to advertise this speed if the PHY capable
 *               set Enable = 0 to disable advertise of this speed
 * @return       return SUCCESS
 */
alt_32 alt_tse_phy_set_adv_100(alt_tse_phy_info *pphy, alt_u8 enable) {
 10084e8:	defff804 	addi	sp,sp,-32
 10084ec:	dfc00715 	stw	ra,28(sp)
 10084f0:	df000615 	stw	fp,24(sp)
 10084f4:	df000604 	addi	fp,sp,24
 10084f8:	e13ffc15 	stw	r4,-16(fp)
 10084fc:	2805883a 	mov	r2,r5
 1008500:	e0bffb05 	stb	r2,-20(fp)
    alt_u8 cap;
    
    /* pointer to MAC associated and MAC group */
    alt_tse_mac_info *pmac_info = pphy->pmac_info;
 1008504:	e0bffc17 	ldw	r2,-16(fp)
 1008508:	10800617 	ldw	r2,24(r2)
 100850c:	e0bfff15 	stw	r2,-4(fp)
    alt_tse_mac_group *pmac_group = pmac_info->pmac_group;
 1008510:	e0bfff17 	ldw	r2,-4(fp)
 1008514:	10800317 	ldw	r2,12(r2)
 1008518:	e0bffe15 	stw	r2,-8(fp)
    
    /* get index of the pointers in pointer array list */
    alt_8 mac_info_index = alt_tse_get_mac_info_index(pmac_info);
 100851c:	e13fff17 	ldw	r4,-4(fp)
 1008520:	10056c00 	call	10056c0 <alt_tse_get_mac_info_index>
 1008524:	e0bffdc5 	stb	r2,-9(fp)
    alt_8 mac_group_index = alt_tse_get_mac_group_index(pmac_group);
 1008528:	e13ffe17 	ldw	r4,-8(fp)
 100852c:	10056540 	call	1005654 <alt_tse_get_mac_group_index>
 1008530:	e0bffd85 	stb	r2,-10(fp)
    
    /* Record previous MDIO address, to be restored at the end of function */
    alt_u8 mdioadd_prev = alt_tse_phy_rd_mdio_addr(pphy); 
 1008534:	e13ffc17 	ldw	r4,-16(fp)
 1008538:	10063ec0 	call	10063ec <alt_tse_phy_rd_mdio_addr>
 100853c:	e0bffd45 	stb	r2,-11(fp)
       
    /* write PHY address to MDIO to access the i-th PHY */
    alt_tse_phy_wr_mdio_addr(pphy, pphy->mdio_address);
 1008540:	e0bffc17 	ldw	r2,-16(fp)
 1008544:	10800003 	ldbu	r2,0(r2)
 1008548:	10803fcc 	andi	r2,r2,255
 100854c:	100b883a 	mov	r5,r2
 1008550:	e13ffc17 	ldw	r4,-16(fp)
 1008554:	10064340 	call	1006434 <alt_tse_phy_wr_mdio_addr>
    
    /* if enable = 1, set advertisement based on PHY capability */
    if(enable) {
 1008558:	e0bffb03 	ldbu	r2,-20(fp)
 100855c:	10004326 	beq	r2,zero,100866c <alt_tse_phy_set_adv_100+0x184>
        cap = alt_tse_phy_rd_mdio_reg(pphy, TSE_PHY_MDIO_STATUS, TSE_PHY_MDIO_STATUS_100BASE_T4, 1);
 1008560:	01c00044 	movi	r7,1
 1008564:	018003c4 	movi	r6,15
 1008568:	01400044 	movi	r5,1
 100856c:	e13ffc17 	ldw	r4,-16(fp)
 1008570:	10065b80 	call	10065b8 <alt_tse_phy_rd_mdio_reg>
 1008574:	e0bffd05 	stb	r2,-12(fp)
        alt_tse_phy_wr_mdio_reg(pphy, TSE_PHY_MDIO_ADV, TSE_PHY_MDIO_ADV_100BASE_T4, 1, cap);
 1008578:	e0bffd03 	ldbu	r2,-12(fp)
 100857c:	d8800015 	stw	r2,0(sp)
 1008580:	01c00044 	movi	r7,1
 1008584:	01800244 	movi	r6,9
 1008588:	01400104 	movi	r5,4
 100858c:	e13ffc17 	ldw	r4,-16(fp)
 1008590:	100648c0 	call	100648c <alt_tse_phy_wr_mdio_reg>
        tse_dprintf(6, "INFO    : PHY[%d.%d] - Advertisement of 100 Base-T4 set to %d\n", mac_group_index, mac_info_index, cap);
 1008594:	e0bffd87 	ldb	r2,-10(fp)
 1008598:	e0fffdc7 	ldb	r3,-9(fp)
 100859c:	e13ffd03 	ldbu	r4,-12(fp)
 10085a0:	200f883a 	mov	r7,r4
 10085a4:	180d883a 	mov	r6,r3
 10085a8:	100b883a 	mov	r5,r2
 10085ac:	01004074 	movhi	r4,257
 10085b0:	21335804 	addi	r4,r4,-12960
 10085b4:	100460c0 	call	100460c <no_printf>
        
        cap = alt_tse_phy_rd_mdio_reg(pphy, TSE_PHY_MDIO_STATUS, TSE_PHY_MDIO_STATUS_100BASE_X_FULL, 1);
 10085b8:	01c00044 	movi	r7,1
 10085bc:	01800384 	movi	r6,14
 10085c0:	01400044 	movi	r5,1
 10085c4:	e13ffc17 	ldw	r4,-16(fp)
 10085c8:	10065b80 	call	10065b8 <alt_tse_phy_rd_mdio_reg>
 10085cc:	e0bffd05 	stb	r2,-12(fp)
        alt_tse_phy_wr_mdio_reg(pphy, TSE_PHY_MDIO_ADV, TSE_PHY_MDIO_ADV_100BASE_TX_FULL, 1, cap);
 10085d0:	e0bffd03 	ldbu	r2,-12(fp)
 10085d4:	d8800015 	stw	r2,0(sp)
 10085d8:	01c00044 	movi	r7,1
 10085dc:	01800204 	movi	r6,8
 10085e0:	01400104 	movi	r5,4
 10085e4:	e13ffc17 	ldw	r4,-16(fp)
 10085e8:	100648c0 	call	100648c <alt_tse_phy_wr_mdio_reg>
        tse_dprintf(6, "INFO    : PHY[%d.%d] - Advertisement of 100 Base-TX Full Duplex set to %d\n", mac_group_index, mac_info_index, cap);
 10085ec:	e0bffd87 	ldb	r2,-10(fp)
 10085f0:	e0fffdc7 	ldb	r3,-9(fp)
 10085f4:	e13ffd03 	ldbu	r4,-12(fp)
 10085f8:	200f883a 	mov	r7,r4
 10085fc:	180d883a 	mov	r6,r3
 1008600:	100b883a 	mov	r5,r2
 1008604:	01004074 	movhi	r4,257
 1008608:	21336804 	addi	r4,r4,-12896
 100860c:	100460c0 	call	100460c <no_printf>
        
        cap = alt_tse_phy_rd_mdio_reg(pphy, TSE_PHY_MDIO_STATUS, TSE_PHY_MDIO_STATUS_100BASE_X_HALF, 1);
 1008610:	01c00044 	movi	r7,1
 1008614:	01800344 	movi	r6,13
 1008618:	01400044 	movi	r5,1
 100861c:	e13ffc17 	ldw	r4,-16(fp)
 1008620:	10065b80 	call	10065b8 <alt_tse_phy_rd_mdio_reg>
 1008624:	e0bffd05 	stb	r2,-12(fp)
        alt_tse_phy_wr_mdio_reg(pphy, TSE_PHY_MDIO_ADV, TSE_PHY_MDIO_ADV_100BASE_TX_HALF, 1, cap);
 1008628:	e0bffd03 	ldbu	r2,-12(fp)
 100862c:	d8800015 	stw	r2,0(sp)
 1008630:	01c00044 	movi	r7,1
 1008634:	018001c4 	movi	r6,7
 1008638:	01400104 	movi	r5,4
 100863c:	e13ffc17 	ldw	r4,-16(fp)
 1008640:	100648c0 	call	100648c <alt_tse_phy_wr_mdio_reg>
        tse_dprintf(6, "INFO    : PHY[%d.%d] - Advertisement of 100 Base-TX Half Duplex set to %d\n", mac_group_index, mac_info_index, cap);
 1008644:	e0bffd87 	ldb	r2,-10(fp)
 1008648:	e0fffdc7 	ldb	r3,-9(fp)
 100864c:	e13ffd03 	ldbu	r4,-12(fp)
 1008650:	200f883a 	mov	r7,r4
 1008654:	180d883a 	mov	r6,r3
 1008658:	100b883a 	mov	r5,r2
 100865c:	01004074 	movhi	r4,257
 1008660:	21337b04 	addi	r4,r4,-12820
 1008664:	100460c0 	call	100460c <no_printf>
 1008668:	00002a06 	br	1008714 <alt_tse_phy_set_adv_100+0x22c>
    }
    /* else disable advertisement of this speed */
    else {
        alt_tse_phy_wr_mdio_reg(pphy, TSE_PHY_MDIO_ADV, TSE_PHY_MDIO_ADV_100BASE_T4, 1, 0);
 100866c:	d8000015 	stw	zero,0(sp)
 1008670:	01c00044 	movi	r7,1
 1008674:	01800244 	movi	r6,9
 1008678:	01400104 	movi	r5,4
 100867c:	e13ffc17 	ldw	r4,-16(fp)
 1008680:	100648c0 	call	100648c <alt_tse_phy_wr_mdio_reg>
        tse_dprintf(6, "INFO    : PHY[%d.%d] - Advertisement of 100 Base-T4 set to %d\n", mac_group_index, mac_info_index, 0);
 1008684:	e0bffd87 	ldb	r2,-10(fp)
 1008688:	e0fffdc7 	ldb	r3,-9(fp)
 100868c:	000f883a 	mov	r7,zero
 1008690:	180d883a 	mov	r6,r3
 1008694:	100b883a 	mov	r5,r2
 1008698:	01004074 	movhi	r4,257
 100869c:	21335804 	addi	r4,r4,-12960
 10086a0:	100460c0 	call	100460c <no_printf>
        
        alt_tse_phy_wr_mdio_reg(pphy, TSE_PHY_MDIO_ADV, TSE_PHY_MDIO_ADV_100BASE_TX_FULL, 1, 0);
 10086a4:	d8000015 	stw	zero,0(sp)
 10086a8:	01c00044 	movi	r7,1
 10086ac:	01800204 	movi	r6,8
 10086b0:	01400104 	movi	r5,4
 10086b4:	e13ffc17 	ldw	r4,-16(fp)
 10086b8:	100648c0 	call	100648c <alt_tse_phy_wr_mdio_reg>
        tse_dprintf(6, "INFO    : PHY[%d.%d] - Advertisement of 100 Base-TX Full Duplex set to %d\n", mac_group_index, mac_info_index, 0);
 10086bc:	e0bffd87 	ldb	r2,-10(fp)
 10086c0:	e0fffdc7 	ldb	r3,-9(fp)
 10086c4:	000f883a 	mov	r7,zero
 10086c8:	180d883a 	mov	r6,r3
 10086cc:	100b883a 	mov	r5,r2
 10086d0:	01004074 	movhi	r4,257
 10086d4:	21336804 	addi	r4,r4,-12896
 10086d8:	100460c0 	call	100460c <no_printf>
        
        alt_tse_phy_wr_mdio_reg(pphy, TSE_PHY_MDIO_ADV, TSE_PHY_MDIO_ADV_100BASE_TX_HALF, 1, 0);
 10086dc:	d8000015 	stw	zero,0(sp)
 10086e0:	01c00044 	movi	r7,1
 10086e4:	018001c4 	movi	r6,7
 10086e8:	01400104 	movi	r5,4
 10086ec:	e13ffc17 	ldw	r4,-16(fp)
 10086f0:	100648c0 	call	100648c <alt_tse_phy_wr_mdio_reg>
        tse_dprintf(6, "INFO    : PHY[%d.%d] - Advertisement of 100 Base-TX Half Duplex set to %d\n", mac_group_index, mac_info_index, 0);
 10086f4:	e0bffd87 	ldb	r2,-10(fp)
 10086f8:	e0fffdc7 	ldb	r3,-9(fp)
 10086fc:	000f883a 	mov	r7,zero
 1008700:	180d883a 	mov	r6,r3
 1008704:	100b883a 	mov	r5,r2
 1008708:	01004074 	movhi	r4,257
 100870c:	21337b04 	addi	r4,r4,-12820
 1008710:	100460c0 	call	100460c <no_printf>
    }
    
    /* Restore previous MDIO address */
    alt_tse_phy_wr_mdio_addr(pphy, mdioadd_prev);  
 1008714:	e0bffd43 	ldbu	r2,-11(fp)
 1008718:	100b883a 	mov	r5,r2
 100871c:	e13ffc17 	ldw	r4,-16(fp)
 1008720:	10064340 	call	1006434 <alt_tse_phy_wr_mdio_addr>
    
    return SUCCESS;
 1008724:	0005883a 	mov	r2,zero
}
 1008728:	e037883a 	mov	sp,fp
 100872c:	dfc00117 	ldw	ra,4(sp)
 1008730:	df000017 	ldw	fp,0(sp)
 1008734:	dec00204 	addi	sp,sp,8
 1008738:	f800283a 	ret

0100873c <alt_tse_phy_set_adv_10>:
 * @param pmac   Pointer to the alt_tse_phy_info structure
 *        enable set Enable = 1 to advertise this speed if the PHY capable
 *               set Enable = 0 to disable advertise of this speed
 * @return       return SUCCESS
 */
alt_32 alt_tse_phy_set_adv_10(alt_tse_phy_info *pphy, alt_u8 enable) {
 100873c:	defff504 	addi	sp,sp,-44
 1008740:	dfc00a15 	stw	ra,40(sp)
 1008744:	df000915 	stw	fp,36(sp)
 1008748:	df000904 	addi	fp,sp,36
 100874c:	e13ff915 	stw	r4,-28(fp)
 1008750:	2805883a 	mov	r2,r5
 1008754:	e0bff805 	stb	r2,-32(fp)
    alt_u8 cap;
    
    /* pointer to MAC associated and MAC group */
    alt_tse_mac_info *pmac_info = pphy->pmac_info;
 1008758:	e0bff917 	ldw	r2,-28(fp)
 100875c:	10800617 	ldw	r2,24(r2)
 1008760:	e0bfff15 	stw	r2,-4(fp)
    alt_tse_mac_group *pmac_group = pmac_info->pmac_group;
 1008764:	e0bfff17 	ldw	r2,-4(fp)
 1008768:	10800317 	ldw	r2,12(r2)
 100876c:	e0bffe15 	stw	r2,-8(fp)
    
    /* get index of the pointers in pointer array list */
    int mac_info_index = alt_tse_get_mac_info_index(pmac_info);
 1008770:	e13fff17 	ldw	r4,-4(fp)
 1008774:	10056c00 	call	10056c0 <alt_tse_get_mac_info_index>
 1008778:	e0bffd15 	stw	r2,-12(fp)
    int mac_group_index = alt_tse_get_mac_group_index(pmac_group);
 100877c:	e13ffe17 	ldw	r4,-8(fp)
 1008780:	10056540 	call	1005654 <alt_tse_get_mac_group_index>
 1008784:	e0bffc15 	stw	r2,-16(fp)
    
    /* Record previous MDIO address, to be restored at the end of function */
    int mdioadd_prev = alt_tse_phy_rd_mdio_addr(pphy); 
 1008788:	e13ff917 	ldw	r4,-28(fp)
 100878c:	10063ec0 	call	10063ec <alt_tse_phy_rd_mdio_addr>
 1008790:	e0bffb15 	stw	r2,-20(fp)
       
    /* write PHY address to MDIO to access the i-th PHY */
    alt_tse_phy_wr_mdio_addr(pphy, pphy->mdio_address);
 1008794:	e0bff917 	ldw	r2,-28(fp)
 1008798:	10800003 	ldbu	r2,0(r2)
 100879c:	10803fcc 	andi	r2,r2,255
 10087a0:	100b883a 	mov	r5,r2
 10087a4:	e13ff917 	ldw	r4,-28(fp)
 10087a8:	10064340 	call	1006434 <alt_tse_phy_wr_mdio_addr>
    
    /* if enable = 1, set advertisement based on PHY capability */
    if(enable) {
 10087ac:	e0bff803 	ldbu	r2,-32(fp)
 10087b0:	10002926 	beq	r2,zero,1008858 <alt_tse_phy_set_adv_10+0x11c>
        cap = alt_tse_phy_rd_mdio_reg(pphy, TSE_PHY_MDIO_STATUS, TSE_PHY_MDIO_STATUS_10BASE_T_FULL, 1);
 10087b4:	01c00044 	movi	r7,1
 10087b8:	01800304 	movi	r6,12
 10087bc:	01400044 	movi	r5,1
 10087c0:	e13ff917 	ldw	r4,-28(fp)
 10087c4:	10065b80 	call	10065b8 <alt_tse_phy_rd_mdio_reg>
 10087c8:	e0bffac5 	stb	r2,-21(fp)
        alt_tse_phy_wr_mdio_reg(pphy, TSE_PHY_MDIO_ADV, TSE_PHY_MDIO_ADV_10BASE_TX_FULL, 1, cap);
 10087cc:	e0bffac3 	ldbu	r2,-21(fp)
 10087d0:	d8800015 	stw	r2,0(sp)
 10087d4:	01c00044 	movi	r7,1
 10087d8:	01800184 	movi	r6,6
 10087dc:	01400104 	movi	r5,4
 10087e0:	e13ff917 	ldw	r4,-28(fp)
 10087e4:	100648c0 	call	100648c <alt_tse_phy_wr_mdio_reg>
        tse_dprintf(6, "INFO    : PHY[%d.%d] - Advertisement of 10 Base-TX Full Duplex set to %d\n", mac_group_index, mac_info_index, cap);
 10087e8:	e0bffac3 	ldbu	r2,-21(fp)
 10087ec:	100f883a 	mov	r7,r2
 10087f0:	e1bffd17 	ldw	r6,-12(fp)
 10087f4:	e17ffc17 	ldw	r5,-16(fp)
 10087f8:	01004074 	movhi	r4,257
 10087fc:	21338e04 	addi	r4,r4,-12744
 1008800:	100460c0 	call	100460c <no_printf>
    
        cap = alt_tse_phy_rd_mdio_reg(pphy, TSE_PHY_MDIO_STATUS, TSE_PHY_MDIO_STATUS_10BASE_T_HALF, 1);
 1008804:	01c00044 	movi	r7,1
 1008808:	018002c4 	movi	r6,11
 100880c:	01400044 	movi	r5,1
 1008810:	e13ff917 	ldw	r4,-28(fp)
 1008814:	10065b80 	call	10065b8 <alt_tse_phy_rd_mdio_reg>
 1008818:	e0bffac5 	stb	r2,-21(fp)
        alt_tse_phy_wr_mdio_reg(pphy, TSE_PHY_MDIO_ADV, TSE_PHY_MDIO_ADV_10BASE_TX_HALF, 1, cap);
 100881c:	e0bffac3 	ldbu	r2,-21(fp)
 1008820:	d8800015 	stw	r2,0(sp)
 1008824:	01c00044 	movi	r7,1
 1008828:	01800144 	movi	r6,5
 100882c:	01400104 	movi	r5,4
 1008830:	e13ff917 	ldw	r4,-28(fp)
 1008834:	100648c0 	call	100648c <alt_tse_phy_wr_mdio_reg>
        tse_dprintf(6, "INFO    : PHY[%d.%d] - Advertisement of 10 Base-TX Half Duplex set to %d\n", mac_group_index, mac_info_index, cap);
 1008838:	e0bffac3 	ldbu	r2,-21(fp)
 100883c:	100f883a 	mov	r7,r2
 1008840:	e1bffd17 	ldw	r6,-12(fp)
 1008844:	e17ffc17 	ldw	r5,-16(fp)
 1008848:	01004074 	movhi	r4,257
 100884c:	2133a104 	addi	r4,r4,-12668
 1008850:	100460c0 	call	100460c <no_printf>
 1008854:	00001806 	br	10088b8 <alt_tse_phy_set_adv_10+0x17c>
    }
    /* else disable advertisement of this speed */
    else {
        alt_tse_phy_wr_mdio_reg(pphy, TSE_PHY_MDIO_ADV, TSE_PHY_MDIO_ADV_10BASE_TX_FULL, 1, 0);
 1008858:	d8000015 	stw	zero,0(sp)
 100885c:	01c00044 	movi	r7,1
 1008860:	01800184 	movi	r6,6
 1008864:	01400104 	movi	r5,4
 1008868:	e13ff917 	ldw	r4,-28(fp)
 100886c:	100648c0 	call	100648c <alt_tse_phy_wr_mdio_reg>
        tse_dprintf(6, "INFO    : PHY[%d.%d] - Advertisement of 10 Base-TX Full Duplex set to %d\n", mac_group_index, mac_info_index, 0);
 1008870:	000f883a 	mov	r7,zero
 1008874:	e1bffd17 	ldw	r6,-12(fp)
 1008878:	e17ffc17 	ldw	r5,-16(fp)
 100887c:	01004074 	movhi	r4,257
 1008880:	21338e04 	addi	r4,r4,-12744
 1008884:	100460c0 	call	100460c <no_printf>
    
        alt_tse_phy_wr_mdio_reg(pphy, TSE_PHY_MDIO_ADV, TSE_PHY_MDIO_ADV_10BASE_TX_HALF, 1, 0);
 1008888:	d8000015 	stw	zero,0(sp)
 100888c:	01c00044 	movi	r7,1
 1008890:	01800144 	movi	r6,5
 1008894:	01400104 	movi	r5,4
 1008898:	e13ff917 	ldw	r4,-28(fp)
 100889c:	100648c0 	call	100648c <alt_tse_phy_wr_mdio_reg>
        tse_dprintf(6, "INFO    : PHY[%d.%d] - Advertisement of 10 Base-TX Half Duplex set to %d\n", mac_group_index, mac_info_index, 0);
 10088a0:	000f883a 	mov	r7,zero
 10088a4:	e1bffd17 	ldw	r6,-12(fp)
 10088a8:	e17ffc17 	ldw	r5,-16(fp)
 10088ac:	01004074 	movhi	r4,257
 10088b0:	2133a104 	addi	r4,r4,-12668
 10088b4:	100460c0 	call	100460c <no_printf>
    }
    
    /* Restore previous MDIO address */
    alt_tse_phy_wr_mdio_addr(pphy, mdioadd_prev);
 10088b8:	e0bffb17 	ldw	r2,-20(fp)
 10088bc:	10803fcc 	andi	r2,r2,255
 10088c0:	100b883a 	mov	r5,r2
 10088c4:	e13ff917 	ldw	r4,-28(fp)
 10088c8:	10064340 	call	1006434 <alt_tse_phy_wr_mdio_addr>
    
    return SUCCESS;
 10088cc:	0005883a 	mov	r2,zero
}
 10088d0:	e037883a 	mov	sp,fp
 10088d4:	dfc00117 	ldw	ra,4(sp)
 10088d8:	df000017 	ldw	fp,0(sp)
 10088dc:	dec00204 	addi	sp,sp,8
 10088e0:	f800283a 	ret

010088e4 <alt_tse_phy_get_common_speed>:
/* @Function Description: Get the common speed supported by all PHYs connected to the MAC within the same group
 * @API Type:           Internal
 * @param pmac_group    Pointer to the TSE MAC Group structure which group all the MACs that should use the same speed
 * @return              common speed supported by all PHYs connected to the MAC, return TSE_PHY_SPEED_NO_COMMON if no common speed found
 */
alt_32 alt_tse_phy_get_common_speed(alt_tse_mac_group *pmac_group) {
 10088e4:	defff604 	addi	sp,sp,-40
 10088e8:	dfc00915 	stw	ra,36(sp)
 10088ec:	df000815 	stw	fp,32(sp)
 10088f0:	df000804 	addi	fp,sp,32
 10088f4:	e13ff815 	stw	r4,-32(fp)
    
    alt_32 i;
    alt_u8 common_1000 = 1;
 10088f8:	00800044 	movi	r2,1
 10088fc:	e0bffec5 	stb	r2,-5(fp)
    alt_u8 common_100 = 1;
 1008900:	00800044 	movi	r2,1
 1008904:	e0bffe85 	stb	r2,-6(fp)
    alt_u8 common_10 = 1;
 1008908:	00800044 	movi	r2,1
 100890c:	e0bffe45 	stb	r2,-7(fp)
    
    alt_32 common_speed;
    
    alt_u8 none_an_complete = 1;
 1008910:	00800044 	movi	r2,1
 1008914:	e0bffcc5 	stb	r2,-13(fp)
    
    alt_tse_mac_info *pmac_info = 0;
 1008918:	e03ffb15 	stw	zero,-20(fp)
    alt_tse_phy_info *pphy = 0;
 100891c:	e03ffa15 	stw	zero,-24(fp)
    
    alt_8 mac_group_index = alt_tse_get_mac_group_index(pmac_group);
 1008920:	e13ff817 	ldw	r4,-32(fp)
 1008924:	10056540 	call	1005654 <alt_tse_get_mac_group_index>
 1008928:	e0bff9c5 	stb	r2,-25(fp)
    
    /* reset Auto-Negotiation advertisement */
    for(i = 0; i < pmac_group->channel; i++) {
 100892c:	e03fff15 	stw	zero,-4(fp)
 1008930:	00001b06 	br	10089a0 <alt_tse_phy_get_common_speed+0xbc>
        pmac_info = pmac_group->pmac_info[i];
 1008934:	e0fff817 	ldw	r3,-32(fp)
 1008938:	e0bfff17 	ldw	r2,-4(fp)
 100893c:	10800044 	addi	r2,r2,1
 1008940:	100490ba 	slli	r2,r2,2
 1008944:	1885883a 	add	r2,r3,r2
 1008948:	10800017 	ldw	r2,0(r2)
 100894c:	e0bffb15 	stw	r2,-20(fp)
        pphy = pmac_info->pphy_info;
 1008950:	e0bffb17 	ldw	r2,-20(fp)
 1008954:	10800117 	ldw	r2,4(r2)
 1008958:	e0bffa15 	stw	r2,-24(fp)
        
        /* run only if PHY connected */
        if(pphy) {
 100895c:	e0bffa17 	ldw	r2,-24(fp)
 1008960:	10000926 	beq	r2,zero,1008988 <alt_tse_phy_get_common_speed+0xa4>
            alt_tse_phy_set_adv_1000(pphy, 1);
 1008964:	01400044 	movi	r5,1
 1008968:	e13ffa17 	ldw	r4,-24(fp)
 100896c:	10083240 	call	1008324 <alt_tse_phy_set_adv_1000>
            alt_tse_phy_set_adv_100(pphy, 1);
 1008970:	01400044 	movi	r5,1
 1008974:	e13ffa17 	ldw	r4,-24(fp)
 1008978:	10084e80 	call	10084e8 <alt_tse_phy_set_adv_100>
            alt_tse_phy_set_adv_10(pphy, 1);
 100897c:	01400044 	movi	r5,1
 1008980:	e13ffa17 	ldw	r4,-24(fp)
 1008984:	100873c0 	call	100873c <alt_tse_phy_set_adv_10>
        }
        tse_dprintf(6, "\n");
 1008988:	01004074 	movhi	r4,257
 100898c:	21314704 	addi	r4,r4,-15076
 1008990:	100460c0 	call	100460c <no_printf>
    for(i = 0; i < pmac_group->channel; i++) {
 1008994:	e0bfff17 	ldw	r2,-4(fp)
 1008998:	10800044 	addi	r2,r2,1
 100899c:	e0bfff15 	stw	r2,-4(fp)
 10089a0:	e0bff817 	ldw	r2,-32(fp)
 10089a4:	10800003 	ldbu	r2,0(r2)
 10089a8:	10803fcc 	andi	r2,r2,255
 10089ac:	e0ffff17 	ldw	r3,-4(fp)
 10089b0:	18bfe016 	blt	r3,r2,1008934 <alt_tse_phy_get_common_speed+0x50>
    }
    
    /* loop through every PHY connected */
    for(i = 0; i < pmac_group->channel; i++) {
 10089b4:	e03fff15 	stw	zero,-4(fp)
 10089b8:	00005506 	br	1008b10 <alt_tse_phy_get_common_speed+0x22c>

        pmac_info = pmac_group->pmac_info[i];
 10089bc:	e0fff817 	ldw	r3,-32(fp)
 10089c0:	e0bfff17 	ldw	r2,-4(fp)
 10089c4:	10800044 	addi	r2,r2,1
 10089c8:	100490ba 	slli	r2,r2,2
 10089cc:	1885883a 	add	r2,r3,r2
 10089d0:	10800017 	ldw	r2,0(r2)
 10089d4:	e0bffb15 	stw	r2,-20(fp)
        pphy = pmac_info->pphy_info;
 10089d8:	e0bffb17 	ldw	r2,-20(fp)
 10089dc:	10800117 	ldw	r2,4(r2)
 10089e0:	e0bffa15 	stw	r2,-24(fp)
        
        /* if no PHY connected */
        if(!pphy) {
 10089e4:	e0bffa17 	ldw	r2,-24(fp)
 10089e8:	10004326 	beq	r2,zero,1008af8 <alt_tse_phy_get_common_speed+0x214>
            continue;
        }
        
        /* get PHY capability */
        /* skip for PHY with Auto-Negotiation not completed */
        if(alt_tse_phy_get_cap(pphy) != TSE_PHY_AN_COMPLETE) {
 10089ec:	e13ffa17 	ldw	r4,-24(fp)
 10089f0:	1007d900 	call	1007d90 <alt_tse_phy_get_cap>
 10089f4:	1000421e 	bne	r2,zero,1008b00 <alt_tse_phy_get_common_speed+0x21c>
            continue;
        }
        
        none_an_complete = 0;
 10089f8:	e03ffcc5 	stb	zero,-13(fp)
        
        /* Small MAC */
        if(pmac_info->mac_type == ALTERA_TSE_MACLITE_10_100) {
 10089fc:	e0bffb17 	ldw	r2,-20(fp)
 1008a00:	10800003 	ldbu	r2,0(r2)
 1008a04:	10803fcc 	andi	r2,r2,255
 1008a08:	10800058 	cmpnei	r2,r2,1
 1008a0c:	1000021e 	bne	r2,zero,1008a18 <alt_tse_phy_get_common_speed+0x134>
            common_1000 = 0;
 1008a10:	e03ffec5 	stb	zero,-5(fp)
 1008a14:	00000706 	br	1008a34 <alt_tse_phy_get_common_speed+0x150>
        }
        else if(pmac_info->mac_type == ALTERA_TSE_MACLITE_1000) {
 1008a18:	e0bffb17 	ldw	r2,-20(fp)
 1008a1c:	10800003 	ldbu	r2,0(r2)
 1008a20:	10803fcc 	andi	r2,r2,255
 1008a24:	10800098 	cmpnei	r2,r2,2
 1008a28:	1000021e 	bne	r2,zero,1008a34 <alt_tse_phy_get_common_speed+0x150>
            common_100 = 0;
 1008a2c:	e03ffe85 	stb	zero,-6(fp)
            common_10 = 0;            
 1008a30:	e03ffe45 	stb	zero,-7(fp)
        }
        
        /* get common capabilities for all PHYs and link partners */
        common_1000 &= ((pphy->link_capability.cap_1000_base_t_full & pphy->link_capability.lp_1000_base_t_full));
 1008a34:	e0bffa17 	ldw	r2,-24(fp)
 1008a38:	10c000c3 	ldbu	r3,3(r2)
 1008a3c:	e0bffa17 	ldw	r2,-24(fp)
 1008a40:	10800303 	ldbu	r2,12(r2)
 1008a44:	1884703a 	and	r2,r3,r2
 1008a48:	1007883a 	mov	r3,r2
 1008a4c:	e0bffec3 	ldbu	r2,-5(fp)
 1008a50:	10c4703a 	and	r2,r2,r3
 1008a54:	e0bffec5 	stb	r2,-5(fp)
                        //(pphy->link_capability.cap_1000_base_t_half & pphy->link_capability.lp_1000_base_t_half));
        common_100 &= ((pphy->link_capability.cap_100_base_x_full & pphy->link_capability.lp_100_base_tx_full) |
 1008a58:	e0bffa17 	ldw	r2,-24(fp)
 1008a5c:	10c00183 	ldbu	r3,6(r2)
 1008a60:	e0bffa17 	ldw	r2,-24(fp)
 1008a64:	108003c3 	ldbu	r2,15(r2)
 1008a68:	1884703a 	and	r2,r3,r2
 1008a6c:	1009883a 	mov	r4,r2
                        (pphy->link_capability.cap_100_base_x_half & pphy->link_capability.lp_100_base_tx_half) |
 1008a70:	e0bffa17 	ldw	r2,-24(fp)
 1008a74:	10c001c3 	ldbu	r3,7(r2)
 1008a78:	e0bffa17 	ldw	r2,-24(fp)
 1008a7c:	10800403 	ldbu	r2,16(r2)
        common_100 &= ((pphy->link_capability.cap_100_base_x_full & pphy->link_capability.lp_100_base_tx_full) |
 1008a80:	1884703a 	and	r2,r3,r2
 1008a84:	2084b03a 	or	r2,r4,r2
 1008a88:	1009883a 	mov	r4,r2
                        (pphy->link_capability.cap_100_base_t4 & pphy->link_capability.lp_100_base_t4));
 1008a8c:	e0bffa17 	ldw	r2,-24(fp)
 1008a90:	10c00143 	ldbu	r3,5(r2)
 1008a94:	e0bffa17 	ldw	r2,-24(fp)
 1008a98:	10800383 	ldbu	r2,14(r2)
        common_100 &= ((pphy->link_capability.cap_100_base_x_full & pphy->link_capability.lp_100_base_tx_full) |
 1008a9c:	1884703a 	and	r2,r3,r2
 1008aa0:	2084b03a 	or	r2,r4,r2
 1008aa4:	1007883a 	mov	r3,r2
 1008aa8:	e0bffe83 	ldbu	r2,-6(fp)
 1008aac:	10c4703a 	and	r2,r2,r3
 1008ab0:	e0bffe85 	stb	r2,-6(fp)
        common_10 &= ((pphy->link_capability.cap_10_base_t_full & pphy->link_capability.lp_10_base_tx_full) |
 1008ab4:	e0bffa17 	ldw	r2,-24(fp)
 1008ab8:	10c00283 	ldbu	r3,10(r2)
 1008abc:	e0bffa17 	ldw	r2,-24(fp)
 1008ac0:	10800443 	ldbu	r2,17(r2)
 1008ac4:	1884703a 	and	r2,r3,r2
 1008ac8:	1009883a 	mov	r4,r2
                        (pphy->link_capability.cap_10_base_t_half & pphy->link_capability.lp_10_base_tx_half));
 1008acc:	e0bffa17 	ldw	r2,-24(fp)
 1008ad0:	10c002c3 	ldbu	r3,11(r2)
 1008ad4:	e0bffa17 	ldw	r2,-24(fp)
 1008ad8:	10800483 	ldbu	r2,18(r2)
        common_10 &= ((pphy->link_capability.cap_10_base_t_full & pphy->link_capability.lp_10_base_tx_full) |
 1008adc:	1884703a 	and	r2,r3,r2
 1008ae0:	2084b03a 	or	r2,r4,r2
 1008ae4:	1007883a 	mov	r3,r2
 1008ae8:	e0bffe43 	ldbu	r2,-7(fp)
 1008aec:	10c4703a 	and	r2,r2,r3
 1008af0:	e0bffe45 	stb	r2,-7(fp)
 1008af4:	00000306 	br	1008b04 <alt_tse_phy_get_common_speed+0x220>
            continue;
 1008af8:	0001883a 	nop
 1008afc:	00000106 	br	1008b04 <alt_tse_phy_get_common_speed+0x220>
            continue;
 1008b00:	0001883a 	nop
    for(i = 0; i < pmac_group->channel; i++) {
 1008b04:	e0bfff17 	ldw	r2,-4(fp)
 1008b08:	10800044 	addi	r2,r2,1
 1008b0c:	e0bfff15 	stw	r2,-4(fp)
 1008b10:	e0bff817 	ldw	r2,-32(fp)
 1008b14:	10800003 	ldbu	r2,0(r2)
 1008b18:	10803fcc 	andi	r2,r2,255
 1008b1c:	e0ffff17 	ldw	r3,-4(fp)
 1008b20:	18bfa616 	blt	r3,r2,10089bc <alt_tse_phy_get_common_speed+0xd8>

    }
    
    /* get common speed based on capabilities */
    if(none_an_complete == 1) {
 1008b24:	e0bffcc3 	ldbu	r2,-13(fp)
 1008b28:	10800058 	cmpnei	r2,r2,1
 1008b2c:	1000081e 	bne	r2,zero,1008b50 <alt_tse_phy_get_common_speed+0x26c>
        common_speed = TSE_PHY_SPEED_NO_COMMON;
 1008b30:	00bfffc4 	movi	r2,-1
 1008b34:	e0bffd15 	stw	r2,-12(fp)
        tse_dprintf(2, "ERROR   : MAC Group[%d] - None of the PHYs Auto-Negotiation completed!\n", mac_group_index);
 1008b38:	e0bff9c7 	ldb	r2,-25(fp)
 1008b3c:	100b883a 	mov	r5,r2
 1008b40:	01004074 	movhi	r4,257
 1008b44:	2133b404 	addi	r4,r4,-12592
 1008b48:	100460c0 	call	100460c <no_printf>
 1008b4c:	00002706 	br	1008bec <alt_tse_phy_get_common_speed+0x308>
    }
    else if(common_1000) {
 1008b50:	e0bffec3 	ldbu	r2,-5(fp)
 1008b54:	10000926 	beq	r2,zero,1008b7c <alt_tse_phy_get_common_speed+0x298>
        common_speed = TSE_PHY_SPEED_1000;
 1008b58:	00800084 	movi	r2,2
 1008b5c:	e0bffd15 	stw	r2,-12(fp)
        tse_dprintf(5, "INFO    : MAC Group[%d] - Common Speed : %d Mbps\n", mac_group_index, 1000);
 1008b60:	e0bff9c7 	ldb	r2,-25(fp)
 1008b64:	0180fa04 	movi	r6,1000
 1008b68:	100b883a 	mov	r5,r2
 1008b6c:	01004074 	movhi	r4,257
 1008b70:	2133c604 	addi	r4,r4,-12520
 1008b74:	100460c0 	call	100460c <no_printf>
 1008b78:	00001c06 	br	1008bec <alt_tse_phy_get_common_speed+0x308>
    }
    else if(common_100) {
 1008b7c:	e0bffe83 	ldbu	r2,-6(fp)
 1008b80:	10000926 	beq	r2,zero,1008ba8 <alt_tse_phy_get_common_speed+0x2c4>
        common_speed = TSE_PHY_SPEED_100;
 1008b84:	00800044 	movi	r2,1
 1008b88:	e0bffd15 	stw	r2,-12(fp)
        tse_dprintf(5, "INFO    : MAC Group[%d] - Common Speed : %d Mbps\n", mac_group_index, 100);
 1008b8c:	e0bff9c7 	ldb	r2,-25(fp)
 1008b90:	01801904 	movi	r6,100
 1008b94:	100b883a 	mov	r5,r2
 1008b98:	01004074 	movhi	r4,257
 1008b9c:	2133c604 	addi	r4,r4,-12520
 1008ba0:	100460c0 	call	100460c <no_printf>
 1008ba4:	00001106 	br	1008bec <alt_tse_phy_get_common_speed+0x308>
    }
    else if(common_10) {
 1008ba8:	e0bffe43 	ldbu	r2,-7(fp)
 1008bac:	10000826 	beq	r2,zero,1008bd0 <alt_tse_phy_get_common_speed+0x2ec>
        common_speed = TSE_PHY_SPEED_10;
 1008bb0:	e03ffd15 	stw	zero,-12(fp)
        tse_dprintf(5, "INFO    : MAC Group[%d] - Common Speed : %d Mbps\n", mac_group_index, 10);
 1008bb4:	e0bff9c7 	ldb	r2,-25(fp)
 1008bb8:	01800284 	movi	r6,10
 1008bbc:	100b883a 	mov	r5,r2
 1008bc0:	01004074 	movhi	r4,257
 1008bc4:	2133c604 	addi	r4,r4,-12520
 1008bc8:	100460c0 	call	100460c <no_printf>
 1008bcc:	00000706 	br	1008bec <alt_tse_phy_get_common_speed+0x308>
    }
    else {
        common_speed = TSE_PHY_SPEED_NO_COMMON;
 1008bd0:	00bfffc4 	movi	r2,-1
 1008bd4:	e0bffd15 	stw	r2,-12(fp)
        tse_dprintf(2, "ERROR   : MAC Group[%d] - No common speed at all!\n", mac_group_index);    }
 1008bd8:	e0bff9c7 	ldb	r2,-25(fp)
 1008bdc:	100b883a 	mov	r5,r2
 1008be0:	01004074 	movhi	r4,257
 1008be4:	2133d304 	addi	r4,r4,-12468
 1008be8:	100460c0 	call	100460c <no_printf>

    return common_speed;
 1008bec:	e0bffd17 	ldw	r2,-12(fp)
}
 1008bf0:	e037883a 	mov	sp,fp
 1008bf4:	dfc00117 	ldw	ra,4(sp)
 1008bf8:	df000017 	ldw	fp,0(sp)
 1008bfc:	dec00204 	addi	sp,sp,8
 1008c00:	f800283a 	ret

01008c04 <alt_tse_phy_set_common_speed>:
 * @API Type:               Internal
 * @param pmac_group        Pointer to the TSE MAC Group structure which group all the MACs that should use the same speed
 *        common_speed      common speed supported by all PHYs
 * @return      common speed supported by all PHYs connected to the MAC, return TSE_PHY_SPEED_NO_COMMON if invalid common speed specified
 */
alt_32 alt_tse_phy_set_common_speed(alt_tse_mac_group *pmac_group, alt_32 common_speed) {
 1008c04:	defff004 	addi	sp,sp,-64
 1008c08:	dfc00f15 	stw	ra,60(sp)
 1008c0c:	df000e15 	stw	fp,56(sp)
 1008c10:	dc400d15 	stw	r17,52(sp)
 1008c14:	dc000c15 	stw	r16,48(sp)
 1008c18:	df000e04 	addi	fp,sp,56
 1008c1c:	e13ff415 	stw	r4,-48(fp)
 1008c20:	e17ff315 	stw	r5,-52(fp)
    alt_u8 speed;
    alt_u8 duplex;
    
    alt_u8 gb_capable;
    
    alt_tse_phy_info *pphy = 0;
 1008c24:	e03ffb15 	stw	zero,-20(fp)
    alt_tse_mac_info *pmac_info = 0;
 1008c28:	e03ffa15 	stw	zero,-24(fp)
    alt_tse_system_info *psys = 0;
 1008c2c:	e03ff915 	stw	zero,-28(fp)
    
    /* get index of the pointers in pointer array list */
    alt_8 mac_info_index = 0;
 1008c30:	e03ff8c5 	stb	zero,-29(fp)
    alt_8 mac_group_index = alt_tse_get_mac_group_index(pmac_group);
 1008c34:	e13ff417 	ldw	r4,-48(fp)
 1008c38:	10056540 	call	1005654 <alt_tse_get_mac_group_index>
 1008c3c:	e0bff885 	stb	r2,-30(fp)
         
    /* Record previous MDIO address, to be restored at the end of function */
    np_tse_mac *pmac_group_base = (np_tse_mac *)pmac_group->pmac_info[0]->psys_info->tse_mac_base;
 1008c40:	e0bff417 	ldw	r2,-48(fp)
 1008c44:	10800117 	ldw	r2,4(r2)
 1008c48:	10800217 	ldw	r2,8(r2)
 1008c4c:	10800017 	ldw	r2,0(r2)
 1008c50:	e0bff715 	stw	r2,-36(fp)
    alt_32 mdioadd_prev = IORD(&pmac_group_base->MDIO_ADDR1, 0);
 1008c54:	e0bff717 	ldw	r2,-36(fp)
 1008c58:	10801004 	addi	r2,r2,64
 1008c5c:	10800037 	ldwio	r2,0(r2)
 1008c60:	e0bff615 	stw	r2,-40(fp)
    
    if((common_speed < TSE_PHY_SPEED_10) || (common_speed > TSE_PHY_SPEED_1000)) {
 1008c64:	e0bff317 	ldw	r2,-52(fp)
 1008c68:	10000316 	blt	r2,zero,1008c78 <alt_tse_phy_set_common_speed+0x74>
 1008c6c:	e0bff317 	ldw	r2,-52(fp)
 1008c70:	108000d0 	cmplti	r2,r2,3
 1008c74:	10000c1e 	bne	r2,zero,1008ca8 <alt_tse_phy_set_common_speed+0xa4>
        tse_dprintf(2, "ERROR   : MAC Group[%d] - Invalid common speed specified! common speed = %d\n", mac_group_index, (int)common_speed);
 1008c78:	e0bff887 	ldb	r2,-30(fp)
 1008c7c:	e1bff317 	ldw	r6,-52(fp)
 1008c80:	100b883a 	mov	r5,r2
 1008c84:	01004074 	movhi	r4,257
 1008c88:	2133e004 	addi	r4,r4,-12416
 1008c8c:	100460c0 	call	100460c <no_printf>
        /* Restore previous MDIO address */
        IOWR(&pmac_group_base->MDIO_ADDR1, 0, mdioadd_prev);
 1008c90:	e0bff717 	ldw	r2,-36(fp)
 1008c94:	10801004 	addi	r2,r2,64
 1008c98:	e0fff617 	ldw	r3,-40(fp)
 1008c9c:	10c00035 	stwio	r3,0(r2)
        return TSE_PHY_SPEED_NO_COMMON;
 1008ca0:	00bfffc4 	movi	r2,-1
 1008ca4:	0000fc06 	br	1009098 <alt_tse_phy_set_common_speed+0x494>
    }
    
    /* loop through every PHY connected */
    for(i = 0; i < pmac_group->channel; i++) {
 1008ca8:	e03ffd15 	stw	zero,-12(fp)
 1008cac:	0000da06 	br	1009018 <alt_tse_phy_set_common_speed+0x414>
        pmac_info = pmac_group->pmac_info[i];
 1008cb0:	e0fff417 	ldw	r3,-48(fp)
 1008cb4:	e0bffd17 	ldw	r2,-12(fp)
 1008cb8:	10800044 	addi	r2,r2,1
 1008cbc:	100490ba 	slli	r2,r2,2
 1008cc0:	1885883a 	add	r2,r3,r2
 1008cc4:	10800017 	ldw	r2,0(r2)
 1008cc8:	e0bffa15 	stw	r2,-24(fp)
        mac_info_index = alt_tse_get_mac_info_index(pmac_info);
 1008ccc:	e13ffa17 	ldw	r4,-24(fp)
 1008cd0:	10056c00 	call	10056c0 <alt_tse_get_mac_info_index>
 1008cd4:	e0bff8c5 	stb	r2,-29(fp)

        pphy = pmac_info->pphy_info;
 1008cd8:	e0bffa17 	ldw	r2,-24(fp)
 1008cdc:	10800117 	ldw	r2,4(r2)
 1008ce0:	e0bffb15 	stw	r2,-20(fp)
        
        /* if no PHY connected */
        if(!pphy) {
 1008ce4:	e0bffb17 	ldw	r2,-20(fp)
 1008ce8:	1000c726 	beq	r2,zero,1009008 <alt_tse_phy_set_common_speed+0x404>
            continue;
        }
        
        psys = pmac_info->psys_info; 
 1008cec:	e0bffa17 	ldw	r2,-24(fp)
 1008cf0:	10800217 	ldw	r2,8(r2)
 1008cf4:	e0bff915 	stw	r2,-28(fp)
            
        /* write PHY address to MDIO to access the i-th PHY */
        alt_tse_phy_wr_mdio_addr(pphy, pphy->mdio_address);
 1008cf8:	e0bffb17 	ldw	r2,-20(fp)
 1008cfc:	10800003 	ldbu	r2,0(r2)
 1008d00:	10803fcc 	andi	r2,r2,255
 1008d04:	100b883a 	mov	r5,r2
 1008d08:	e13ffb17 	ldw	r4,-20(fp)
 1008d0c:	10064340 	call	1006434 <alt_tse_phy_wr_mdio_addr>

        /* capability of PHY supports 1000 Mbps */
        gb_capable = pphy->link_capability.cap_1000_base_t_full || pphy->link_capability.cap_1000_base_t_half || 
 1008d10:	e0bffb17 	ldw	r2,-20(fp)
 1008d14:	108000c3 	ldbu	r2,3(r2)
                 pphy->link_capability.cap_1000_base_x_full || pphy->link_capability.cap_1000_base_x_half;
 1008d18:	10803fcc 	andi	r2,r2,255
 1008d1c:	10000c1e 	bne	r2,zero,1008d50 <alt_tse_phy_set_common_speed+0x14c>
        gb_capable = pphy->link_capability.cap_1000_base_t_full || pphy->link_capability.cap_1000_base_t_half || 
 1008d20:	e0bffb17 	ldw	r2,-20(fp)
 1008d24:	10800103 	ldbu	r2,4(r2)
 1008d28:	10803fcc 	andi	r2,r2,255
 1008d2c:	1000081e 	bne	r2,zero,1008d50 <alt_tse_phy_set_common_speed+0x14c>
                 pphy->link_capability.cap_1000_base_x_full || pphy->link_capability.cap_1000_base_x_half;
 1008d30:	e0bffb17 	ldw	r2,-20(fp)
 1008d34:	10800043 	ldbu	r2,1(r2)
        gb_capable = pphy->link_capability.cap_1000_base_t_full || pphy->link_capability.cap_1000_base_t_half || 
 1008d38:	10803fcc 	andi	r2,r2,255
 1008d3c:	1000041e 	bne	r2,zero,1008d50 <alt_tse_phy_set_common_speed+0x14c>
                 pphy->link_capability.cap_1000_base_x_full || pphy->link_capability.cap_1000_base_x_half;
 1008d40:	e0bffb17 	ldw	r2,-20(fp)
 1008d44:	10800083 	ldbu	r2,2(r2)
 1008d48:	10803fcc 	andi	r2,r2,255
 1008d4c:	10000226 	beq	r2,zero,1008d58 <alt_tse_phy_set_common_speed+0x154>
 1008d50:	00800044 	movi	r2,1
 1008d54:	00000106 	br	1008d5c <alt_tse_phy_set_common_speed+0x158>
 1008d58:	0005883a 	mov	r2,zero
        gb_capable = pphy->link_capability.cap_1000_base_t_full || pphy->link_capability.cap_1000_base_t_half || 
 1008d5c:	e0bff5c5 	stb	r2,-41(fp)
        
        /* if PHY does not supports 1000 Mbps, and common speed is 1000 Mbps */
        if((!gb_capable) && (common_speed == TSE_PHY_SPEED_1000)) {
 1008d60:	e0bff5c3 	ldbu	r2,-41(fp)
 1008d64:	1000101e 	bne	r2,zero,1008da8 <alt_tse_phy_set_common_speed+0x1a4>
 1008d68:	e0bff317 	ldw	r2,-52(fp)
 1008d6c:	10800098 	cmpnei	r2,r2,2
 1008d70:	10000d1e 	bne	r2,zero,1008da8 <alt_tse_phy_set_common_speed+0x1a4>
            tse_dprintf(2, "ERROR   : PHY[%d.%d] - PHY does not support 1000 Mbps, please specify valid common speed\n", mac_group_index, mac_info_index);
 1008d74:	e0bff887 	ldb	r2,-30(fp)
 1008d78:	e0fff8c7 	ldb	r3,-29(fp)
 1008d7c:	180d883a 	mov	r6,r3
 1008d80:	100b883a 	mov	r5,r2
 1008d84:	01004074 	movhi	r4,257
 1008d88:	2133f404 	addi	r4,r4,-12336
 1008d8c:	100460c0 	call	100460c <no_printf>
            /* Restore previous MDIO address */
            IOWR(&pmac_group_base->MDIO_ADDR1, 0, mdioadd_prev);
 1008d90:	e0bff717 	ldw	r2,-36(fp)
 1008d94:	10801004 	addi	r2,r2,64
 1008d98:	e0fff617 	ldw	r3,-40(fp)
 1008d9c:	10c00035 	stwio	r3,0(r2)
            return TSE_PHY_SPEED_NO_COMMON;
 1008da0:	00bfffc4 	movi	r2,-1
 1008da4:	0000bc06 	br	1009098 <alt_tse_phy_set_common_speed+0x494>
        }
        
        /* if PHY is not Auto-Negotiation capable */
        if(!alt_tse_phy_rd_mdio_reg(pphy, TSE_PHY_MDIO_STATUS, TSE_PHY_MDIO_STATUS_AN_ABILITY, 1)) {
 1008da8:	01c00044 	movi	r7,1
 1008dac:	018000c4 	movi	r6,3
 1008db0:	01400044 	movi	r5,1
 1008db4:	e13ffb17 	ldw	r4,-20(fp)
 1008db8:	10065b80 	call	10065b8 <alt_tse_phy_rd_mdio_reg>
 1008dbc:	1000141e 	bne	r2,zero,1008e10 <alt_tse_phy_set_common_speed+0x20c>
            
            /* if PHY supports 1000 Mbps, write msb of speed */
            if(gb_capable) {
 1008dc0:	e0bff5c3 	ldbu	r2,-41(fp)
 1008dc4:	10000926 	beq	r2,zero,1008dec <alt_tse_phy_set_common_speed+0x1e8>
                alt_tse_phy_wr_mdio_reg(pphy, TSE_PHY_MDIO_CONTROL, TSE_PHY_MDIO_CONTROL_SPEED_MSB, 1, common_speed >> 1);
 1008dc8:	e0bff317 	ldw	r2,-52(fp)
 1008dcc:	1005d07a 	srai	r2,r2,1
 1008dd0:	10bfffcc 	andi	r2,r2,65535
 1008dd4:	d8800015 	stw	r2,0(sp)
 1008dd8:	01c00044 	movi	r7,1
 1008ddc:	01800184 	movi	r6,6
 1008de0:	000b883a 	mov	r5,zero
 1008de4:	e13ffb17 	ldw	r4,-20(fp)
 1008de8:	100648c0 	call	100648c <alt_tse_phy_wr_mdio_reg>
            }
            /* write lsb of speed */
            alt_tse_phy_wr_mdio_reg(pphy, TSE_PHY_MDIO_CONTROL, TSE_PHY_MDIO_CONTROL_SPEED_LSB, 1, common_speed);
 1008dec:	e0bff317 	ldw	r2,-52(fp)
 1008df0:	10bfffcc 	andi	r2,r2,65535
 1008df4:	d8800015 	stw	r2,0(sp)
 1008df8:	01c00044 	movi	r7,1
 1008dfc:	01800344 	movi	r6,13
 1008e00:	000b883a 	mov	r5,zero
 1008e04:	e13ffb17 	ldw	r4,-20(fp)
 1008e08:	100648c0 	call	100648c <alt_tse_phy_wr_mdio_reg>
            
            /* continue to next PHY */
            continue;
 1008e0c:	00007f06 	br	100900c <alt_tse_phy_set_common_speed+0x408>
        }
        
        /* set Auto-Negotiation advertisement based on common speed */
        if(common_speed == TSE_PHY_SPEED_1000) {
 1008e10:	e0bff317 	ldw	r2,-52(fp)
 1008e14:	10800098 	cmpnei	r2,r2,2
 1008e18:	10000a1e 	bne	r2,zero,1008e44 <alt_tse_phy_set_common_speed+0x240>
            alt_tse_phy_set_adv_1000(pphy, 1);
 1008e1c:	01400044 	movi	r5,1
 1008e20:	e13ffb17 	ldw	r4,-20(fp)
 1008e24:	10083240 	call	1008324 <alt_tse_phy_set_adv_1000>
            alt_tse_phy_set_adv_100(pphy, 1);
 1008e28:	01400044 	movi	r5,1
 1008e2c:	e13ffb17 	ldw	r4,-20(fp)
 1008e30:	10084e80 	call	10084e8 <alt_tse_phy_set_adv_100>
            alt_tse_phy_set_adv_10(pphy, 1);
 1008e34:	01400044 	movi	r5,1
 1008e38:	e13ffb17 	ldw	r4,-20(fp)
 1008e3c:	100873c0 	call	100873c <alt_tse_phy_set_adv_10>
 1008e40:	00002206 	br	1008ecc <alt_tse_phy_set_common_speed+0x2c8>
        }
        else if(common_speed == TSE_PHY_SPEED_100) {
 1008e44:	e0bff317 	ldw	r2,-52(fp)
 1008e48:	10800058 	cmpnei	r2,r2,1
 1008e4c:	10000a1e 	bne	r2,zero,1008e78 <alt_tse_phy_set_common_speed+0x274>
            alt_tse_phy_set_adv_1000(pphy, 0);
 1008e50:	000b883a 	mov	r5,zero
 1008e54:	e13ffb17 	ldw	r4,-20(fp)
 1008e58:	10083240 	call	1008324 <alt_tse_phy_set_adv_1000>
            alt_tse_phy_set_adv_100(pphy, 1);
 1008e5c:	01400044 	movi	r5,1
 1008e60:	e13ffb17 	ldw	r4,-20(fp)
 1008e64:	10084e80 	call	10084e8 <alt_tse_phy_set_adv_100>
            alt_tse_phy_set_adv_10(pphy, 1);
 1008e68:	01400044 	movi	r5,1
 1008e6c:	e13ffb17 	ldw	r4,-20(fp)
 1008e70:	100873c0 	call	100873c <alt_tse_phy_set_adv_10>
 1008e74:	00001506 	br	1008ecc <alt_tse_phy_set_common_speed+0x2c8>
        }    
        else if(common_speed == TSE_PHY_SPEED_10) {
 1008e78:	e0bff317 	ldw	r2,-52(fp)
 1008e7c:	10000a1e 	bne	r2,zero,1008ea8 <alt_tse_phy_set_common_speed+0x2a4>
            alt_tse_phy_set_adv_1000(pphy, 0);
 1008e80:	000b883a 	mov	r5,zero
 1008e84:	e13ffb17 	ldw	r4,-20(fp)
 1008e88:	10083240 	call	1008324 <alt_tse_phy_set_adv_1000>
            alt_tse_phy_set_adv_100(pphy, 0);
 1008e8c:	000b883a 	mov	r5,zero
 1008e90:	e13ffb17 	ldw	r4,-20(fp)
 1008e94:	10084e80 	call	10084e8 <alt_tse_phy_set_adv_100>
            alt_tse_phy_set_adv_10(pphy, 1);
 1008e98:	01400044 	movi	r5,1
 1008e9c:	e13ffb17 	ldw	r4,-20(fp)
 1008ea0:	100873c0 	call	100873c <alt_tse_phy_set_adv_10>
 1008ea4:	00000906 	br	1008ecc <alt_tse_phy_set_common_speed+0x2c8>
        }
        else {
            alt_tse_phy_set_adv_1000(pphy, 0);
 1008ea8:	000b883a 	mov	r5,zero
 1008eac:	e13ffb17 	ldw	r4,-20(fp)
 1008eb0:	10083240 	call	1008324 <alt_tse_phy_set_adv_1000>
            alt_tse_phy_set_adv_100(pphy, 0);
 1008eb4:	000b883a 	mov	r5,zero
 1008eb8:	e13ffb17 	ldw	r4,-20(fp)
 1008ebc:	10084e80 	call	10084e8 <alt_tse_phy_set_adv_100>
            alt_tse_phy_set_adv_10(pphy, 0);
 1008ec0:	000b883a 	mov	r5,zero
 1008ec4:	e13ffb17 	ldw	r4,-20(fp)
 1008ec8:	100873c0 	call	100873c <alt_tse_phy_set_adv_10>
        }
        
        /* if PHY Auto-Negotiation is completed */
        if(alt_tse_phy_rd_mdio_reg(pphy, TSE_PHY_MDIO_STATUS, TSE_PHY_MDIO_STATUS_AN_COMPLETE, 1) == 1) {
 1008ecc:	01c00044 	movi	r7,1
 1008ed0:	01800144 	movi	r6,5
 1008ed4:	01400044 	movi	r5,1
 1008ed8:	e13ffb17 	ldw	r4,-20(fp)
 1008edc:	10065b80 	call	10065b8 <alt_tse_phy_rd_mdio_reg>
 1008ee0:	10800058 	cmpnei	r2,r2,1
 1008ee4:	10003a1e 	bne	r2,zero,1008fd0 <alt_tse_phy_set_common_speed+0x3cc>
            
            /* read both msb and lsb of speed bits if PHY support 1000 Mbps */
            if(gb_capable) {
 1008ee8:	e0bff5c3 	ldbu	r2,-41(fp)
 1008eec:	10000f26 	beq	r2,zero,1008f2c <alt_tse_phy_set_common_speed+0x328>
        
                /* get speed information after Auto-Negotiation */
                speed = alt_tse_phy_rd_mdio_reg(pphy, pphy->pphy_profile->status_reg_location, pphy->pphy_profile->speed_lsb_location, 2);
 1008ef0:	e0bffb17 	ldw	r2,-20(fp)
 1008ef4:	10800517 	ldw	r2,20(r2)
 1008ef8:	10801583 	ldbu	r2,86(r2)
 1008efc:	10c03fcc 	andi	r3,r2,255
 1008f00:	e0bffb17 	ldw	r2,-20(fp)
 1008f04:	10800517 	ldw	r2,20(r2)
 1008f08:	108015c3 	ldbu	r2,87(r2)
 1008f0c:	10803fcc 	andi	r2,r2,255
 1008f10:	01c00084 	movi	r7,2
 1008f14:	100d883a 	mov	r6,r2
 1008f18:	180b883a 	mov	r5,r3
 1008f1c:	e13ffb17 	ldw	r4,-20(fp)
 1008f20:	10065b80 	call	10065b8 <alt_tse_phy_rd_mdio_reg>
 1008f24:	e0bffcc5 	stb	r2,-13(fp)
 1008f28:	00000e06 	br	1008f64 <alt_tse_phy_set_common_speed+0x360>
            }
            
            /* read lsb of speed only if PHY support only 10/100 Mbps */
            else {
                /* get speed and link information after Auto-Negotiation */
                speed = alt_tse_phy_rd_mdio_reg(pphy, pphy->pphy_profile->status_reg_location, pphy->pphy_profile->speed_lsb_location, 1);
 1008f2c:	e0bffb17 	ldw	r2,-20(fp)
 1008f30:	10800517 	ldw	r2,20(r2)
 1008f34:	10801583 	ldbu	r2,86(r2)
 1008f38:	10c03fcc 	andi	r3,r2,255
 1008f3c:	e0bffb17 	ldw	r2,-20(fp)
 1008f40:	10800517 	ldw	r2,20(r2)
 1008f44:	108015c3 	ldbu	r2,87(r2)
 1008f48:	10803fcc 	andi	r2,r2,255
 1008f4c:	01c00044 	movi	r7,1
 1008f50:	100d883a 	mov	r6,r2
 1008f54:	180b883a 	mov	r5,r3
 1008f58:	e13ffb17 	ldw	r4,-20(fp)
 1008f5c:	10065b80 	call	10065b8 <alt_tse_phy_rd_mdio_reg>
 1008f60:	e0bffcc5 	stb	r2,-13(fp)
            }
            
            /* if current speed != common speed, then restart Auto-Negotiation */
            if(speed != common_speed) {
 1008f64:	e0bffcc3 	ldbu	r2,-13(fp)
 1008f68:	e0fff317 	ldw	r3,-52(fp)
 1008f6c:	18800326 	beq	r3,r2,1008f7c <alt_tse_phy_set_common_speed+0x378>
                alt_tse_phy_restart_an(pphy, ALTERA_AUTONEG_TIMEOUT_THRESHOLD);
 1008f70:	01427104 	movi	r5,2500
 1008f74:	e13ffb17 	ldw	r4,-20(fp)
 1008f78:	1007a440 	call	1007a44 <alt_tse_phy_restart_an>
            }
            
            /* get speed information after Auto-Negotiation */
            duplex = alt_tse_phy_rd_mdio_reg(pphy, pphy->pphy_profile->status_reg_location, pphy->pphy_profile->duplex_bit_location, 1);
 1008f7c:	e0bffb17 	ldw	r2,-20(fp)
 1008f80:	10800517 	ldw	r2,20(r2)
 1008f84:	10801583 	ldbu	r2,86(r2)
 1008f88:	10c03fcc 	andi	r3,r2,255
 1008f8c:	e0bffb17 	ldw	r2,-20(fp)
 1008f90:	10800517 	ldw	r2,20(r2)
 1008f94:	10801603 	ldbu	r2,88(r2)
 1008f98:	10803fcc 	andi	r2,r2,255
 1008f9c:	01c00044 	movi	r7,1
 1008fa0:	100d883a 	mov	r6,r2
 1008fa4:	180b883a 	mov	r5,r3
 1008fa8:	e13ffb17 	ldw	r4,-20(fp)
 1008fac:	10065b80 	call	10065b8 <alt_tse_phy_rd_mdio_reg>
 1008fb0:	e0bff585 	stb	r2,-42(fp)
            
            /* Set MAC duplex register */
            alt_tse_mac_set_duplex((np_tse_mac *)psys->tse_mac_base, duplex);
 1008fb4:	e0bff917 	ldw	r2,-28(fp)
 1008fb8:	10800017 	ldw	r2,0(r2)
 1008fbc:	1007883a 	mov	r3,r2
 1008fc0:	e0bff583 	ldbu	r2,-42(fp)
 1008fc4:	100b883a 	mov	r5,r2
 1008fc8:	1809883a 	mov	r4,r3
 1008fcc:	10058e80 	call	10058e8 <alt_tse_mac_set_duplex>
            
        }
        tse_dprintf(5, "INFO    : PHY[%d.%d] - PHY STATUS = 0x%04x\n\n", mac_group_index, mac_info_index, (int) alt_tse_phy_rd_mdio_reg(pphy, TSE_PHY_MDIO_STATUS, 0, 16));        
 1008fd0:	e43ff887 	ldb	r16,-30(fp)
 1008fd4:	e47ff8c7 	ldb	r17,-29(fp)
 1008fd8:	01c00404 	movi	r7,16
 1008fdc:	000d883a 	mov	r6,zero
 1008fe0:	01400044 	movi	r5,1
 1008fe4:	e13ffb17 	ldw	r4,-20(fp)
 1008fe8:	10065b80 	call	10065b8 <alt_tse_phy_rd_mdio_reg>
 1008fec:	100f883a 	mov	r7,r2
 1008ff0:	880d883a 	mov	r6,r17
 1008ff4:	800b883a 	mov	r5,r16
 1008ff8:	01004074 	movhi	r4,257
 1008ffc:	21340b04 	addi	r4,r4,-12244
 1009000:	100460c0 	call	100460c <no_printf>
 1009004:	00000106 	br	100900c <alt_tse_phy_set_common_speed+0x408>
            continue;
 1009008:	0001883a 	nop
    for(i = 0; i < pmac_group->channel; i++) {
 100900c:	e0bffd17 	ldw	r2,-12(fp)
 1009010:	10800044 	addi	r2,r2,1
 1009014:	e0bffd15 	stw	r2,-12(fp)
 1009018:	e0bff417 	ldw	r2,-48(fp)
 100901c:	10800003 	ldbu	r2,0(r2)
 1009020:	10803fcc 	andi	r2,r2,255
 1009024:	e0fffd17 	ldw	r3,-12(fp)
 1009028:	18bf2116 	blt	r3,r2,1008cb0 <alt_tse_phy_set_common_speed+0xac>
    }
    tse_dprintf(5, "INFO    : MAC Group[%d] - All PHYs set to common speed : %d Mbps\n", mac_group_index, (common_speed == TSE_PHY_SPEED_1000) ? 1000 : ((common_speed == TSE_PHY_SPEED_100) ? 100 : 10));
 100902c:	e0fff887 	ldb	r3,-30(fp)
 1009030:	e0bff317 	ldw	r2,-52(fp)
 1009034:	108000a0 	cmpeqi	r2,r2,2
 1009038:	1000071e 	bne	r2,zero,1009058 <alt_tse_phy_set_common_speed+0x454>
 100903c:	e0bff317 	ldw	r2,-52(fp)
 1009040:	10800058 	cmpnei	r2,r2,1
 1009044:	1000021e 	bne	r2,zero,1009050 <alt_tse_phy_set_common_speed+0x44c>
 1009048:	00801904 	movi	r2,100
 100904c:	00000306 	br	100905c <alt_tse_phy_set_common_speed+0x458>
 1009050:	00800284 	movi	r2,10
 1009054:	00000106 	br	100905c <alt_tse_phy_set_common_speed+0x458>
 1009058:	0080fa04 	movi	r2,1000
 100905c:	100d883a 	mov	r6,r2
 1009060:	180b883a 	mov	r5,r3
 1009064:	01004074 	movhi	r4,257
 1009068:	21341704 	addi	r4,r4,-12196
 100906c:	100460c0 	call	100460c <no_printf>

    /* Set MAC speed register */
    alt_tse_mac_set_speed(pmac_group_base, common_speed);
 1009070:	e0bff317 	ldw	r2,-52(fp)
 1009074:	10803fcc 	andi	r2,r2,255
 1009078:	100b883a 	mov	r5,r2
 100907c:	e13ff717 	ldw	r4,-36(fp)
 1009080:	10058080 	call	1005808 <alt_tse_mac_set_speed>
    
    /* Restore previous MDIO address */
    IOWR(&pmac_group_base->MDIO_ADDR1, 0, mdioadd_prev);
 1009084:	e0bff717 	ldw	r2,-36(fp)
 1009088:	10801004 	addi	r2,r2,64
 100908c:	e0fff617 	ldw	r3,-40(fp)
 1009090:	10c00035 	stwio	r3,0(r2)
        
    return common_speed;
 1009094:	e0bff317 	ldw	r2,-52(fp)
}
 1009098:	e6fffe04 	addi	sp,fp,-8
 100909c:	dfc00317 	ldw	ra,12(sp)
 10090a0:	df000217 	ldw	fp,8(sp)
 10090a4:	dc400117 	ldw	r17,4(sp)
 10090a8:	dc000017 	ldw	r16,0(sp)
 10090ac:	dec00404 	addi	sp,sp,16
 10090b0:	f800283a 	ret

010090b4 <marvell_phy_cfg>:

/* @Function Description: Additional configuration for Marvell PHY
 * @API Type:   Internal
 * @param pmac  Pointer to the first TSE MAC Control Interface Base address of MAC group
 */
alt_32 marvell_phy_cfg(np_tse_mac *pmac) {
 10090b4:	defffc04 	addi	sp,sp,-16
 10090b8:	dfc00315 	stw	ra,12(sp)
 10090bc:	df000215 	stw	fp,8(sp)
 10090c0:	df000204 	addi	fp,sp,8
 10090c4:	e13ffe15 	stw	r4,-8(fp)
    
    alt_u16 dat;
    
    /* If there is no link yet, we enable auto crossover and reset the PHY */
    if((IORD(&pmac->mdio1.STATUS, 0) & PCS_ST_an_done) == 0) {
 10090c8:	e0bffe17 	ldw	r2,-8(fp)
 10090cc:	1080a104 	addi	r2,r2,644
 10090d0:	10800037 	ldwio	r2,0(r2)
 10090d4:	1080080c 	andi	r2,r2,32
 10090d8:	1000161e 	bne	r2,zero,1009134 <marvell_phy_cfg+0x80>
        tse_dprintf(5, "MARVELL : Enabling auto crossover\n");
 10090dc:	01004074 	movhi	r4,257
 10090e0:	21342804 	addi	r4,r4,-12128
 10090e4:	100460c0 	call	100460c <no_printf>
        IOWR(&pmac->mdio1.CONTROL, 16, 0x0078);
 10090e8:	e0bffe17 	ldw	r2,-8(fp)
 10090ec:	1080a004 	addi	r2,r2,640
 10090f0:	10801004 	addi	r2,r2,64
 10090f4:	00c01e04 	movi	r3,120
 10090f8:	10c00035 	stwio	r3,0(r2)
        tse_dprintf(5, "MARVELL : PHY reset\n");
 10090fc:	01004074 	movhi	r4,257
 1009100:	21343104 	addi	r4,r4,-12092
 1009104:	100460c0 	call	100460c <no_printf>
        dat = IORD(&pmac->mdio1.CONTROL, 0); 
 1009108:	e0bffe17 	ldw	r2,-8(fp)
 100910c:	1080a004 	addi	r2,r2,640
 1009110:	10800037 	ldwio	r2,0(r2)
 1009114:	e0bfff8d 	sth	r2,-2(fp)
        IOWR(&pmac->mdio1.CONTROL, 0, dat | PCS_CTL_sw_reset);        
 1009118:	e0bffe17 	ldw	r2,-8(fp)
 100911c:	1080a004 	addi	r2,r2,640
 1009120:	e13fff8b 	ldhu	r4,-2(fp)
 1009124:	00e00004 	movi	r3,-32768
 1009128:	20c6b03a 	or	r3,r4,r3
 100912c:	18ffffcc 	andi	r3,r3,65535
 1009130:	10c00035 	stwio	r3,0(r2)
    }
    
    return 0;
 1009134:	0005883a 	mov	r2,zero
}
 1009138:	e037883a 	mov	sp,fp
 100913c:	dfc00117 	ldw	ra,4(sp)
 1009140:	df000017 	ldw	fp,0(sp)
 1009144:	dec00204 	addi	sp,sp,8
 1009148:	f800283a 	ret

0100914c <marvell_cfg_gmii>:

/* @Function Description: Change operating mode of Marvell PHY to GMII
 * @API Type:   Internal
 * @param pmac  Pointer to the first TSE MAC Control Interface Base address within MAC group
 */
alt_32 marvell_cfg_gmii(np_tse_mac *pmac) {
 100914c:	defffc04 	addi	sp,sp,-16
 1009150:	dfc00315 	stw	ra,12(sp)
 1009154:	df000215 	stw	fp,8(sp)
 1009158:	df000204 	addi	fp,sp,8
 100915c:	e13ffe15 	stw	r4,-8(fp)
    
    alt_u16 dat = IORD(&pmac->mdio1.reg1b, 0);
 1009160:	e0bffe17 	ldw	r2,-8(fp)
 1009164:	1080bb04 	addi	r2,r2,748
 1009168:	10800037 	ldwio	r2,0(r2)
 100916c:	e0bfff8d 	sth	r2,-2(fp)
    dat &= 0xfff0;
 1009170:	e0ffff8b 	ldhu	r3,-2(fp)
 1009174:	00bffc04 	movi	r2,-16
 1009178:	1884703a 	and	r2,r3,r2
 100917c:	e0bfff8d 	sth	r2,-2(fp)

    tse_dprintf(5, "MARVELL : Mode changed to GMII to copper mode\n");
 1009180:	01004074 	movhi	r4,257
 1009184:	21343704 	addi	r4,r4,-12068
 1009188:	100460c0 	call	100460c <no_printf>
    IOWR(&pmac->mdio1.reg1b, 0, dat | 0xf);
 100918c:	e0bffe17 	ldw	r2,-8(fp)
 1009190:	1080bb04 	addi	r2,r2,748
 1009194:	e0ffff8b 	ldhu	r3,-2(fp)
 1009198:	18c003d4 	ori	r3,r3,15
 100919c:	18ffffcc 	andi	r3,r3,65535
 10091a0:	10c00035 	stwio	r3,0(r2)
    
    tse_dprintf(5, "MARVELL : Disable RGMII Timing Control\n");
 10091a4:	01004074 	movhi	r4,257
 10091a8:	21344304 	addi	r4,r4,-12020
 10091ac:	100460c0 	call	100460c <no_printf>
    dat = IORD(&pmac->mdio1.reg14, 0); 
 10091b0:	e0bffe17 	ldw	r2,-8(fp)
 10091b4:	1080b404 	addi	r2,r2,720
 10091b8:	10800037 	ldwio	r2,0(r2)
 10091bc:	e0bfff8d 	sth	r2,-2(fp)
    dat &= ~0x82;
 10091c0:	e0ffff8b 	ldhu	r3,-2(fp)
 10091c4:	00bfdf44 	movi	r2,-131
 10091c8:	1884703a 	and	r2,r3,r2
 10091cc:	e0bfff8d 	sth	r2,-2(fp)
    IOWR(&pmac->mdio1.reg14, 0, dat);
 10091d0:	e0bffe17 	ldw	r2,-8(fp)
 10091d4:	1080b404 	addi	r2,r2,720
 10091d8:	e0ffff8b 	ldhu	r3,-2(fp)
 10091dc:	10c00035 	stwio	r3,0(r2)
    
    tse_dprintf(5, "MARVELL : PHY reset\n");
 10091e0:	01004074 	movhi	r4,257
 10091e4:	21343104 	addi	r4,r4,-12092
 10091e8:	100460c0 	call	100460c <no_printf>
    dat = IORD(&pmac->mdio1.CONTROL, 0); 
 10091ec:	e0bffe17 	ldw	r2,-8(fp)
 10091f0:	1080a004 	addi	r2,r2,640
 10091f4:	10800037 	ldwio	r2,0(r2)
 10091f8:	e0bfff8d 	sth	r2,-2(fp)
    IOWR(&pmac->mdio1.CONTROL, 0, dat | PCS_CTL_sw_reset);
 10091fc:	e0bffe17 	ldw	r2,-8(fp)
 1009200:	1080a004 	addi	r2,r2,640
 1009204:	e13fff8b 	ldhu	r4,-2(fp)
 1009208:	00e00004 	movi	r3,-32768
 100920c:	20c6b03a 	or	r3,r4,r3
 1009210:	18ffffcc 	andi	r3,r3,65535
 1009214:	10c00035 	stwio	r3,0(r2)
    
    return 1;
 1009218:	00800044 	movi	r2,1
}
 100921c:	e037883a 	mov	sp,fp
 1009220:	dfc00117 	ldw	ra,4(sp)
 1009224:	df000017 	ldw	fp,0(sp)
 1009228:	dec00204 	addi	sp,sp,8
 100922c:	f800283a 	ret

01009230 <marvell_cfg_sgmii>:

/* @Function Description: Change operating mode of Marvell PHY to SGMII
 * @API Type:   Internal
 * @param pmac  Pointer to the first TSE MAC Control Interface Base address within MAC group
 */
alt_32 marvell_cfg_sgmii(np_tse_mac *pmac) {
 1009230:	defffc04 	addi	sp,sp,-16
 1009234:	dfc00315 	stw	ra,12(sp)
 1009238:	df000215 	stw	fp,8(sp)
 100923c:	df000204 	addi	fp,sp,8
 1009240:	e13ffe15 	stw	r4,-8(fp)
    
    alt_u16 dat = IORD(&pmac->mdio1.reg1b, 0);
 1009244:	e0bffe17 	ldw	r2,-8(fp)
 1009248:	1080bb04 	addi	r2,r2,748
 100924c:	10800037 	ldwio	r2,0(r2)
 1009250:	e0bfff8d 	sth	r2,-2(fp)
    dat &= 0xfff0;
 1009254:	e0ffff8b 	ldhu	r3,-2(fp)
 1009258:	00bffc04 	movi	r2,-16
 100925c:	1884703a 	and	r2,r3,r2
 1009260:	e0bfff8d 	sth	r2,-2(fp)

    tse_dprintf(5, "MARVELL : Mode changed to SGMII without clock with SGMII Auto-Neg to copper mode\n");
 1009264:	01004074 	movhi	r4,257
 1009268:	21344d04 	addi	r4,r4,-11980
 100926c:	100460c0 	call	100460c <no_printf>
    IOWR(&pmac->mdio1.reg1b, 0, dat | 0x4);
 1009270:	e0bffe17 	ldw	r2,-8(fp)
 1009274:	1080bb04 	addi	r2,r2,748
 1009278:	e0ffff8b 	ldhu	r3,-2(fp)
 100927c:	18c00114 	ori	r3,r3,4
 1009280:	18ffffcc 	andi	r3,r3,65535
 1009284:	10c00035 	stwio	r3,0(r2)
    
    tse_dprintf(5, "MARVELL : Disable RGMII Timing Control\n");
 1009288:	01004074 	movhi	r4,257
 100928c:	21344304 	addi	r4,r4,-12020
 1009290:	100460c0 	call	100460c <no_printf>
    dat = IORD(&pmac->mdio1.reg14, 0); 
 1009294:	e0bffe17 	ldw	r2,-8(fp)
 1009298:	1080b404 	addi	r2,r2,720
 100929c:	10800037 	ldwio	r2,0(r2)
 10092a0:	e0bfff8d 	sth	r2,-2(fp)
    dat &= ~0x82;
 10092a4:	e0ffff8b 	ldhu	r3,-2(fp)
 10092a8:	00bfdf44 	movi	r2,-131
 10092ac:	1884703a 	and	r2,r3,r2
 10092b0:	e0bfff8d 	sth	r2,-2(fp)
    IOWR(&pmac->mdio1.reg14, 0, dat);
 10092b4:	e0bffe17 	ldw	r2,-8(fp)
 10092b8:	1080b404 	addi	r2,r2,720
 10092bc:	e0ffff8b 	ldhu	r3,-2(fp)
 10092c0:	10c00035 	stwio	r3,0(r2)

    tse_dprintf(5, "MARVELL : PHY reset\n");
 10092c4:	01004074 	movhi	r4,257
 10092c8:	21343104 	addi	r4,r4,-12092
 10092cc:	100460c0 	call	100460c <no_printf>
    dat = IORD(&pmac->mdio1.CONTROL, 0); 
 10092d0:	e0bffe17 	ldw	r2,-8(fp)
 10092d4:	1080a004 	addi	r2,r2,640
 10092d8:	10800037 	ldwio	r2,0(r2)
 10092dc:	e0bfff8d 	sth	r2,-2(fp)
    IOWR(&pmac->mdio1.CONTROL, 0, dat | PCS_CTL_sw_reset);
 10092e0:	e0bffe17 	ldw	r2,-8(fp)
 10092e4:	1080a004 	addi	r2,r2,640
 10092e8:	e13fff8b 	ldhu	r4,-2(fp)
 10092ec:	00e00004 	movi	r3,-32768
 10092f0:	20c6b03a 	or	r3,r4,r3
 10092f4:	18ffffcc 	andi	r3,r3,65535
 10092f8:	10c00035 	stwio	r3,0(r2)
    
    return 1;
 10092fc:	00800044 	movi	r2,1
}
 1009300:	e037883a 	mov	sp,fp
 1009304:	dfc00117 	ldw	ra,4(sp)
 1009308:	df000017 	ldw	fp,0(sp)
 100930c:	dec00204 	addi	sp,sp,8
 1009310:	f800283a 	ret

01009314 <marvell_cfg_rgmii>:

/* @Function Description: Change operating mode of Marvell PHY to RGMII
 * @API Type:   Internal
 * @param pmac  Pointer to the first TSE MAC Control Interface Base address within MAC group
 */
alt_32 marvell_cfg_rgmii(np_tse_mac *pmac) {
 1009314:	defffc04 	addi	sp,sp,-16
 1009318:	dfc00315 	stw	ra,12(sp)
 100931c:	df000215 	stw	fp,8(sp)
 1009320:	df000204 	addi	fp,sp,8
 1009324:	e13ffe15 	stw	r4,-8(fp)
    
    alt_u16 dat = IORD(&pmac->mdio1.reg1b, 0);
 1009328:	e0bffe17 	ldw	r2,-8(fp)
 100932c:	1080bb04 	addi	r2,r2,748
 1009330:	10800037 	ldwio	r2,0(r2)
 1009334:	e0bfff8d 	sth	r2,-2(fp)
    dat &= 0xfff0;
 1009338:	e0ffff8b 	ldhu	r3,-2(fp)
 100933c:	00bffc04 	movi	r2,-16
 1009340:	1884703a 	and	r2,r3,r2
 1009344:	e0bfff8d 	sth	r2,-2(fp)
    
    tse_dprintf(5, "MARVELL : Mode changed to RGMII/Modified MII to Copper mode\n");
 1009348:	01004074 	movhi	r4,257
 100934c:	21346204 	addi	r4,r4,-11896
 1009350:	100460c0 	call	100460c <no_printf>
    IOWR(&pmac->mdio1.reg1b, 0, dat | 0xb);
 1009354:	e0bffe17 	ldw	r2,-8(fp)
 1009358:	1080bb04 	addi	r2,r2,748
 100935c:	e0ffff8b 	ldhu	r3,-2(fp)
 1009360:	18c002d4 	ori	r3,r3,11
 1009364:	18ffffcc 	andi	r3,r3,65535
 1009368:	10c00035 	stwio	r3,0(r2)
    
    tse_dprintf(5, "MARVELL : Enable RGMII Timing Control\n");
 100936c:	01004074 	movhi	r4,257
 1009370:	21347204 	addi	r4,r4,-11832
 1009374:	100460c0 	call	100460c <no_printf>
    dat = IORD(&pmac->mdio1.reg14, 0);
 1009378:	e0bffe17 	ldw	r2,-8(fp)
 100937c:	1080b404 	addi	r2,r2,720
 1009380:	10800037 	ldwio	r2,0(r2)
 1009384:	e0bfff8d 	sth	r2,-2(fp)
    dat &= ~0x82;
 1009388:	e0ffff8b 	ldhu	r3,-2(fp)
 100938c:	00bfdf44 	movi	r2,-131
 1009390:	1884703a 	and	r2,r3,r2
 1009394:	e0bfff8d 	sth	r2,-2(fp)
    dat |= 0x82;
 1009398:	e0bfff8b 	ldhu	r2,-2(fp)
 100939c:	10802094 	ori	r2,r2,130
 10093a0:	e0bfff8d 	sth	r2,-2(fp)
    IOWR(&pmac->mdio1.reg14, 0, dat);    
 10093a4:	e0bffe17 	ldw	r2,-8(fp)
 10093a8:	1080b404 	addi	r2,r2,720
 10093ac:	e0ffff8b 	ldhu	r3,-2(fp)
 10093b0:	10c00035 	stwio	r3,0(r2)
    
    tse_dprintf(5, "MARVELL : PHY reset\n");
 10093b4:	01004074 	movhi	r4,257
 10093b8:	21343104 	addi	r4,r4,-12092
 10093bc:	100460c0 	call	100460c <no_printf>
    dat = IORD(&pmac->mdio1.CONTROL, 0); 
 10093c0:	e0bffe17 	ldw	r2,-8(fp)
 10093c4:	1080a004 	addi	r2,r2,640
 10093c8:	10800037 	ldwio	r2,0(r2)
 10093cc:	e0bfff8d 	sth	r2,-2(fp)
    IOWR(&pmac->mdio1.CONTROL, 0, dat | PCS_CTL_sw_reset);
 10093d0:	e0bffe17 	ldw	r2,-8(fp)
 10093d4:	1080a004 	addi	r2,r2,640
 10093d8:	e13fff8b 	ldhu	r4,-2(fp)
 10093dc:	00e00004 	movi	r3,-32768
 10093e0:	20c6b03a 	or	r3,r4,r3
 10093e4:	18ffffcc 	andi	r3,r3,65535
 10093e8:	10c00035 	stwio	r3,0(r2)
    
    return 1;
 10093ec:	00800044 	movi	r2,1
    
}
 10093f0:	e037883a 	mov	sp,fp
 10093f4:	dfc00117 	ldw	ra,4(sp)
 10093f8:	df000017 	ldw	fp,0(sp)
 10093fc:	dec00204 	addi	sp,sp,8
 1009400:	f800283a 	ret

01009404 <DP83848C_link_status_read>:

/* @Function Description: Read link status from PHY specific status register of DP83848C
 * @API Type:   Internal
 * @param pmac  Pointer to the first TSE MAC Control Interface Base address within MAC group
 */
alt_u32 DP83848C_link_status_read(np_tse_mac *pmac) {
 1009404:	defffc04 	addi	sp,sp,-16
 1009408:	df000315 	stw	fp,12(sp)
 100940c:	df000304 	addi	fp,sp,12
 1009410:	e13ffd15 	stw	r4,-12(fp)
    alt_u32 link_status = 0;
 1009414:	e03fff15 	stw	zero,-4(fp)
    alt_u32 reg_status = IORD(&pmac->mdio1.reg10, 0);
 1009418:	e0bffd17 	ldw	r2,-12(fp)
 100941c:	1080b004 	addi	r2,r2,704
 1009420:	10800037 	ldwio	r2,0(r2)
 1009424:	e0bffe15 	stw	r2,-8(fp)
    
    /* If speed == 10 Mbps */
    if(reg_status & 0x2) {
 1009428:	e0bffe17 	ldw	r2,-8(fp)
 100942c:	1080008c 	andi	r2,r2,2
 1009430:	10000426 	beq	r2,zero,1009444 <DP83848C_link_status_read+0x40>
        link_status |= 0x8;
 1009434:	e0bfff17 	ldw	r2,-4(fp)
 1009438:	10800214 	ori	r2,r2,8
 100943c:	e0bfff15 	stw	r2,-4(fp)
 1009440:	00000306 	br	1009450 <DP83848C_link_status_read+0x4c>
    }
    /* Else speed = 100 Mbps */
    else {
        link_status |= 0x4;
 1009444:	e0bfff17 	ldw	r2,-4(fp)
 1009448:	10800114 	ori	r2,r2,4
 100944c:	e0bfff15 	stw	r2,-4(fp)
    }
    
    /* If duplex == Full */
    if(reg_status & 0x4) {
 1009450:	e0bffe17 	ldw	r2,-8(fp)
 1009454:	1080010c 	andi	r2,r2,4
 1009458:	10000326 	beq	r2,zero,1009468 <DP83848C_link_status_read+0x64>
        link_status |= 0x1;
 100945c:	e0bfff17 	ldw	r2,-4(fp)
 1009460:	10800054 	ori	r2,r2,1
 1009464:	e0bfff15 	stw	r2,-4(fp)
    }
    
    return link_status;
 1009468:	e0bfff17 	ldw	r2,-4(fp)
}
 100946c:	e037883a 	mov	sp,fp
 1009470:	df000017 	ldw	fp,0(sp)
 1009474:	dec00104 	addi	sp,sp,4
 1009478:	f800283a 	ret

0100947c <PEF7071_config>:
/* @Function Description: Additional configuration for PEF7071 Phy
 * @API Type:   Internal
 * @param pmac  Pointer to the first TSE MAC Control Interface Base address within MAC group
 */
alt_32 PEF7071_config(np_tse_mac *pmac)
{  
 100947c:	defffd04 	addi	sp,sp,-12
 1009480:	df000215 	stw	fp,8(sp)
 1009484:	df000204 	addi	fp,sp,8
 1009488:	e13ffe15 	stw	r4,-8(fp)
    alt_u16 dat;
        
    dat = IORD(&pmac->mdio1.reg14, 0);
 100948c:	e0bffe17 	ldw	r2,-8(fp)
 1009490:	1080b404 	addi	r2,r2,720
 1009494:	10800037 	ldwio	r2,0(r2)
 1009498:	e0bfff8d 	sth	r2,-2(fp)
    dat &= 0x3FFF;
 100949c:	e0bfff8b 	ldhu	r2,-2(fp)
 10094a0:	108fffcc 	andi	r2,r2,16383
 10094a4:	e0bfff8d 	sth	r2,-2(fp)
    dat |= 0x0100;
 10094a8:	e0bfff8b 	ldhu	r2,-2(fp)
 10094ac:	10804014 	ori	r2,r2,256
 10094b0:	e0bfff8d 	sth	r2,-2(fp)
    IOWR(&pmac->mdio1.reg14, 0, dat);
 10094b4:	e0bffe17 	ldw	r2,-8(fp)
 10094b8:	1080b404 	addi	r2,r2,720
 10094bc:	e0ffff8b 	ldhu	r3,-2(fp)
 10094c0:	10c00035 	stwio	r3,0(r2)
    
    return 0;
 10094c4:	0005883a 	mov	r2,zero
    
}
 10094c8:	e037883a 	mov	sp,fp
 10094cc:	df000017 	ldw	fp,0(sp)
 10094d0:	dec00104 	addi	sp,sp,4
 10094d4:	f800283a 	ret

010094d8 <PEF7071_link_status_read>:
/* @Function Description: Read link status from PHY specific status register of PEF7071
 * @API Type:   Internal
 * @param pmac  Pointer to the first TSE MAC Control Interface Base address within MAC group
 */
alt_u32 PEF7071_link_status_read(np_tse_mac *pmac)
{
 10094d8:	defffc04 	addi	sp,sp,-16
 10094dc:	df000315 	stw	fp,12(sp)
 10094e0:	df000304 	addi	fp,sp,12
 10094e4:	e13ffd15 	stw	r4,-12(fp)
    alt_u32 link_status = 0;
 10094e8:	e03fff15 	stw	zero,-4(fp)
    alt_u32 reg18 = IORD(&pmac->mdio1.reg18, 0);
 10094ec:	e0bffd17 	ldw	r2,-12(fp)
 10094f0:	1080b804 	addi	r2,r2,736
 10094f4:	10800037 	ldwio	r2,0(r2)
 10094f8:	e0bffe15 	stw	r2,-8(fp)
        
    if ((reg18 & 0x3)==0) { link_status |= 0x8; }  /* If speed == 10 Mbps */
 10094fc:	e0bffe17 	ldw	r2,-8(fp)
 1009500:	108000cc 	andi	r2,r2,3
 1009504:	1000031e 	bne	r2,zero,1009514 <PEF7071_link_status_read+0x3c>
 1009508:	e0bfff17 	ldw	r2,-4(fp)
 100950c:	10800214 	ori	r2,r2,8
 1009510:	e0bfff15 	stw	r2,-4(fp)
    if ((reg18 & 0x3)==1) { link_status |= 0x4; }  /* Else speed = 100 Mbps */
 1009514:	e0bffe17 	ldw	r2,-8(fp)
 1009518:	108000cc 	andi	r2,r2,3
 100951c:	10800058 	cmpnei	r2,r2,1
 1009520:	1000031e 	bne	r2,zero,1009530 <PEF7071_link_status_read+0x58>
 1009524:	e0bfff17 	ldw	r2,-4(fp)
 1009528:	10800114 	ori	r2,r2,4
 100952c:	e0bfff15 	stw	r2,-4(fp)
    if ((reg18 & 0x3)==2) { link_status |= 0x2; }  /* Else speed = 1000 Mbps */    
 1009530:	e0bffe17 	ldw	r2,-8(fp)
 1009534:	108000cc 	andi	r2,r2,3
 1009538:	10800098 	cmpnei	r2,r2,2
 100953c:	1000031e 	bne	r2,zero,100954c <PEF7071_link_status_read+0x74>
 1009540:	e0bfff17 	ldw	r2,-4(fp)
 1009544:	10800094 	ori	r2,r2,2
 1009548:	e0bfff15 	stw	r2,-4(fp)
        
    /* If duplex == Full */
    if(reg18 & 0x8) {
 100954c:	e0bffe17 	ldw	r2,-8(fp)
 1009550:	1080020c 	andi	r2,r2,8
 1009554:	10000326 	beq	r2,zero,1009564 <PEF7071_link_status_read+0x8c>
        link_status |= 0x1;
 1009558:	e0bfff17 	ldw	r2,-4(fp)
 100955c:	10800054 	ori	r2,r2,1
 1009560:	e0bfff15 	stw	r2,-4(fp)
    }
    
    return link_status;
 1009564:	e0bfff17 	ldw	r2,-4(fp)
}
 1009568:	e037883a 	mov	sp,fp
 100956c:	df000017 	ldw	fp,0(sp)
 1009570:	dec00104 	addi	sp,sp,4
 1009574:	f800283a 	ret

01009578 <alt_get_errno>:
{
 1009578:	defffe04 	addi	sp,sp,-8
 100957c:	dfc00115 	stw	ra,4(sp)
 1009580:	df000015 	stw	fp,0(sp)
 1009584:	d839883a 	mov	fp,sp
  return ((alt_errno) ? alt_errno() : &errno);
 1009588:	d0a00b17 	ldw	r2,-32724(gp)
 100958c:	10000326 	beq	r2,zero,100959c <alt_get_errno+0x24>
 1009590:	d0a00b17 	ldw	r2,-32724(gp)
 1009594:	103ee83a 	callr	r2
 1009598:	00000106 	br	10095a0 <alt_get_errno+0x28>
 100959c:	d0a0ee04 	addi	r2,gp,-31816
}
 10095a0:	e037883a 	mov	sp,fp
 10095a4:	dfc00117 	ldw	ra,4(sp)
 10095a8:	df000017 	ldw	fp,0(sp)
 10095ac:	dec00204 	addi	sp,sp,8
 10095b0:	f800283a 	ret

010095b4 <close>:
 *
 * ALT_CLOSE is mapped onto the close() system call in alt_syscall.h
 */
 
int ALT_CLOSE (int fildes)
{
 10095b4:	defffb04 	addi	sp,sp,-20
 10095b8:	dfc00415 	stw	ra,16(sp)
 10095bc:	df000315 	stw	fp,12(sp)
 10095c0:	df000304 	addi	fp,sp,12
 10095c4:	e13ffd15 	stw	r4,-12(fp)
   * A common error case is that when the file descriptor was created, the call
   * to open() failed resulting in a negative file descriptor. This is trapped
   * below so that we don't try and process an invalid file descriptor.
   */

  fd = (fildes < 0) ? NULL : &alt_fd_list[fildes];
 10095c8:	e0bffd17 	ldw	r2,-12(fp)
 10095cc:	10000916 	blt	r2,zero,10095f4 <close+0x40>
 10095d0:	e0fffd17 	ldw	r3,-12(fp)
 10095d4:	1805883a 	mov	r2,r3
 10095d8:	1085883a 	add	r2,r2,r2
 10095dc:	10c5883a 	add	r2,r2,r3
 10095e0:	100490ba 	slli	r2,r2,2
 10095e4:	00c04074 	movhi	r3,257
 10095e8:	18f4e504 	addi	r3,r3,-11372
 10095ec:	10c5883a 	add	r2,r2,r3
 10095f0:	00000106 	br	10095f8 <close+0x44>
 10095f4:	0005883a 	mov	r2,zero
 10095f8:	e0bfff15 	stw	r2,-4(fp)

  if (fd)
 10095fc:	e0bfff17 	ldw	r2,-4(fp)
 1009600:	10001926 	beq	r2,zero,1009668 <close+0xb4>
    /*
     * If the associated file system/device has a close function, call it so 
     * that any necessary cleanup code can run.
     */

    rval = (fd->dev->close) ? fd->dev->close(fd) : 0;
 1009604:	e0bfff17 	ldw	r2,-4(fp)
 1009608:	10800017 	ldw	r2,0(r2)
 100960c:	10800417 	ldw	r2,16(r2)
 1009610:	10000626 	beq	r2,zero,100962c <close+0x78>
 1009614:	e0bfff17 	ldw	r2,-4(fp)
 1009618:	10800017 	ldw	r2,0(r2)
 100961c:	10800417 	ldw	r2,16(r2)
 1009620:	e13fff17 	ldw	r4,-4(fp)
 1009624:	103ee83a 	callr	r2
 1009628:	00000106 	br	1009630 <close+0x7c>
 100962c:	0005883a 	mov	r2,zero
 1009630:	e0bffe15 	stw	r2,-8(fp)

    /* Free the file descriptor structure and return. */

    alt_release_fd (fildes);
 1009634:	e13ffd17 	ldw	r4,-12(fp)
 1009638:	1009f900 	call	1009f90 <alt_release_fd>
    if (rval < 0)
 100963c:	e0bffe17 	ldw	r2,-8(fp)
 1009640:	1000070e 	bge	r2,zero,1009660 <close+0xac>
    {
      ALT_ERRNO = -rval;
 1009644:	10095780 	call	1009578 <alt_get_errno>
 1009648:	1007883a 	mov	r3,r2
 100964c:	e0bffe17 	ldw	r2,-8(fp)
 1009650:	0085c83a 	sub	r2,zero,r2
 1009654:	18800015 	stw	r2,0(r3)
      return -1;
 1009658:	00bfffc4 	movi	r2,-1
 100965c:	00000706 	br	100967c <close+0xc8>
    }
    return 0;
 1009660:	0005883a 	mov	r2,zero
 1009664:	00000506 	br	100967c <close+0xc8>
  }
  else
  {
    ALT_ERRNO = EBADFD;
 1009668:	10095780 	call	1009578 <alt_get_errno>
 100966c:	1007883a 	mov	r3,r2
 1009670:	00801444 	movi	r2,81
 1009674:	18800015 	stw	r2,0(r3)
    return -1;
 1009678:	00bfffc4 	movi	r2,-1
  }
}
 100967c:	e037883a 	mov	sp,fp
 1009680:	dfc00117 	ldw	ra,4(sp)
 1009684:	df000017 	ldw	fp,0(sp)
 1009688:	dec00204 	addi	sp,sp,8
 100968c:	f800283a 	ret

01009690 <alt_dcache_flush>:
 *
 * Any dirty lines in the data cache are written back to memory.
 */

void alt_dcache_flush (void* start, alt_u32 len)
{
 1009690:	defffd04 	addi	sp,sp,-12
 1009694:	df000215 	stw	fp,8(sp)
 1009698:	df000204 	addi	fp,sp,8
 100969c:	e13fff15 	stw	r4,-4(fp)
 10096a0:	e17ffe15 	stw	r5,-8(fp)
  {
    ALT_FLUSH_DATA(i);
  }

#endif /* NIOS2_DCACHE_SIZE > 0 */
}
 10096a4:	0001883a 	nop
 10096a8:	e037883a 	mov	sp,fp
 10096ac:	df000017 	ldw	fp,0(sp)
 10096b0:	dec00104 	addi	sp,sp,4
 10096b4:	f800283a 	ret

010096b8 <alt_dev_null_write>:
 * by the alt_dev_null device. It simple discards all data passed to it, and
 * indicates that the data has been successfully transmitted.
 */

static int alt_dev_null_write (alt_fd* fd, const char* ptr, int len)
{
 10096b8:	defffc04 	addi	sp,sp,-16
 10096bc:	df000315 	stw	fp,12(sp)
 10096c0:	df000304 	addi	fp,sp,12
 10096c4:	e13fff15 	stw	r4,-4(fp)
 10096c8:	e17ffe15 	stw	r5,-8(fp)
 10096cc:	e1bffd15 	stw	r6,-12(fp)
  return len;
 10096d0:	e0bffd17 	ldw	r2,-12(fp)
}
 10096d4:	e037883a 	mov	sp,fp
 10096d8:	df000017 	ldw	fp,0(sp)
 10096dc:	dec00104 	addi	sp,sp,4
 10096e0:	f800283a 	ret

010096e4 <alt_get_errno>:
{
 10096e4:	defffe04 	addi	sp,sp,-8
 10096e8:	dfc00115 	stw	ra,4(sp)
 10096ec:	df000015 	stw	fp,0(sp)
 10096f0:	d839883a 	mov	fp,sp
  return ((alt_errno) ? alt_errno() : &errno);
 10096f4:	d0a00b17 	ldw	r2,-32724(gp)
 10096f8:	10000326 	beq	r2,zero,1009708 <alt_get_errno+0x24>
 10096fc:	d0a00b17 	ldw	r2,-32724(gp)
 1009700:	103ee83a 	callr	r2
 1009704:	00000106 	br	100970c <alt_get_errno+0x28>
 1009708:	d0a0ee04 	addi	r2,gp,-31816
}
 100970c:	e037883a 	mov	sp,fp
 1009710:	dfc00117 	ldw	ra,4(sp)
 1009714:	df000017 	ldw	fp,0(sp)
 1009718:	dec00204 	addi	sp,sp,8
 100971c:	f800283a 	ret

01009720 <alt_dev_llist_insert>:
/*
 *
 */

int alt_dev_llist_insert (alt_dev_llist* dev, alt_llist* list)
{
 1009720:	defffa04 	addi	sp,sp,-24
 1009724:	dfc00515 	stw	ra,20(sp)
 1009728:	df000415 	stw	fp,16(sp)
 100972c:	df000404 	addi	fp,sp,16
 1009730:	e13ffd15 	stw	r4,-12(fp)
 1009734:	e17ffc15 	stw	r5,-16(fp)
  /*
   * check that the device exists, and that it has a valid name.
   */

  if (!dev || !dev->name)
 1009738:	e0bffd17 	ldw	r2,-12(fp)
 100973c:	10000326 	beq	r2,zero,100974c <alt_dev_llist_insert+0x2c>
 1009740:	e0bffd17 	ldw	r2,-12(fp)
 1009744:	10800217 	ldw	r2,8(r2)
 1009748:	1000061e 	bne	r2,zero,1009764 <alt_dev_llist_insert+0x44>
  {
    ALT_ERRNO = EINVAL;
 100974c:	10096e40 	call	10096e4 <alt_get_errno>
 1009750:	1007883a 	mov	r3,r2
 1009754:	00800584 	movi	r2,22
 1009758:	18800015 	stw	r2,0(r3)
    return -EINVAL;
 100975c:	00bffa84 	movi	r2,-22
 1009760:	00001306 	br	10097b0 <alt_dev_llist_insert+0x90>
  
  /*
   * register the device.
   */
  
  alt_llist_insert(list, &dev->llist);
 1009764:	e0bffd17 	ldw	r2,-12(fp)
 1009768:	e0fffc17 	ldw	r3,-16(fp)
 100976c:	e0ffff15 	stw	r3,-4(fp)
 1009770:	e0bffe15 	stw	r2,-8(fp)
 */

static ALT_INLINE void ALT_ALWAYS_INLINE alt_llist_insert(alt_llist* list, 
                alt_llist* entry)
{
  entry->previous = list;
 1009774:	e0bffe17 	ldw	r2,-8(fp)
 1009778:	e0ffff17 	ldw	r3,-4(fp)
 100977c:	10c00115 	stw	r3,4(r2)
  entry->next     = list->next;
 1009780:	e0bfff17 	ldw	r2,-4(fp)
 1009784:	10c00017 	ldw	r3,0(r2)
 1009788:	e0bffe17 	ldw	r2,-8(fp)
 100978c:	10c00015 	stw	r3,0(r2)

  list->next->previous = entry;
 1009790:	e0bfff17 	ldw	r2,-4(fp)
 1009794:	10800017 	ldw	r2,0(r2)
 1009798:	e0fffe17 	ldw	r3,-8(fp)
 100979c:	10c00115 	stw	r3,4(r2)
  list->next           = entry;
 10097a0:	e0bfff17 	ldw	r2,-4(fp)
 10097a4:	e0fffe17 	ldw	r3,-8(fp)
 10097a8:	10c00015 	stw	r3,0(r2)

  return 0;  
 10097ac:	0005883a 	mov	r2,zero
}
 10097b0:	e037883a 	mov	sp,fp
 10097b4:	dfc00117 	ldw	ra,4(sp)
 10097b8:	df000017 	ldw	fp,0(sp)
 10097bc:	dec00204 	addi	sp,sp,8
 10097c0:	f800283a 	ret

010097c4 <_do_ctors>:
/*
 * Run the C++ static constructors.
 */

void _do_ctors(void)
{
 10097c4:	defffd04 	addi	sp,sp,-12
 10097c8:	dfc00215 	stw	ra,8(sp)
 10097cc:	df000115 	stw	fp,4(sp)
 10097d0:	df000104 	addi	fp,sp,4
  constructor* ctor;

  for (ctor = &__CTOR_END__[-1]; ctor >= __CTOR_LIST__; ctor--)
 10097d4:	00804074 	movhi	r2,257
 10097d8:	10ab4d04 	addi	r2,r2,-21196
 10097dc:	e0bfff15 	stw	r2,-4(fp)
 10097e0:	00000606 	br	10097fc <_do_ctors+0x38>
        (*ctor) (); 
 10097e4:	e0bfff17 	ldw	r2,-4(fp)
 10097e8:	10800017 	ldw	r2,0(r2)
 10097ec:	103ee83a 	callr	r2
  for (ctor = &__CTOR_END__[-1]; ctor >= __CTOR_LIST__; ctor--)
 10097f0:	e0bfff17 	ldw	r2,-4(fp)
 10097f4:	10bfff04 	addi	r2,r2,-4
 10097f8:	e0bfff15 	stw	r2,-4(fp)
 10097fc:	e0ffff17 	ldw	r3,-4(fp)
 1009800:	00804074 	movhi	r2,257
 1009804:	10ab4e04 	addi	r2,r2,-21192
 1009808:	18bff62e 	bgeu	r3,r2,10097e4 <_do_ctors+0x20>
}
 100980c:	0001883a 	nop
 1009810:	e037883a 	mov	sp,fp
 1009814:	dfc00117 	ldw	ra,4(sp)
 1009818:	df000017 	ldw	fp,0(sp)
 100981c:	dec00204 	addi	sp,sp,8
 1009820:	f800283a 	ret

01009824 <_do_dtors>:
/*
 * Run the C++ static destructors.
 */

void _do_dtors(void)
{
 1009824:	defffd04 	addi	sp,sp,-12
 1009828:	dfc00215 	stw	ra,8(sp)
 100982c:	df000115 	stw	fp,4(sp)
 1009830:	df000104 	addi	fp,sp,4
  destructor* dtor;

  for (dtor = &__DTOR_END__[-1]; dtor >= __DTOR_LIST__; dtor--)
 1009834:	00804074 	movhi	r2,257
 1009838:	10ab4d04 	addi	r2,r2,-21196
 100983c:	e0bfff15 	stw	r2,-4(fp)
 1009840:	00000606 	br	100985c <_do_dtors+0x38>
        (*dtor) (); 
 1009844:	e0bfff17 	ldw	r2,-4(fp)
 1009848:	10800017 	ldw	r2,0(r2)
 100984c:	103ee83a 	callr	r2
  for (dtor = &__DTOR_END__[-1]; dtor >= __DTOR_LIST__; dtor--)
 1009850:	e0bfff17 	ldw	r2,-4(fp)
 1009854:	10bfff04 	addi	r2,r2,-4
 1009858:	e0bfff15 	stw	r2,-4(fp)
 100985c:	e0ffff17 	ldw	r3,-4(fp)
 1009860:	00804074 	movhi	r2,257
 1009864:	10ab4e04 	addi	r2,r2,-21192
 1009868:	18bff62e 	bgeu	r3,r2,1009844 <_do_dtors+0x20>
}
 100986c:	0001883a 	nop
 1009870:	e037883a 	mov	sp,fp
 1009874:	dfc00117 	ldw	ra,4(sp)
 1009878:	df000017 	ldw	fp,0(sp)
 100987c:	dec00204 	addi	sp,sp,8
 1009880:	f800283a 	ret

01009884 <alt_find_dev>:
 * "name" must be an exact match for the devices registered name for a match to
 * be found.
 */
 
alt_dev* alt_find_dev(const char* name, alt_llist* llist)
{
 1009884:	defffa04 	addi	sp,sp,-24
 1009888:	dfc00515 	stw	ra,20(sp)
 100988c:	df000415 	stw	fp,16(sp)
 1009890:	df000404 	addi	fp,sp,16
 1009894:	e13ffd15 	stw	r4,-12(fp)
 1009898:	e17ffc15 	stw	r5,-16(fp)
  alt_dev* next = (alt_dev*) llist->next;
 100989c:	e0bffc17 	ldw	r2,-16(fp)
 10098a0:	10800017 	ldw	r2,0(r2)
 10098a4:	e0bfff15 	stw	r2,-4(fp)
  alt_32 len;

  len  = strlen(name) + 1;
 10098a8:	e13ffd17 	ldw	r4,-12(fp)
 10098ac:	1002cf00 	call	1002cf0 <strlen>
 10098b0:	10800044 	addi	r2,r2,1
 10098b4:	e0bffe15 	stw	r2,-8(fp)
  /*
   * Check each list entry in turn, until a match is found, or we reach the
   * end of the list (i.e. next winds up pointing back to the list head).
   */ 

  while (next != (alt_dev*) llist)
 10098b8:	00000d06 	br	10098f0 <alt_find_dev+0x6c>
    /* 
     * memcmp() is used here rather than strcmp() in order to reduce the size
     * of the executable.
     */

    if (!memcmp (next->name, name, len))
 10098bc:	e0bfff17 	ldw	r2,-4(fp)
 10098c0:	10800217 	ldw	r2,8(r2)
 10098c4:	e0fffe17 	ldw	r3,-8(fp)
 10098c8:	180d883a 	mov	r6,r3
 10098cc:	e17ffd17 	ldw	r5,-12(fp)
 10098d0:	1009883a 	mov	r4,r2
 10098d4:	100a5fc0 	call	100a5fc <memcmp>
 10098d8:	1000021e 	bne	r2,zero,10098e4 <alt_find_dev+0x60>
    {
      /* match found */

      return next;
 10098dc:	e0bfff17 	ldw	r2,-4(fp)
 10098e0:	00000706 	br	1009900 <alt_find_dev+0x7c>
    }
    next = (alt_dev*) next->llist.next;
 10098e4:	e0bfff17 	ldw	r2,-4(fp)
 10098e8:	10800017 	ldw	r2,0(r2)
 10098ec:	e0bfff15 	stw	r2,-4(fp)
  while (next != (alt_dev*) llist)
 10098f0:	e0ffff17 	ldw	r3,-4(fp)
 10098f4:	e0bffc17 	ldw	r2,-16(fp)
 10098f8:	18bff01e 	bne	r3,r2,10098bc <alt_find_dev+0x38>
  }
  
  /* No match found */
  
  return NULL;
 10098fc:	0005883a 	mov	r2,zero
}
 1009900:	e037883a 	mov	sp,fp
 1009904:	dfc00117 	ldw	ra,4(sp)
 1009908:	df000017 	ldw	fp,0(sp)
 100990c:	dec00204 	addi	sp,sp,8
 1009910:	f800283a 	ret

01009914 <alt_icache_flush_all>:
/*
 * alt_icache_flush_all() is called to flush the entire instruction cache.
 */

void alt_icache_flush_all (void)
{
 1009914:	deffff04 	addi	sp,sp,-4
 1009918:	df000015 	stw	fp,0(sp)
 100991c:	d839883a 	mov	fp,sp
#if NIOS2_ICACHE_SIZE > 0
  alt_icache_flush (0, NIOS2_ICACHE_SIZE);
#endif
}
 1009920:	0001883a 	nop
 1009924:	e037883a 	mov	sp,fp
 1009928:	df000017 	ldw	fp,0(sp)
 100992c:	dec00104 	addi	sp,sp,4
 1009930:	f800283a 	ret

01009934 <alt_ic_isr_register>:
  * @param irq              IRQ number
  * @return                 0 if successful, else error (-1)
  */
int alt_ic_isr_register(alt_u32 ic_id, alt_u32 irq, alt_isr_func isr, 
  void *isr_context, void *flags)
{
 1009934:	defff904 	addi	sp,sp,-28
 1009938:	dfc00615 	stw	ra,24(sp)
 100993c:	df000515 	stw	fp,20(sp)
 1009940:	df000504 	addi	fp,sp,20
 1009944:	e13fff15 	stw	r4,-4(fp)
 1009948:	e17ffe15 	stw	r5,-8(fp)
 100994c:	e1bffd15 	stw	r6,-12(fp)
 1009950:	e1fffc15 	stw	r7,-16(fp)
    return alt_iic_isr_register(ic_id, irq, isr, isr_context, flags);
 1009954:	e0800217 	ldw	r2,8(fp)
 1009958:	d8800015 	stw	r2,0(sp)
 100995c:	e1fffc17 	ldw	r7,-16(fp)
 1009960:	e1bffd17 	ldw	r6,-12(fp)
 1009964:	e17ffe17 	ldw	r5,-8(fp)
 1009968:	e13fff17 	ldw	r4,-4(fp)
 100996c:	1009ae40 	call	1009ae4 <alt_iic_isr_register>
}  
 1009970:	e037883a 	mov	sp,fp
 1009974:	dfc00117 	ldw	ra,4(sp)
 1009978:	df000017 	ldw	fp,0(sp)
 100997c:	dec00204 	addi	sp,sp,8
 1009980:	f800283a 	ret

01009984 <alt_ic_irq_enable>:
  * @param ic_id            Ignored.
  * @param irq              IRQ number
  * @return                 0 if successful, else error (-1)
  */
int alt_ic_irq_enable (alt_u32 ic_id, alt_u32 irq)
{
 1009984:	defff904 	addi	sp,sp,-28
 1009988:	df000615 	stw	fp,24(sp)
 100998c:	df000604 	addi	fp,sp,24
 1009990:	e13ffb15 	stw	r4,-20(fp)
 1009994:	e17ffa15 	stw	r5,-24(fp)
 1009998:	e0bffa17 	ldw	r2,-24(fp)
 100999c:	e0bfff15 	stw	r2,-4(fp)
  NIOS2_READ_STATUS (context);
 10099a0:	0005303a 	rdctl	r2,status
 10099a4:	e0bffe15 	stw	r2,-8(fp)
  NIOS2_WRITE_STATUS (context & ~NIOS2_STATUS_PIE_MSK);
 10099a8:	e0fffe17 	ldw	r3,-8(fp)
 10099ac:	00bfff84 	movi	r2,-2
 10099b0:	1884703a 	and	r2,r3,r2
 10099b4:	1001703a 	wrctl	status,r2
  return context;
 10099b8:	e0bffe17 	ldw	r2,-8(fp)
static ALT_INLINE int ALT_ALWAYS_INLINE alt_irq_enable (alt_u32 id)
{
  alt_irq_context  status;
  extern volatile alt_u32 alt_irq_active;

  status = alt_irq_disable_all ();
 10099bc:	e0bffd15 	stw	r2,-12(fp)

  alt_irq_active |= (1 << id);
 10099c0:	00c00044 	movi	r3,1
 10099c4:	e0bfff17 	ldw	r2,-4(fp)
 10099c8:	1884983a 	sll	r2,r3,r2
 10099cc:	1007883a 	mov	r3,r2
 10099d0:	d0a0f317 	ldw	r2,-31796(gp)
 10099d4:	1884b03a 	or	r2,r3,r2
 10099d8:	d0a0f315 	stw	r2,-31796(gp)
  NIOS2_WRITE_IENABLE (alt_irq_active);
 10099dc:	d0a0f317 	ldw	r2,-31796(gp)
 10099e0:	100170fa 	wrctl	ienable,r2
 10099e4:	e0bffd17 	ldw	r2,-12(fp)
 10099e8:	e0bffc15 	stw	r2,-16(fp)
  NIOS2_WRITE_STATUS (context);
 10099ec:	e0bffc17 	ldw	r2,-16(fp)
 10099f0:	1001703a 	wrctl	status,r2

  alt_irq_enable_all(status);

  return 0;
 10099f4:	0005883a 	mov	r2,zero
    return alt_irq_enable(irq);
 10099f8:	0001883a 	nop
}
 10099fc:	e037883a 	mov	sp,fp
 1009a00:	df000017 	ldw	fp,0(sp)
 1009a04:	dec00104 	addi	sp,sp,4
 1009a08:	f800283a 	ret

01009a0c <alt_ic_irq_disable>:
  * @param ic_id            Ignored.
  * @param irq              IRQ number
  * @return                 0 if successful, else error (-1)
  */
int alt_ic_irq_disable(alt_u32 ic_id, alt_u32 irq)
{
 1009a0c:	defff904 	addi	sp,sp,-28
 1009a10:	df000615 	stw	fp,24(sp)
 1009a14:	df000604 	addi	fp,sp,24
 1009a18:	e13ffb15 	stw	r4,-20(fp)
 1009a1c:	e17ffa15 	stw	r5,-24(fp)
 1009a20:	e0bffa17 	ldw	r2,-24(fp)
 1009a24:	e0bfff15 	stw	r2,-4(fp)
  NIOS2_READ_STATUS (context);
 1009a28:	0005303a 	rdctl	r2,status
 1009a2c:	e0bffe15 	stw	r2,-8(fp)
  NIOS2_WRITE_STATUS (context & ~NIOS2_STATUS_PIE_MSK);
 1009a30:	e0fffe17 	ldw	r3,-8(fp)
 1009a34:	00bfff84 	movi	r2,-2
 1009a38:	1884703a 	and	r2,r3,r2
 1009a3c:	1001703a 	wrctl	status,r2
  return context;
 1009a40:	e0bffe17 	ldw	r2,-8(fp)
  status = alt_irq_disable_all ();
 1009a44:	e0bffd15 	stw	r2,-12(fp)
  alt_irq_active &= ~(1 << id);
 1009a48:	00c00044 	movi	r3,1
 1009a4c:	e0bfff17 	ldw	r2,-4(fp)
 1009a50:	1884983a 	sll	r2,r3,r2
 1009a54:	0084303a 	nor	r2,zero,r2
 1009a58:	1007883a 	mov	r3,r2
 1009a5c:	d0a0f317 	ldw	r2,-31796(gp)
 1009a60:	1884703a 	and	r2,r3,r2
 1009a64:	d0a0f315 	stw	r2,-31796(gp)
  NIOS2_WRITE_IENABLE (alt_irq_active);
 1009a68:	d0a0f317 	ldw	r2,-31796(gp)
 1009a6c:	100170fa 	wrctl	ienable,r2
 1009a70:	e0bffd17 	ldw	r2,-12(fp)
 1009a74:	e0bffc15 	stw	r2,-16(fp)
  NIOS2_WRITE_STATUS (context);
 1009a78:	e0bffc17 	ldw	r2,-16(fp)
 1009a7c:	1001703a 	wrctl	status,r2
  return 0;
 1009a80:	0005883a 	mov	r2,zero
    return alt_irq_disable(irq);
 1009a84:	0001883a 	nop
}
 1009a88:	e037883a 	mov	sp,fp
 1009a8c:	df000017 	ldw	fp,0(sp)
 1009a90:	dec00104 	addi	sp,sp,4
 1009a94:	f800283a 	ret

01009a98 <alt_ic_irq_enabled>:
  * @param irq              IRQ number
  * @return                 Zero if corresponding interrupt is disabled and
  *                         non-zero otherwise.
  */
alt_u32 alt_ic_irq_enabled(alt_u32 ic_id, alt_u32 irq)
{
 1009a98:	defffc04 	addi	sp,sp,-16
 1009a9c:	df000315 	stw	fp,12(sp)
 1009aa0:	df000304 	addi	fp,sp,12
 1009aa4:	e13ffe15 	stw	r4,-8(fp)
 1009aa8:	e17ffd15 	stw	r5,-12(fp)
    alt_u32 irq_enabled;

    NIOS2_READ_IENABLE(irq_enabled);
 1009aac:	000530fa 	rdctl	r2,ienable
 1009ab0:	e0bfff15 	stw	r2,-4(fp)

    return (irq_enabled & (1 << irq)) ? 1: 0;
 1009ab4:	00c00044 	movi	r3,1
 1009ab8:	e0bffd17 	ldw	r2,-12(fp)
 1009abc:	1884983a 	sll	r2,r3,r2
 1009ac0:	1007883a 	mov	r3,r2
 1009ac4:	e0bfff17 	ldw	r2,-4(fp)
 1009ac8:	1884703a 	and	r2,r3,r2
 1009acc:	1004c03a 	cmpne	r2,r2,zero
 1009ad0:	10803fcc 	andi	r2,r2,255
}
 1009ad4:	e037883a 	mov	sp,fp
 1009ad8:	df000017 	ldw	fp,0(sp)
 1009adc:	dec00104 	addi	sp,sp,4
 1009ae0:	f800283a 	ret

01009ae4 <alt_iic_isr_register>:
  * @param flags            
  * @return                 0 if successful, else error (-1)
  */
int alt_iic_isr_register(alt_u32 ic_id, alt_u32 irq, alt_isr_func isr, 
  void *isr_context, void *flags)
{
 1009ae4:	defff504 	addi	sp,sp,-44
 1009ae8:	dfc00a15 	stw	ra,40(sp)
 1009aec:	df000915 	stw	fp,36(sp)
 1009af0:	df000904 	addi	fp,sp,36
 1009af4:	e13ffa15 	stw	r4,-24(fp)
 1009af8:	e17ff915 	stw	r5,-28(fp)
 1009afc:	e1bff815 	stw	r6,-32(fp)
 1009b00:	e1fff715 	stw	r7,-36(fp)
  int rc = -EINVAL;  
 1009b04:	00bffa84 	movi	r2,-22
 1009b08:	e0bfff15 	stw	r2,-4(fp)
  int id = irq;             /* IRQ interpreted as the interrupt ID. */
 1009b0c:	e0bff917 	ldw	r2,-28(fp)
 1009b10:	e0bffe15 	stw	r2,-8(fp)
  alt_irq_context status;

  if (id < ALT_NIRQ)
 1009b14:	e0bffe17 	ldw	r2,-8(fp)
 1009b18:	10800808 	cmpgei	r2,r2,32
 1009b1c:	1000241e 	bne	r2,zero,1009bb0 <alt_iic_isr_register+0xcc>
  NIOS2_READ_STATUS (context);
 1009b20:	0005303a 	rdctl	r2,status
 1009b24:	e0bffc15 	stw	r2,-16(fp)
  NIOS2_WRITE_STATUS (context & ~NIOS2_STATUS_PIE_MSK);
 1009b28:	e0fffc17 	ldw	r3,-16(fp)
 1009b2c:	00bfff84 	movi	r2,-2
 1009b30:	1884703a 	and	r2,r3,r2
 1009b34:	1001703a 	wrctl	status,r2
  return context;
 1009b38:	e0bffc17 	ldw	r2,-16(fp)
     * interrupts are disabled while the handler tables are updated to ensure
     * that an interrupt doesn't occur while the tables are in an inconsistant
     * state.
     */

    status = alt_irq_disable_all();
 1009b3c:	e0bffd15 	stw	r2,-12(fp)

    alt_irq[id].handler = isr;
 1009b40:	e0bffe17 	ldw	r2,-8(fp)
 1009b44:	100890fa 	slli	r4,r2,3
 1009b48:	e0fff817 	ldw	r3,-32(fp)
 1009b4c:	00804074 	movhi	r2,257
 1009b50:	2085883a 	add	r2,r4,r2
 1009b54:	10f9e815 	stw	r3,-6240(r2)
    alt_irq[id].context = isr_context;
 1009b58:	e0bffe17 	ldw	r2,-8(fp)
 1009b5c:	100890fa 	slli	r4,r2,3
 1009b60:	e0fff717 	ldw	r3,-36(fp)
 1009b64:	00804074 	movhi	r2,257
 1009b68:	2085883a 	add	r2,r4,r2
 1009b6c:	10f9e915 	stw	r3,-6236(r2)

    rc = (isr) ? alt_ic_irq_enable(ic_id, id) : alt_ic_irq_disable(ic_id, id);
 1009b70:	e0bff817 	ldw	r2,-32(fp)
 1009b74:	10000526 	beq	r2,zero,1009b8c <alt_iic_isr_register+0xa8>
 1009b78:	e0bffe17 	ldw	r2,-8(fp)
 1009b7c:	100b883a 	mov	r5,r2
 1009b80:	e13ffa17 	ldw	r4,-24(fp)
 1009b84:	10099840 	call	1009984 <alt_ic_irq_enable>
 1009b88:	00000406 	br	1009b9c <alt_iic_isr_register+0xb8>
 1009b8c:	e0bffe17 	ldw	r2,-8(fp)
 1009b90:	100b883a 	mov	r5,r2
 1009b94:	e13ffa17 	ldw	r4,-24(fp)
 1009b98:	1009a0c0 	call	1009a0c <alt_ic_irq_disable>
 1009b9c:	e0bfff15 	stw	r2,-4(fp)
 1009ba0:	e0bffd17 	ldw	r2,-12(fp)
 1009ba4:	e0bffb15 	stw	r2,-20(fp)
  NIOS2_WRITE_STATUS (context);
 1009ba8:	e0bffb17 	ldw	r2,-20(fp)
 1009bac:	1001703a 	wrctl	status,r2

    alt_irq_enable_all(status);
  }

  return rc; 
 1009bb0:	e0bfff17 	ldw	r2,-4(fp)
}
 1009bb4:	e037883a 	mov	sp,fp
 1009bb8:	dfc00117 	ldw	ra,4(sp)
 1009bbc:	df000017 	ldw	fp,0(sp)
 1009bc0:	dec00204 	addi	sp,sp,8
 1009bc4:	f800283a 	ret

01009bc8 <alt_open_fd>:
 * If the device can not be succesfully opened, then the input file descriptor
 * remains unchanged.
 */

static void alt_open_fd(alt_fd* fd, const char* name, int flags, int mode)
{
 1009bc8:	defff904 	addi	sp,sp,-28
 1009bcc:	dfc00615 	stw	ra,24(sp)
 1009bd0:	df000515 	stw	fp,20(sp)
 1009bd4:	df000504 	addi	fp,sp,20
 1009bd8:	e13ffe15 	stw	r4,-8(fp)
 1009bdc:	e17ffd15 	stw	r5,-12(fp)
 1009be0:	e1bffc15 	stw	r6,-16(fp)
 1009be4:	e1fffb15 	stw	r7,-20(fp)
  int old;

  old = open (name, flags, mode);
 1009be8:	e1bffb17 	ldw	r6,-20(fp)
 1009bec:	e17ffc17 	ldw	r5,-16(fp)
 1009bf0:	e13ffd17 	ldw	r4,-12(fp)
 1009bf4:	1009e300 	call	1009e30 <open>
 1009bf8:	e0bfff15 	stw	r2,-4(fp)

  if (old >= 0)
 1009bfc:	e0bfff17 	ldw	r2,-4(fp)
 1009c00:	10002016 	blt	r2,zero,1009c84 <alt_open_fd+0xbc>
  {
    fd->dev      = alt_fd_list[old].dev;
 1009c04:	e0ffff17 	ldw	r3,-4(fp)
 1009c08:	1805883a 	mov	r2,r3
 1009c0c:	1085883a 	add	r2,r2,r2
 1009c10:	10c5883a 	add	r2,r2,r3
 1009c14:	100490ba 	slli	r2,r2,2
 1009c18:	00c04074 	movhi	r3,257
 1009c1c:	10c7883a 	add	r3,r2,r3
 1009c20:	18f4e517 	ldw	r3,-11372(r3)
 1009c24:	e0bffe17 	ldw	r2,-8(fp)
 1009c28:	10c00015 	stw	r3,0(r2)
    fd->priv     = alt_fd_list[old].priv;
 1009c2c:	e0ffff17 	ldw	r3,-4(fp)
 1009c30:	1805883a 	mov	r2,r3
 1009c34:	1085883a 	add	r2,r2,r2
 1009c38:	10c5883a 	add	r2,r2,r3
 1009c3c:	100490ba 	slli	r2,r2,2
 1009c40:	00c04074 	movhi	r3,257
 1009c44:	10c7883a 	add	r3,r2,r3
 1009c48:	18f4e617 	ldw	r3,-11368(r3)
 1009c4c:	e0bffe17 	ldw	r2,-8(fp)
 1009c50:	10c00115 	stw	r3,4(r2)
    fd->fd_flags = alt_fd_list[old].fd_flags;
 1009c54:	e0ffff17 	ldw	r3,-4(fp)
 1009c58:	1805883a 	mov	r2,r3
 1009c5c:	1085883a 	add	r2,r2,r2
 1009c60:	10c5883a 	add	r2,r2,r3
 1009c64:	100490ba 	slli	r2,r2,2
 1009c68:	00c04074 	movhi	r3,257
 1009c6c:	10c7883a 	add	r3,r2,r3
 1009c70:	18f4e717 	ldw	r3,-11364(r3)
 1009c74:	e0bffe17 	ldw	r2,-8(fp)
 1009c78:	10c00215 	stw	r3,8(r2)

    alt_release_fd (old);
 1009c7c:	e13fff17 	ldw	r4,-4(fp)
 1009c80:	1009f900 	call	1009f90 <alt_release_fd>
  }
} 
 1009c84:	0001883a 	nop
 1009c88:	e037883a 	mov	sp,fp
 1009c8c:	dfc00117 	ldw	ra,4(sp)
 1009c90:	df000017 	ldw	fp,0(sp)
 1009c94:	dec00204 	addi	sp,sp,8
 1009c98:	f800283a 	ret

01009c9c <alt_io_redirect>:
 */
 
void alt_io_redirect(const char* stdout_dev, 
                     const char* stdin_dev, 
                     const char* stderr_dev)
{
 1009c9c:	defffb04 	addi	sp,sp,-20
 1009ca0:	dfc00415 	stw	ra,16(sp)
 1009ca4:	df000315 	stw	fp,12(sp)
 1009ca8:	df000304 	addi	fp,sp,12
 1009cac:	e13fff15 	stw	r4,-4(fp)
 1009cb0:	e17ffe15 	stw	r5,-8(fp)
 1009cb4:	e1bffd15 	stw	r6,-12(fp)
  /* Redirect the channels */

  alt_open_fd (&alt_fd_list[STDOUT_FILENO], stdout_dev, O_WRONLY, 0777);
 1009cb8:	01c07fc4 	movi	r7,511
 1009cbc:	01800044 	movi	r6,1
 1009cc0:	e17fff17 	ldw	r5,-4(fp)
 1009cc4:	01004074 	movhi	r4,257
 1009cc8:	2134e804 	addi	r4,r4,-11360
 1009ccc:	1009bc80 	call	1009bc8 <alt_open_fd>
  alt_open_fd (&alt_fd_list[STDIN_FILENO], stdin_dev, O_RDONLY, 0777);
 1009cd0:	01c07fc4 	movi	r7,511
 1009cd4:	000d883a 	mov	r6,zero
 1009cd8:	e17ffe17 	ldw	r5,-8(fp)
 1009cdc:	01004074 	movhi	r4,257
 1009ce0:	2134e504 	addi	r4,r4,-11372
 1009ce4:	1009bc80 	call	1009bc8 <alt_open_fd>
  alt_open_fd (&alt_fd_list[STDERR_FILENO], stderr_dev, O_WRONLY, 0777);
 1009ce8:	01c07fc4 	movi	r7,511
 1009cec:	01800044 	movi	r6,1
 1009cf0:	e17ffd17 	ldw	r5,-12(fp)
 1009cf4:	01004074 	movhi	r4,257
 1009cf8:	2134eb04 	addi	r4,r4,-11348
 1009cfc:	1009bc80 	call	1009bc8 <alt_open_fd>
}  
 1009d00:	0001883a 	nop
 1009d04:	e037883a 	mov	sp,fp
 1009d08:	dfc00117 	ldw	ra,4(sp)
 1009d0c:	df000017 	ldw	fp,0(sp)
 1009d10:	dec00204 	addi	sp,sp,8
 1009d14:	f800283a 	ret

01009d18 <alt_get_errno>:
{
 1009d18:	defffe04 	addi	sp,sp,-8
 1009d1c:	dfc00115 	stw	ra,4(sp)
 1009d20:	df000015 	stw	fp,0(sp)
 1009d24:	d839883a 	mov	fp,sp
  return ((alt_errno) ? alt_errno() : &errno);
 1009d28:	d0a00b17 	ldw	r2,-32724(gp)
 1009d2c:	10000326 	beq	r2,zero,1009d3c <alt_get_errno+0x24>
 1009d30:	d0a00b17 	ldw	r2,-32724(gp)
 1009d34:	103ee83a 	callr	r2
 1009d38:	00000106 	br	1009d40 <alt_get_errno+0x28>
 1009d3c:	d0a0ee04 	addi	r2,gp,-31816
}
 1009d40:	e037883a 	mov	sp,fp
 1009d44:	dfc00117 	ldw	ra,4(sp)
 1009d48:	df000017 	ldw	fp,0(sp)
 1009d4c:	dec00204 	addi	sp,sp,8
 1009d50:	f800283a 	ret

01009d54 <alt_file_locked>:
 * performed for devices. Filesystems are required to handle the ioctl() call
 * themselves, and report the error from the filesystems open() function. 
 */ 

static int alt_file_locked (alt_fd* fd)
{
 1009d54:	defffd04 	addi	sp,sp,-12
 1009d58:	df000215 	stw	fp,8(sp)
 1009d5c:	df000204 	addi	fp,sp,8
 1009d60:	e13ffe15 	stw	r4,-8(fp)

  /*
   * Mark the file descriptor as belonging to a device.
   */

  fd->fd_flags |= ALT_FD_DEV;
 1009d64:	e0bffe17 	ldw	r2,-8(fp)
 1009d68:	10800217 	ldw	r2,8(r2)
 1009d6c:	10d00034 	orhi	r3,r2,16384
 1009d70:	e0bffe17 	ldw	r2,-8(fp)
 1009d74:	10c00215 	stw	r3,8(r2)
  /*
   * Loop through all current file descriptors searching for one that's locked
   * for exclusive access. If a match is found, generate an error.
   */

  for (i = 0; i <= alt_max_fd; i++)
 1009d78:	e03fff15 	stw	zero,-4(fp)
 1009d7c:	00002306 	br	1009e0c <alt_file_locked+0xb8>
  {
    if ((alt_fd_list[i].dev == fd->dev) &&
 1009d80:	e0ffff17 	ldw	r3,-4(fp)
 1009d84:	1805883a 	mov	r2,r3
 1009d88:	1085883a 	add	r2,r2,r2
 1009d8c:	10c5883a 	add	r2,r2,r3
 1009d90:	100490ba 	slli	r2,r2,2
 1009d94:	00c04074 	movhi	r3,257
 1009d98:	10c7883a 	add	r3,r2,r3
 1009d9c:	18f4e517 	ldw	r3,-11372(r3)
 1009da0:	e0bffe17 	ldw	r2,-8(fp)
 1009da4:	10800017 	ldw	r2,0(r2)
 1009da8:	1880151e 	bne	r3,r2,1009e00 <alt_file_locked+0xac>
        (alt_fd_list[i].fd_flags & ALT_FD_EXCL) &&
 1009dac:	e0ffff17 	ldw	r3,-4(fp)
 1009db0:	1805883a 	mov	r2,r3
 1009db4:	1085883a 	add	r2,r2,r2
 1009db8:	10c5883a 	add	r2,r2,r3
 1009dbc:	100490ba 	slli	r2,r2,2
 1009dc0:	00c04074 	movhi	r3,257
 1009dc4:	10c7883a 	add	r3,r2,r3
 1009dc8:	18b4e717 	ldw	r2,-11364(r3)
    if ((alt_fd_list[i].dev == fd->dev) &&
 1009dcc:	10000c0e 	bge	r2,zero,1009e00 <alt_file_locked+0xac>
        (&alt_fd_list[i] != fd))
 1009dd0:	e0ffff17 	ldw	r3,-4(fp)
 1009dd4:	1805883a 	mov	r2,r3
 1009dd8:	1085883a 	add	r2,r2,r2
 1009ddc:	10c5883a 	add	r2,r2,r3
 1009de0:	100490ba 	slli	r2,r2,2
 1009de4:	00c04074 	movhi	r3,257
 1009de8:	18f4e504 	addi	r3,r3,-11372
 1009dec:	10c5883a 	add	r2,r2,r3
        (alt_fd_list[i].fd_flags & ALT_FD_EXCL) &&
 1009df0:	e0fffe17 	ldw	r3,-8(fp)
 1009df4:	18800226 	beq	r3,r2,1009e00 <alt_file_locked+0xac>
    {
      return -EACCES;
 1009df8:	00bffcc4 	movi	r2,-13
 1009dfc:	00000806 	br	1009e20 <alt_file_locked+0xcc>
  for (i = 0; i <= alt_max_fd; i++)
 1009e00:	e0bfff17 	ldw	r2,-4(fp)
 1009e04:	10800044 	addi	r2,r2,1
 1009e08:	e0bfff15 	stw	r2,-4(fp)
 1009e0c:	d0a00a17 	ldw	r2,-32728(gp)
 1009e10:	1007883a 	mov	r3,r2
 1009e14:	e0bfff17 	ldw	r2,-4(fp)
 1009e18:	18bfd92e 	bgeu	r3,r2,1009d80 <alt_file_locked+0x2c>
    }
  }
  
  /* The device is not locked */
 
  return 0;
 1009e1c:	0005883a 	mov	r2,zero
}
 1009e20:	e037883a 	mov	sp,fp
 1009e24:	df000017 	ldw	fp,0(sp)
 1009e28:	dec00104 	addi	sp,sp,4
 1009e2c:	f800283a 	ret

01009e30 <open>:
 *
 * ALT_OPEN is mapped onto the open() system call in alt_syscall.h
 */
 
int ALT_OPEN (const char* file, int flags, int mode)
{ 
 1009e30:	defff604 	addi	sp,sp,-40
 1009e34:	dfc00915 	stw	ra,36(sp)
 1009e38:	df000815 	stw	fp,32(sp)
 1009e3c:	df000804 	addi	fp,sp,32
 1009e40:	e13ffa15 	stw	r4,-24(fp)
 1009e44:	e17ff915 	stw	r5,-28(fp)
 1009e48:	e1bff815 	stw	r6,-32(fp)
  alt_dev* dev;
  alt_fd*  fd;
  int index  = -1;
 1009e4c:	00bfffc4 	movi	r2,-1
 1009e50:	e0bffe15 	stw	r2,-8(fp)
  int status = -ENODEV;
 1009e54:	00bffb44 	movi	r2,-19
 1009e58:	e0bffd15 	stw	r2,-12(fp)
  int isafs = 0;
 1009e5c:	e03ffc15 	stw	zero,-16(fp)
  /* 
   * Check the device list, to see if a device with a matching name is 
   * registered.
   */
  
  if (!(dev = alt_find_dev (file, &alt_dev_list)))
 1009e60:	d1600804 	addi	r5,gp,-32736
 1009e64:	e13ffa17 	ldw	r4,-24(fp)
 1009e68:	10098840 	call	1009884 <alt_find_dev>
 1009e6c:	e0bfff15 	stw	r2,-4(fp)
 1009e70:	e0bfff17 	ldw	r2,-4(fp)
 1009e74:	1000051e 	bne	r2,zero,1009e8c <open+0x5c>
  {
    /* No matching device, so try the filesystem list */

    dev   = alt_find_file (file);
 1009e78:	e13ffa17 	ldw	r4,-24(fp)
 1009e7c:	100a3500 	call	100a350 <alt_find_file>
 1009e80:	e0bfff15 	stw	r2,-4(fp)
    isafs = 1;
 1009e84:	00800044 	movi	r2,1
 1009e88:	e0bffc15 	stw	r2,-16(fp)

  /* 
   * If a matching device or filesystem is found, allocate a file descriptor. 
   */

  if (dev)
 1009e8c:	e0bfff17 	ldw	r2,-4(fp)
 1009e90:	10002c26 	beq	r2,zero,1009f44 <open+0x114>
  {
    if ((index = alt_get_fd (dev)) < 0)
 1009e94:	e13fff17 	ldw	r4,-4(fp)
 1009e98:	100a4580 	call	100a458 <alt_get_fd>
 1009e9c:	e0bffe15 	stw	r2,-8(fp)
 1009ea0:	e0bffe17 	ldw	r2,-8(fp)
 1009ea4:	1000030e 	bge	r2,zero,1009eb4 <open+0x84>
    {
      status = index;
 1009ea8:	e0bffe17 	ldw	r2,-8(fp)
 1009eac:	e0bffd15 	stw	r2,-12(fp)
 1009eb0:	00002606 	br	1009f4c <open+0x11c>
    }
    else
    {
      fd = &alt_fd_list[index];
 1009eb4:	e0fffe17 	ldw	r3,-8(fp)
 1009eb8:	1805883a 	mov	r2,r3
 1009ebc:	1085883a 	add	r2,r2,r2
 1009ec0:	10c5883a 	add	r2,r2,r3
 1009ec4:	100490ba 	slli	r2,r2,2
 1009ec8:	00c04074 	movhi	r3,257
 1009ecc:	18f4e504 	addi	r3,r3,-11372
 1009ed0:	10c5883a 	add	r2,r2,r3
 1009ed4:	e0bffb15 	stw	r2,-20(fp)
      fd->fd_flags = (flags & ~ALT_FD_FLAGS_MASK);
 1009ed8:	e0fff917 	ldw	r3,-28(fp)
 1009edc:	00900034 	movhi	r2,16384
 1009ee0:	10bfffc4 	addi	r2,r2,-1
 1009ee4:	1886703a 	and	r3,r3,r2
 1009ee8:	e0bffb17 	ldw	r2,-20(fp)
 1009eec:	10c00215 	stw	r3,8(r2)
      
      /* If this is a device, ensure it isn't already locked */

      if (isafs || ((status = alt_file_locked (fd)) >= 0))
 1009ef0:	e0bffc17 	ldw	r2,-16(fp)
 1009ef4:	1000051e 	bne	r2,zero,1009f0c <open+0xdc>
 1009ef8:	e13ffb17 	ldw	r4,-20(fp)
 1009efc:	1009d540 	call	1009d54 <alt_file_locked>
 1009f00:	e0bffd15 	stw	r2,-12(fp)
 1009f04:	e0bffd17 	ldw	r2,-12(fp)
 1009f08:	10001016 	blt	r2,zero,1009f4c <open+0x11c>
        /* 
         * If the device or filesystem provides an open() callback function,
         * call it now to perform any device/filesystem specific operations.
         */
    
        status = (dev->open) ? dev->open(fd, file, flags, mode): 0;
 1009f0c:	e0bfff17 	ldw	r2,-4(fp)
 1009f10:	10800317 	ldw	r2,12(r2)
 1009f14:	10000826 	beq	r2,zero,1009f38 <open+0x108>
 1009f18:	e0bfff17 	ldw	r2,-4(fp)
 1009f1c:	10800317 	ldw	r2,12(r2)
 1009f20:	e1fff817 	ldw	r7,-32(fp)
 1009f24:	e1bff917 	ldw	r6,-28(fp)
 1009f28:	e17ffa17 	ldw	r5,-24(fp)
 1009f2c:	e13ffb17 	ldw	r4,-20(fp)
 1009f30:	103ee83a 	callr	r2
 1009f34:	00000106 	br	1009f3c <open+0x10c>
 1009f38:	0005883a 	mov	r2,zero
 1009f3c:	e0bffd15 	stw	r2,-12(fp)
 1009f40:	00000206 	br	1009f4c <open+0x11c>
      }
    }
  }
  else
  {
    status = -ENODEV;
 1009f44:	00bffb44 	movi	r2,-19
 1009f48:	e0bffd15 	stw	r2,-12(fp)
  }

  /* Allocation failed, so clean up and return an error */ 

  if (status < 0)
 1009f4c:	e0bffd17 	ldw	r2,-12(fp)
 1009f50:	1000090e 	bge	r2,zero,1009f78 <open+0x148>
  {
    alt_release_fd (index);  
 1009f54:	e13ffe17 	ldw	r4,-8(fp)
 1009f58:	1009f900 	call	1009f90 <alt_release_fd>
    ALT_ERRNO = -status;
 1009f5c:	1009d180 	call	1009d18 <alt_get_errno>
 1009f60:	1007883a 	mov	r3,r2
 1009f64:	e0bffd17 	ldw	r2,-12(fp)
 1009f68:	0085c83a 	sub	r2,zero,r2
 1009f6c:	18800015 	stw	r2,0(r3)
    return -1;
 1009f70:	00bfffc4 	movi	r2,-1
 1009f74:	00000106 	br	1009f7c <open+0x14c>
  }
  
  /* return the reference upon success */

  return index;
 1009f78:	e0bffe17 	ldw	r2,-8(fp)
}
 1009f7c:	e037883a 	mov	sp,fp
 1009f80:	dfc00117 	ldw	ra,4(sp)
 1009f84:	df000017 	ldw	fp,0(sp)
 1009f88:	dec00204 	addi	sp,sp,8
 1009f8c:	f800283a 	ret

01009f90 <alt_release_fd>:
 * File descriptors correcponding to standard in, standard out and standard 
 * error cannont be released backed to the pool. They are always reserved.
 */

void alt_release_fd (int fd)
{
 1009f90:	defffe04 	addi	sp,sp,-8
 1009f94:	df000115 	stw	fp,4(sp)
 1009f98:	df000104 	addi	fp,sp,4
 1009f9c:	e13fff15 	stw	r4,-4(fp)
  if (fd > 2)
 1009fa0:	e0bfff17 	ldw	r2,-4(fp)
 1009fa4:	108000d0 	cmplti	r2,r2,3
 1009fa8:	1000101e 	bne	r2,zero,1009fec <alt_release_fd+0x5c>
  {
    alt_fd_list[fd].fd_flags = 0;
 1009fac:	e0ffff17 	ldw	r3,-4(fp)
 1009fb0:	1805883a 	mov	r2,r3
 1009fb4:	1085883a 	add	r2,r2,r2
 1009fb8:	10c5883a 	add	r2,r2,r3
 1009fbc:	100490ba 	slli	r2,r2,2
 1009fc0:	00c04074 	movhi	r3,257
 1009fc4:	10c7883a 	add	r3,r2,r3
 1009fc8:	1834e715 	stw	zero,-11364(r3)
    alt_fd_list[fd].dev      = 0;
 1009fcc:	e0ffff17 	ldw	r3,-4(fp)
 1009fd0:	1805883a 	mov	r2,r3
 1009fd4:	1085883a 	add	r2,r2,r2
 1009fd8:	10c5883a 	add	r2,r2,r3
 1009fdc:	100490ba 	slli	r2,r2,2
 1009fe0:	00c04074 	movhi	r3,257
 1009fe4:	10c7883a 	add	r3,r2,r3
 1009fe8:	1834e515 	stw	zero,-11372(r3)
  }
}
 1009fec:	0001883a 	nop
 1009ff0:	e037883a 	mov	sp,fp
 1009ff4:	df000017 	ldw	fp,0(sp)
 1009ff8:	dec00104 	addi	sp,sp,4
 1009ffc:	f800283a 	ret

0100a000 <alt_alarm_stop>:
 * alarms. Alternatively an alarm can unregister itself by returning zero when 
 * the alarm executes.
 */

void alt_alarm_stop (alt_alarm* alarm)
{
 100a000:	defffa04 	addi	sp,sp,-24
 100a004:	df000515 	stw	fp,20(sp)
 100a008:	df000504 	addi	fp,sp,20
 100a00c:	e13ffb15 	stw	r4,-20(fp)
  NIOS2_READ_STATUS (context);
 100a010:	0005303a 	rdctl	r2,status
 100a014:	e0bffc15 	stw	r2,-16(fp)
  NIOS2_WRITE_STATUS (context & ~NIOS2_STATUS_PIE_MSK);
 100a018:	e0fffc17 	ldw	r3,-16(fp)
 100a01c:	00bfff84 	movi	r2,-2
 100a020:	1884703a 	and	r2,r3,r2
 100a024:	1001703a 	wrctl	status,r2
  return context;
 100a028:	e0bffc17 	ldw	r2,-16(fp)
  alt_irq_context irq_context;

  irq_context = alt_irq_disable_all();
 100a02c:	e0bfff15 	stw	r2,-4(fp)
  alt_llist_remove (&alarm->llist);
 100a030:	e0bffb17 	ldw	r2,-20(fp)
 100a034:	e0bffd15 	stw	r2,-12(fp)
 * input argument is the element to remove.
 */
     
static ALT_INLINE void ALT_ALWAYS_INLINE alt_llist_remove(alt_llist* entry)
{
  entry->next->previous = entry->previous;
 100a038:	e0bffd17 	ldw	r2,-12(fp)
 100a03c:	10800017 	ldw	r2,0(r2)
 100a040:	e0fffd17 	ldw	r3,-12(fp)
 100a044:	18c00117 	ldw	r3,4(r3)
 100a048:	10c00115 	stw	r3,4(r2)
  entry->previous->next = entry->next;
 100a04c:	e0bffd17 	ldw	r2,-12(fp)
 100a050:	10800117 	ldw	r2,4(r2)
 100a054:	e0fffd17 	ldw	r3,-12(fp)
 100a058:	18c00017 	ldw	r3,0(r3)
 100a05c:	10c00015 	stw	r3,0(r2)
  /* 
   * Set the entry to point to itself, so that any further calls to
   * alt_llist_remove() are harmless.
   */

  entry->previous = entry;
 100a060:	e0bffd17 	ldw	r2,-12(fp)
 100a064:	e0fffd17 	ldw	r3,-12(fp)
 100a068:	10c00115 	stw	r3,4(r2)
  entry->next     = entry;
 100a06c:	e0bffd17 	ldw	r2,-12(fp)
 100a070:	e0fffd17 	ldw	r3,-12(fp)
 100a074:	10c00015 	stw	r3,0(r2)
 100a078:	e0bfff17 	ldw	r2,-4(fp)
 100a07c:	e0bffe15 	stw	r2,-8(fp)
  NIOS2_WRITE_STATUS (context);
 100a080:	e0bffe17 	ldw	r2,-8(fp)
 100a084:	1001703a 	wrctl	status,r2
  alt_irq_enable_all (irq_context);
}
 100a088:	0001883a 	nop
 100a08c:	e037883a 	mov	sp,fp
 100a090:	df000017 	ldw	fp,0(sp)
 100a094:	dec00104 	addi	sp,sp,4
 100a098:	f800283a 	ret

0100a09c <alt_tick>:
 * 
 * alt_tick() is expected to run at interrupt level.
 */

void alt_tick (void)
{
 100a09c:	defffb04 	addi	sp,sp,-20
 100a0a0:	dfc00415 	stw	ra,16(sp)
 100a0a4:	df000315 	stw	fp,12(sp)
 100a0a8:	df000304 	addi	fp,sp,12
  alt_alarm* next;
  alt_alarm* alarm = (alt_alarm*) alt_alarm_list.next;
 100a0ac:	d0a00d17 	ldw	r2,-32716(gp)
 100a0b0:	e0bfff15 	stw	r2,-4(fp)

  alt_u32    next_callback;

  /* update the tick counter */

  _alt_nticks++;
 100a0b4:	d0a0f517 	ldw	r2,-31788(gp)
 100a0b8:	10800044 	addi	r2,r2,1
 100a0bc:	d0a0f515 	stw	r2,-31788(gp)

  /* process the registered callbacks */

  while (alarm != (alt_alarm*) &alt_alarm_list)
 100a0c0:	00002e06 	br	100a17c <alt_tick+0xe0>
  {
    next = (alt_alarm*) alarm->llist.next;
 100a0c4:	e0bfff17 	ldw	r2,-4(fp)
 100a0c8:	10800017 	ldw	r2,0(r2)
 100a0cc:	e0bffe15 	stw	r2,-8(fp)
    /* 
     * Upon the tick-counter rolling over it is safe to clear the 
     * roll-over flag; once the flag is cleared this (or subsequnt)
     * tick events are enabled to generate an alarm event. 
     */
    if ((alarm->rollover) && (_alt_nticks == 0))
 100a0d0:	e0bfff17 	ldw	r2,-4(fp)
 100a0d4:	10800403 	ldbu	r2,16(r2)
 100a0d8:	10803fcc 	andi	r2,r2,255
 100a0dc:	10000426 	beq	r2,zero,100a0f0 <alt_tick+0x54>
 100a0e0:	d0a0f517 	ldw	r2,-31788(gp)
 100a0e4:	1000021e 	bne	r2,zero,100a0f0 <alt_tick+0x54>
    {
      alarm->rollover = 0;
 100a0e8:	e0bfff17 	ldw	r2,-4(fp)
 100a0ec:	10000405 	stb	zero,16(r2)
    }
    
    /* if the alarm period has expired, make the callback */    
    if ((alarm->time <= _alt_nticks) && (alarm->rollover == 0))
 100a0f0:	e0bfff17 	ldw	r2,-4(fp)
 100a0f4:	10800217 	ldw	r2,8(r2)
 100a0f8:	d0e0f517 	ldw	r3,-31788(gp)
 100a0fc:	18801d36 	bltu	r3,r2,100a174 <alt_tick+0xd8>
 100a100:	e0bfff17 	ldw	r2,-4(fp)
 100a104:	10800403 	ldbu	r2,16(r2)
 100a108:	10803fcc 	andi	r2,r2,255
 100a10c:	1000191e 	bne	r2,zero,100a174 <alt_tick+0xd8>
    {
      next_callback = alarm->callback (alarm->context);
 100a110:	e0bfff17 	ldw	r2,-4(fp)
 100a114:	10800317 	ldw	r2,12(r2)
 100a118:	e0ffff17 	ldw	r3,-4(fp)
 100a11c:	18c00517 	ldw	r3,20(r3)
 100a120:	1809883a 	mov	r4,r3
 100a124:	103ee83a 	callr	r2
 100a128:	e0bffd15 	stw	r2,-12(fp)

      /* deactivate the alarm if the return value is zero */

      if (next_callback == 0)
 100a12c:	e0bffd17 	ldw	r2,-12(fp)
 100a130:	1000031e 	bne	r2,zero,100a140 <alt_tick+0xa4>
      {
        alt_alarm_stop (alarm);
 100a134:	e13fff17 	ldw	r4,-4(fp)
 100a138:	100a0000 	call	100a000 <alt_alarm_stop>
 100a13c:	00000d06 	br	100a174 <alt_tick+0xd8>
      }
      else
      {
        alarm->time += next_callback;
 100a140:	e0bfff17 	ldw	r2,-4(fp)
 100a144:	10c00217 	ldw	r3,8(r2)
 100a148:	e0bffd17 	ldw	r2,-12(fp)
 100a14c:	1887883a 	add	r3,r3,r2
 100a150:	e0bfff17 	ldw	r2,-4(fp)
 100a154:	10c00215 	stw	r3,8(r2)
        /* 
         * If the desired alarm time causes a roll-over, set the rollover
         * flag. This will prevent the subsequent tick event from causing
         * an alarm too early.
         */
        if(alarm->time < _alt_nticks)
 100a158:	e0bfff17 	ldw	r2,-4(fp)
 100a15c:	10c00217 	ldw	r3,8(r2)
 100a160:	d0a0f517 	ldw	r2,-31788(gp)
 100a164:	1880032e 	bgeu	r3,r2,100a174 <alt_tick+0xd8>
        {
          alarm->rollover = 1;
 100a168:	e0bfff17 	ldw	r2,-4(fp)
 100a16c:	00c00044 	movi	r3,1
 100a170:	10c00405 	stb	r3,16(r2)
        }
      }
    }
    alarm = next;
 100a174:	e0bffe17 	ldw	r2,-8(fp)
 100a178:	e0bfff15 	stw	r2,-4(fp)
  while (alarm != (alt_alarm*) &alt_alarm_list)
 100a17c:	e0ffff17 	ldw	r3,-4(fp)
 100a180:	d0a00d04 	addi	r2,gp,-32716
 100a184:	18bfcf1e 	bne	r3,r2,100a0c4 <alt_tick+0x28>

  /* 
   * Update the operating system specific timer facilities.
   */

  ALT_OS_TIME_TICK();
 100a188:	0001883a 	nop
}
 100a18c:	0001883a 	nop
 100a190:	e037883a 	mov	sp,fp
 100a194:	dfc00117 	ldw	ra,4(sp)
 100a198:	df000017 	ldw	fp,0(sp)
 100a19c:	dec00204 	addi	sp,sp,8
 100a1a0:	f800283a 	ret

0100a1a4 <usleep>:
#if defined (__GNUC__) && __GNUC__ >= 4
int ALT_USLEEP (useconds_t us)
#else
unsigned int ALT_USLEEP (unsigned int us)
#endif
{
 100a1a4:	defffd04 	addi	sp,sp,-12
 100a1a8:	dfc00215 	stw	ra,8(sp)
 100a1ac:	df000115 	stw	fp,4(sp)
 100a1b0:	df000104 	addi	fp,sp,4
 100a1b4:	e13fff15 	stw	r4,-4(fp)
  return alt_busy_sleep(us);
 100a1b8:	e13fff17 	ldw	r4,-4(fp)
 100a1bc:	100a1f80 	call	100a1f8 <alt_busy_sleep>
}
 100a1c0:	e037883a 	mov	sp,fp
 100a1c4:	dfc00117 	ldw	ra,4(sp)
 100a1c8:	df000017 	ldw	fp,0(sp)
 100a1cc:	dec00204 	addi	sp,sp,8
 100a1d0:	f800283a 	ret

0100a1d4 <altera_nios2_gen2_irq_init>:
/*
 * To initialize the internal interrupt controller, just clear the IENABLE
 * register so that all possible IRQs are disabled.
 */
void altera_nios2_gen2_irq_init(void) 
{
 100a1d4:	deffff04 	addi	sp,sp,-4
 100a1d8:	df000015 	stw	fp,0(sp)
 100a1dc:	d839883a 	mov	fp,sp
    NIOS2_WRITE_IENABLE(0);
 100a1e0:	000170fa 	wrctl	ienable,zero
}
 100a1e4:	0001883a 	nop
 100a1e8:	e037883a 	mov	sp,fp
 100a1ec:	df000017 	ldw	fp,0(sp)
 100a1f0:	dec00104 	addi	sp,sp,4
 100a1f4:	f800283a 	ret

0100a1f8 <alt_busy_sleep>:
#include "alt_types.h"

#include "priv/alt_busy_sleep.h"

unsigned int alt_busy_sleep (unsigned int us)
{
 100a1f8:	defffa04 	addi	sp,sp,-24
 100a1fc:	dfc00515 	stw	ra,20(sp)
 100a200:	df000415 	stw	fp,16(sp)
 100a204:	df000404 	addi	fp,sp,16
 100a208:	e13ffc15 	stw	r4,-16(fp)
  int big_loops;
  alt_u32 cycles_per_loop;
  
  if (!strcmp(NIOS2_CPU_IMPLEMENTATION,"tiny"))
  {
    cycles_per_loop = 9;
 100a20c:	00800244 	movi	r2,9
 100a210:	e0bffe15 	stw	r2,-8(fp)
    cycles_per_loop = 3;
  }
  

  big_loops = us / (INT_MAX/
  (ALT_CPU_FREQ/(cycles_per_loop * 1000000)));
 100a214:	014003f4 	movhi	r5,15
 100a218:	29509004 	addi	r5,r5,16960
 100a21c:	e13ffe17 	ldw	r4,-8(fp)
 100a220:	1002f140 	call	1002f14 <__mulsi3>
 100a224:	100b883a 	mov	r5,r2
 100a228:	01017db4 	movhi	r4,1526
 100a22c:	21384004 	addi	r4,r4,-7936
 100a230:	1002e540 	call	1002e54 <__udivsi3>
  big_loops = us / (INT_MAX/
 100a234:	100b883a 	mov	r5,r2
 100a238:	01200034 	movhi	r4,32768
 100a23c:	213fffc4 	addi	r4,r4,-1
 100a240:	1002e540 	call	1002e54 <__udivsi3>
 100a244:	100b883a 	mov	r5,r2
 100a248:	e13ffc17 	ldw	r4,-16(fp)
 100a24c:	1002e540 	call	1002e54 <__udivsi3>
 100a250:	e0bffd15 	stw	r2,-12(fp)

  if (big_loops)
 100a254:	e0bffd17 	ldw	r2,-12(fp)
 100a258:	10002a26 	beq	r2,zero,100a304 <alt_busy_sleep+0x10c>
  {
    for(i=0;i<big_loops;i++)
 100a25c:	e03fff15 	stw	zero,-4(fp)
 100a260:	00001706 	br	100a2c0 <alt_busy_sleep+0xc8>
      /*
      * Do NOT Try to single step the asm statement below 
      * (single step will never return)
      * Step out of this function or set a breakpoint after the asm statements
      */
      __asm__ volatile (
 100a264:	00a00034 	movhi	r2,32768
 100a268:	10bfffc4 	addi	r2,r2,-1
 100a26c:	10bfffc4 	addi	r2,r2,-1
 100a270:	103ffe1e 	bne	r2,zero,100a26c <alt_busy_sleep+0x74>
        "\n\t.pushsection .debug_alt_sim_info"
        "\n\t.int 4, 0, 0b, 1b"
        "\n\t.popsection"
        :: "r" (INT_MAX));
      us -= (INT_MAX/(ALT_CPU_FREQ/
      (cycles_per_loop * 1000000)));
 100a274:	014003f4 	movhi	r5,15
 100a278:	29509004 	addi	r5,r5,16960
 100a27c:	e13ffe17 	ldw	r4,-8(fp)
 100a280:	1002f140 	call	1002f14 <__mulsi3>
      us -= (INT_MAX/(ALT_CPU_FREQ/
 100a284:	100b883a 	mov	r5,r2
 100a288:	01017db4 	movhi	r4,1526
 100a28c:	21384004 	addi	r4,r4,-7936
 100a290:	1002e540 	call	1002e54 <__udivsi3>
 100a294:	100b883a 	mov	r5,r2
 100a298:	01200034 	movhi	r4,32768
 100a29c:	213fffc4 	addi	r4,r4,-1
 100a2a0:	1002e540 	call	1002e54 <__udivsi3>
 100a2a4:	1007883a 	mov	r3,r2
 100a2a8:	e0bffc17 	ldw	r2,-16(fp)
 100a2ac:	10c5c83a 	sub	r2,r2,r3
 100a2b0:	e0bffc15 	stw	r2,-16(fp)
    for(i=0;i<big_loops;i++)
 100a2b4:	e0bfff17 	ldw	r2,-4(fp)
 100a2b8:	10800044 	addi	r2,r2,1
 100a2bc:	e0bfff15 	stw	r2,-4(fp)
 100a2c0:	e0ffff17 	ldw	r3,-4(fp)
 100a2c4:	e0bffd17 	ldw	r2,-12(fp)
 100a2c8:	18bfe616 	blt	r3,r2,100a264 <alt_busy_sleep+0x6c>
      "\n\tbne %0,zero,0b"
      "\n1:"
      "\n\t.pushsection .debug_alt_sim_info"
      "\n\t.int 4, 0, 0b, 1b"
      "\n\t.popsection"
      :: "r" (us*(ALT_CPU_FREQ/(cycles_per_loop * 1000000))));
 100a2cc:	014003f4 	movhi	r5,15
 100a2d0:	29509004 	addi	r5,r5,16960
 100a2d4:	e13ffe17 	ldw	r4,-8(fp)
 100a2d8:	1002f140 	call	1002f14 <__mulsi3>
 100a2dc:	100b883a 	mov	r5,r2
 100a2e0:	01017db4 	movhi	r4,1526
 100a2e4:	21384004 	addi	r4,r4,-7936
 100a2e8:	1002e540 	call	1002e54 <__udivsi3>
 100a2ec:	e17ffc17 	ldw	r5,-16(fp)
 100a2f0:	1009883a 	mov	r4,r2
 100a2f4:	1002f140 	call	1002f14 <__mulsi3>
    __asm__ volatile (
 100a2f8:	10bfffc4 	addi	r2,r2,-1
 100a2fc:	103ffe1e 	bne	r2,zero,100a2f8 <alt_busy_sleep+0x100>
 100a300:	00000d06 	br	100a338 <alt_busy_sleep+0x140>
      "\n\tbgt %0,zero,0b"
      "\n1:"
      "\n\t.pushsection .debug_alt_sim_info"
      "\n\t.int 4, 0, 0b, 1b"
      "\n\t.popsection"
      :: "r" (us*(ALT_CPU_FREQ/(cycles_per_loop * 1000000))));
 100a304:	014003f4 	movhi	r5,15
 100a308:	29509004 	addi	r5,r5,16960
 100a30c:	e13ffe17 	ldw	r4,-8(fp)
 100a310:	1002f140 	call	1002f14 <__mulsi3>
 100a314:	100b883a 	mov	r5,r2
 100a318:	01017db4 	movhi	r4,1526
 100a31c:	21384004 	addi	r4,r4,-7936
 100a320:	1002e540 	call	1002e54 <__udivsi3>
 100a324:	e17ffc17 	ldw	r5,-16(fp)
 100a328:	1009883a 	mov	r4,r2
 100a32c:	1002f140 	call	1002f14 <__mulsi3>
    __asm__ volatile (
 100a330:	10bfffc4 	addi	r2,r2,-1
 100a334:	00bffe16 	blt	zero,r2,100a330 <alt_busy_sleep+0x138>
  }
#endif /* #ifndef ALT_SIM_OPTIMIZE */
  return 0;
 100a338:	0005883a 	mov	r2,zero
}
 100a33c:	e037883a 	mov	sp,fp
 100a340:	dfc00117 	ldw	ra,4(sp)
 100a344:	df000017 	ldw	fp,0(sp)
 100a348:	dec00204 	addi	sp,sp,8
 100a34c:	f800283a 	ret

0100a350 <alt_find_file>:
 * either '/' or '\0' is the prefix of the filename. For example the filename:
 * "/myfilesystem/junk.txt" would match: "/myfilesystem", but not: "/myfile". 
 */
 
alt_dev* alt_find_file (const char* name)
{
 100a350:	defffb04 	addi	sp,sp,-20
 100a354:	dfc00415 	stw	ra,16(sp)
 100a358:	df000315 	stw	fp,12(sp)
 100a35c:	df000304 	addi	fp,sp,12
 100a360:	e13ffd15 	stw	r4,-12(fp)
  alt_dev* next = (alt_dev*) alt_fs_list.next;   
 100a364:	d0a00617 	ldw	r2,-32744(gp)
 100a368:	e0bfff15 	stw	r2,-4(fp)
  /*
   * Check each list entry in turn, until a match is found, or we reach the
   * end of the list (i.e. next winds up pointing back to the list head).
   */ 
 
  while (next != (alt_dev*) &alt_fs_list)
 100a36c:	00003106 	br	100a434 <alt_find_file+0xe4>
  {
    len = strlen(next->name);
 100a370:	e0bfff17 	ldw	r2,-4(fp)
 100a374:	10800217 	ldw	r2,8(r2)
 100a378:	1009883a 	mov	r4,r2
 100a37c:	1002cf00 	call	1002cf0 <strlen>
 100a380:	e0bffe15 	stw	r2,-8(fp)
    
    if (next->name[len-1] == '/')
 100a384:	e0bfff17 	ldw	r2,-4(fp)
 100a388:	10c00217 	ldw	r3,8(r2)
 100a38c:	e0bffe17 	ldw	r2,-8(fp)
 100a390:	10bfffc4 	addi	r2,r2,-1
 100a394:	1885883a 	add	r2,r3,r2
 100a398:	10800003 	ldbu	r2,0(r2)
 100a39c:	10803fcc 	andi	r2,r2,255
 100a3a0:	1080201c 	xori	r2,r2,128
 100a3a4:	10bfe004 	addi	r2,r2,-128
 100a3a8:	10800bd8 	cmpnei	r2,r2,47
 100a3ac:	1000031e 	bne	r2,zero,100a3bc <alt_find_file+0x6c>
    {
      len -= 1;
 100a3b0:	e0bffe17 	ldw	r2,-8(fp)
 100a3b4:	10bfffc4 	addi	r2,r2,-1
 100a3b8:	e0bffe15 	stw	r2,-8(fp)
    }

    if (((name[len] == '/') || (name[len] == '\0')) && 
 100a3bc:	e0bffe17 	ldw	r2,-8(fp)
 100a3c0:	e0fffd17 	ldw	r3,-12(fp)
 100a3c4:	1885883a 	add	r2,r3,r2
 100a3c8:	10800003 	ldbu	r2,0(r2)
 100a3cc:	10803fcc 	andi	r2,r2,255
 100a3d0:	1080201c 	xori	r2,r2,128
 100a3d4:	10bfe004 	addi	r2,r2,-128
 100a3d8:	10800be0 	cmpeqi	r2,r2,47
 100a3dc:	1000081e 	bne	r2,zero,100a400 <alt_find_file+0xb0>
 100a3e0:	e0bffe17 	ldw	r2,-8(fp)
 100a3e4:	e0fffd17 	ldw	r3,-12(fp)
 100a3e8:	1885883a 	add	r2,r3,r2
 100a3ec:	10800003 	ldbu	r2,0(r2)
 100a3f0:	10803fcc 	andi	r2,r2,255
 100a3f4:	1080201c 	xori	r2,r2,128
 100a3f8:	10bfe004 	addi	r2,r2,-128
 100a3fc:	10000a1e 	bne	r2,zero,100a428 <alt_find_file+0xd8>
        !memcmp (next->name, name, len))
 100a400:	e0bfff17 	ldw	r2,-4(fp)
 100a404:	10800217 	ldw	r2,8(r2)
 100a408:	e0fffe17 	ldw	r3,-8(fp)
 100a40c:	180d883a 	mov	r6,r3
 100a410:	e17ffd17 	ldw	r5,-12(fp)
 100a414:	1009883a 	mov	r4,r2
 100a418:	100a5fc0 	call	100a5fc <memcmp>
    if (((name[len] == '/') || (name[len] == '\0')) && 
 100a41c:	1000021e 	bne	r2,zero,100a428 <alt_find_file+0xd8>
    {
      /* match found */

      return next;
 100a420:	e0bfff17 	ldw	r2,-4(fp)
 100a424:	00000706 	br	100a444 <alt_find_file+0xf4>
    }
    next = (alt_dev*) next->llist.next;
 100a428:	e0bfff17 	ldw	r2,-4(fp)
 100a42c:	10800017 	ldw	r2,0(r2)
 100a430:	e0bfff15 	stw	r2,-4(fp)
  while (next != (alt_dev*) &alt_fs_list)
 100a434:	e0ffff17 	ldw	r3,-4(fp)
 100a438:	d0a00604 	addi	r2,gp,-32744
 100a43c:	18bfcc1e 	bne	r3,r2,100a370 <alt_find_file+0x20>
  }
  
  /* No match found */
  
  return NULL;     
 100a440:	0005883a 	mov	r2,zero
}
 100a444:	e037883a 	mov	sp,fp
 100a448:	dfc00117 	ldw	ra,4(sp)
 100a44c:	df000017 	ldw	fp,0(sp)
 100a450:	dec00204 	addi	sp,sp,8
 100a454:	f800283a 	ret

0100a458 <alt_get_fd>:
 * the offset of the file descriptor within the file descriptor array). A
 * negative value indicates failure.
 */

int alt_get_fd (alt_dev* dev)
{
 100a458:	defffc04 	addi	sp,sp,-16
 100a45c:	df000315 	stw	fp,12(sp)
 100a460:	df000304 	addi	fp,sp,12
 100a464:	e13ffd15 	stw	r4,-12(fp)
  alt_32 i;
  int rc = -EMFILE;
 100a468:	00bffa04 	movi	r2,-24
 100a46c:	e0bffe15 	stw	r2,-8(fp)
   * indicates the highest file descriptor ever allocated. This is used to
   * improve efficency when searching the file descriptor list, and 
   * therefore reduce contention on the alt_fd_list_lock semaphore. 
   */

  for (i = 0; i < ALT_MAX_FD; i++)
 100a470:	e03fff15 	stw	zero,-4(fp)
 100a474:	00001d06 	br	100a4ec <alt_get_fd+0x94>
  {
    if (!alt_fd_list[i].dev)
 100a478:	e0ffff17 	ldw	r3,-4(fp)
 100a47c:	1805883a 	mov	r2,r3
 100a480:	1085883a 	add	r2,r2,r2
 100a484:	10c5883a 	add	r2,r2,r3
 100a488:	100490ba 	slli	r2,r2,2
 100a48c:	00c04074 	movhi	r3,257
 100a490:	10c7883a 	add	r3,r2,r3
 100a494:	18b4e517 	ldw	r2,-11372(r3)
 100a498:	1000111e 	bne	r2,zero,100a4e0 <alt_get_fd+0x88>
    {
      alt_fd_list[i].dev = dev;
 100a49c:	e0ffff17 	ldw	r3,-4(fp)
 100a4a0:	1805883a 	mov	r2,r3
 100a4a4:	1085883a 	add	r2,r2,r2
 100a4a8:	10c5883a 	add	r2,r2,r3
 100a4ac:	100490ba 	slli	r2,r2,2
 100a4b0:	e13ffd17 	ldw	r4,-12(fp)
 100a4b4:	00c04074 	movhi	r3,257
 100a4b8:	10c7883a 	add	r3,r2,r3
 100a4bc:	1934e515 	stw	r4,-11372(r3)
      if (i > alt_max_fd)
 100a4c0:	d0e00a17 	ldw	r3,-32728(gp)
 100a4c4:	e0bfff17 	ldw	r2,-4(fp)
 100a4c8:	1880020e 	bge	r3,r2,100a4d4 <alt_get_fd+0x7c>
      {
        alt_max_fd = i;
 100a4cc:	e0bfff17 	ldw	r2,-4(fp)
 100a4d0:	d0a00a15 	stw	r2,-32728(gp)
      }
      rc = i;
 100a4d4:	e0bfff17 	ldw	r2,-4(fp)
 100a4d8:	e0bffe15 	stw	r2,-8(fp)
      goto alt_get_fd_exit;
 100a4dc:	00000706 	br	100a4fc <alt_get_fd+0xa4>
  for (i = 0; i < ALT_MAX_FD; i++)
 100a4e0:	e0bfff17 	ldw	r2,-4(fp)
 100a4e4:	10800044 	addi	r2,r2,1
 100a4e8:	e0bfff15 	stw	r2,-4(fp)
 100a4ec:	e0bfff17 	ldw	r2,-4(fp)
 100a4f0:	10800810 	cmplti	r2,r2,32
 100a4f4:	103fe01e 	bne	r2,zero,100a478 <alt_get_fd+0x20>
    }
  }

 alt_get_fd_exit:
 100a4f8:	0001883a 	nop
   * file descriptor pool.
   */

  ALT_SEM_POST(alt_fd_list_lock);

  return rc;
 100a4fc:	e0bffe17 	ldw	r2,-8(fp)
}
 100a500:	e037883a 	mov	sp,fp
 100a504:	df000017 	ldw	fp,0(sp)
 100a508:	dec00104 	addi	sp,sp,4
 100a50c:	f800283a 	ret

0100a510 <alt_exception_cause_generated_bad_addr>:
 * Return: 1: BADADDR (bad_addr argument to handler) is valid
 *         0: BADADDR is not valid
 */
int 
alt_exception_cause_generated_bad_addr(alt_exception_cause cause)
{
 100a510:	defffe04 	addi	sp,sp,-8
 100a514:	df000115 	stw	fp,4(sp)
 100a518:	df000104 	addi	fp,sp,4
 100a51c:	e13fff15 	stw	r4,-4(fp)
  switch (cause) {
 100a520:	e0bfff17 	ldw	r2,-4(fp)
 100a524:	10bffe84 	addi	r2,r2,-6
 100a528:	10c00428 	cmpgeui	r3,r2,16
 100a52c:	1800191e 	bne	r3,zero,100a594 <alt_exception_cause_generated_bad_addr+0x84>
 100a530:	100690ba 	slli	r3,r2,2
 100a534:	00804074 	movhi	r2,257
 100a538:	1885883a 	add	r2,r3,r2
 100a53c:	10a95117 	ldw	r2,-23228(r2)
 100a540:	1000683a 	jmp	r2
 100a544:	0100a584 	movi	r4,662
 100a548:	0100a584 	movi	r4,662
 100a54c:	0100a594 	movui	r4,662
 100a550:	0100a594 	movui	r4,662
 100a554:	0100a594 	movui	r4,662
 100a558:	0100a584 	movi	r4,662
 100a55c:	0100a58c 	andi	r4,zero,662
 100a560:	0100a594 	movui	r4,662
 100a564:	0100a584 	movi	r4,662
 100a568:	0100a584 	movi	r4,662
 100a56c:	0100a594 	movui	r4,662
 100a570:	0100a584 	movi	r4,662
 100a574:	0100a58c 	andi	r4,zero,662
 100a578:	0100a594 	movui	r4,662
 100a57c:	0100a594 	movui	r4,662
 100a580:	0100a584 	movi	r4,662
  case NIOS2_EXCEPTION_MISALIGNED_TARGET_PC:
  case NIOS2_EXCEPTION_TLB_READ_PERM_VIOLATION:
  case NIOS2_EXCEPTION_TLB_WRITE_PERM_VIOLATION:
  case NIOS2_EXCEPTION_MPU_DATA_REGION_VIOLATION:
  case NIOS2_EXCEPTION_ECC_DATA_ERR:
    return 1;
 100a584:	00800044 	movi	r2,1
 100a588:	00000306 	br	100a598 <alt_exception_cause_generated_bad_addr+0x88>

  case NIOS2_EXCEPTION_TLB_MISS:
  case NIOS2_EXCEPTION_ECC_TLB_ERR:
    return 0;
 100a58c:	0005883a 	mov	r2,zero
 100a590:	00000106 	br	100a598 <alt_exception_cause_generated_bad_addr+0x88>

  default:
    return 0;
 100a594:	0005883a 	mov	r2,zero
  }
}
 100a598:	e037883a 	mov	sp,fp
 100a59c:	df000017 	ldw	fp,0(sp)
 100a5a0:	dec00104 	addi	sp,sp,4
 100a5a4:	f800283a 	ret

0100a5a8 <atexit>:
 100a5a8:	200b883a 	mov	r5,r4
 100a5ac:	000f883a 	mov	r7,zero
 100a5b0:	000d883a 	mov	r6,zero
 100a5b4:	0009883a 	mov	r4,zero
 100a5b8:	100a9301 	jmpi	100a930 <__register_exitproc>

0100a5bc <exit>:
 100a5bc:	defffe04 	addi	sp,sp,-8
 100a5c0:	000b883a 	mov	r5,zero
 100a5c4:	dc000015 	stw	r16,0(sp)
 100a5c8:	dfc00115 	stw	ra,4(sp)
 100a5cc:	2021883a 	mov	r16,r4
 100a5d0:	100aa4c0 	call	100aa4c <__call_exitprocs>
 100a5d4:	8009883a 	mov	r4,r16
 100a5d8:	100ac0c0 	call	100ac0c <_exit>

0100a5dc <malloc>:
 100a5dc:	00804074 	movhi	r2,257
 100a5e0:	200b883a 	mov	r5,r4
 100a5e4:	11354717 	ldw	r4,-10980(r2)
 100a5e8:	100a7341 	jmpi	100a734 <_malloc_r>

0100a5ec <free>:
 100a5ec:	00804074 	movhi	r2,257
 100a5f0:	200b883a 	mov	r5,r4
 100a5f4:	11354717 	ldw	r4,-10980(r2)
 100a5f8:	100a62c1 	jmpi	100a62c <_free_r>

0100a5fc <memcmp>:
 100a5fc:	0007883a 	mov	r3,zero
 100a600:	30c0021e 	bne	r6,r3,100a60c <memcmp+0x10>
 100a604:	0005883a 	mov	r2,zero
 100a608:	f800283a 	ret
 100a60c:	20c5883a 	add	r2,r4,r3
 100a610:	18c00044 	addi	r3,r3,1
 100a614:	28cf883a 	add	r7,r5,r3
 100a618:	10800003 	ldbu	r2,0(r2)
 100a61c:	39ffffc3 	ldbu	r7,-1(r7)
 100a620:	11fff726 	beq	r2,r7,100a600 <memcmp+0x4>
 100a624:	11c5c83a 	sub	r2,r2,r7
 100a628:	f800283a 	ret

0100a62c <_free_r>:
 100a62c:	28004026 	beq	r5,zero,100a730 <_free_r+0x104>
 100a630:	28bfff17 	ldw	r2,-4(r5)
 100a634:	defffd04 	addi	sp,sp,-12
 100a638:	dc000015 	stw	r16,0(sp)
 100a63c:	dfc00215 	stw	ra,8(sp)
 100a640:	dc400115 	stw	r17,4(sp)
 100a644:	2c3fff04 	addi	r16,r5,-4
 100a648:	1000010e 	bge	r2,zero,100a650 <_free_r+0x24>
 100a64c:	80a1883a 	add	r16,r16,r2
 100a650:	2023883a 	mov	r17,r4
 100a654:	100ac400 	call	100ac40 <__malloc_lock>
 100a658:	00804074 	movhi	r2,257
 100a65c:	10b63d17 	ldw	r2,-9996(r2)
 100a660:	1000091e 	bne	r2,zero,100a688 <_free_r+0x5c>
 100a664:	80000115 	stw	zero,4(r16)
 100a668:	00804074 	movhi	r2,257
 100a66c:	14363d15 	stw	r16,-9996(r2)
 100a670:	8809883a 	mov	r4,r17
 100a674:	dfc00217 	ldw	ra,8(sp)
 100a678:	dc400117 	ldw	r17,4(sp)
 100a67c:	dc000017 	ldw	r16,0(sp)
 100a680:	dec00304 	addi	sp,sp,12
 100a684:	100ac641 	jmpi	100ac64 <__malloc_unlock>
 100a688:	80800a2e 	bgeu	r16,r2,100a6b4 <_free_r+0x88>
 100a68c:	81000017 	ldw	r4,0(r16)
 100a690:	8107883a 	add	r3,r16,r4
 100a694:	10c0041e 	bne	r2,r3,100a6a8 <_free_r+0x7c>
 100a698:	10c00017 	ldw	r3,0(r2)
 100a69c:	10800117 	ldw	r2,4(r2)
 100a6a0:	1907883a 	add	r3,r3,r4
 100a6a4:	80c00015 	stw	r3,0(r16)
 100a6a8:	80800115 	stw	r2,4(r16)
 100a6ac:	003fee06 	br	100a668 <_free_r+0x3c>
 100a6b0:	10800117 	ldw	r2,4(r2)
 100a6b4:	10c00117 	ldw	r3,4(r2)
 100a6b8:	18000126 	beq	r3,zero,100a6c0 <_free_r+0x94>
 100a6bc:	80fffc2e 	bgeu	r16,r3,100a6b0 <_free_r+0x84>
 100a6c0:	11000017 	ldw	r4,0(r2)
 100a6c4:	110b883a 	add	r5,r2,r4
 100a6c8:	2c000b1e 	bne	r5,r16,100a6f8 <_free_r+0xcc>
 100a6cc:	81400017 	ldw	r5,0(r16)
 100a6d0:	2149883a 	add	r4,r4,r5
 100a6d4:	11000015 	stw	r4,0(r2)
 100a6d8:	110b883a 	add	r5,r2,r4
 100a6dc:	197fe41e 	bne	r3,r5,100a670 <_free_r+0x44>
 100a6e0:	19400017 	ldw	r5,0(r3)
 100a6e4:	18c00117 	ldw	r3,4(r3)
 100a6e8:	2909883a 	add	r4,r5,r4
 100a6ec:	11000015 	stw	r4,0(r2)
 100a6f0:	10c00115 	stw	r3,4(r2)
 100a6f4:	003fde06 	br	100a670 <_free_r+0x44>
 100a6f8:	8140032e 	bgeu	r16,r5,100a708 <_free_r+0xdc>
 100a6fc:	00800304 	movi	r2,12
 100a700:	88800015 	stw	r2,0(r17)
 100a704:	003fda06 	br	100a670 <_free_r+0x44>
 100a708:	81400017 	ldw	r5,0(r16)
 100a70c:	8149883a 	add	r4,r16,r5
 100a710:	1900041e 	bne	r3,r4,100a724 <_free_r+0xf8>
 100a714:	19000017 	ldw	r4,0(r3)
 100a718:	18c00117 	ldw	r3,4(r3)
 100a71c:	2149883a 	add	r4,r4,r5
 100a720:	81000015 	stw	r4,0(r16)
 100a724:	80c00115 	stw	r3,4(r16)
 100a728:	14000115 	stw	r16,4(r2)
 100a72c:	003fd006 	br	100a670 <_free_r+0x44>
 100a730:	f800283a 	ret

0100a734 <_malloc_r>:
 100a734:	defffc04 	addi	sp,sp,-16
 100a738:	00bfff04 	movi	r2,-4
 100a73c:	dc400115 	stw	r17,4(sp)
 100a740:	2c4000c4 	addi	r17,r5,3
 100a744:	88a2703a 	and	r17,r17,r2
 100a748:	8c400204 	addi	r17,r17,8
 100a74c:	dfc00315 	stw	ra,12(sp)
 100a750:	dc800215 	stw	r18,8(sp)
 100a754:	dc000015 	stw	r16,0(sp)
 100a758:	88800328 	cmpgeui	r2,r17,12
 100a75c:	1000241e 	bne	r2,zero,100a7f0 <_malloc_r+0xbc>
 100a760:	04400304 	movi	r17,12
 100a764:	89402336 	bltu	r17,r5,100a7f4 <_malloc_r+0xc0>
 100a768:	2025883a 	mov	r18,r4
 100a76c:	100ac400 	call	100ac40 <__malloc_lock>
 100a770:	00804074 	movhi	r2,257
 100a774:	10f63d17 	ldw	r3,-9996(r2)
 100a778:	1821883a 	mov	r16,r3
 100a77c:	80000926 	beq	r16,zero,100a7a4 <_malloc_r+0x70>
 100a780:	80800017 	ldw	r2,0(r16)
 100a784:	1445c83a 	sub	r2,r2,r17
 100a788:	10003516 	blt	r2,zero,100a860 <_malloc_r+0x12c>
 100a78c:	11000330 	cmpltui	r4,r2,12
 100a790:	2000211e 	bne	r4,zero,100a818 <_malloc_r+0xe4>
 100a794:	80800015 	stw	r2,0(r16)
 100a798:	80a1883a 	add	r16,r16,r2
 100a79c:	84400015 	stw	r17,0(r16)
 100a7a0:	8000211e 	bne	r16,zero,100a828 <_malloc_r+0xf4>
 100a7a4:	00804074 	movhi	r2,257
 100a7a8:	10b63c17 	ldw	r2,-10000(r2)
 100a7ac:	1000061e 	bne	r2,zero,100a7c8 <_malloc_r+0x94>
 100a7b0:	00804074 	movhi	r2,257
 100a7b4:	11763c17 	ldw	r5,-10000(r2)
 100a7b8:	9009883a 	mov	r4,r18
 100a7bc:	100a8bc0 	call	100a8bc <_sbrk_r>
 100a7c0:	00c04074 	movhi	r3,257
 100a7c4:	18b63c15 	stw	r2,-10000(r3)
 100a7c8:	880b883a 	mov	r5,r17
 100a7cc:	9009883a 	mov	r4,r18
 100a7d0:	100a8bc0 	call	100a8bc <_sbrk_r>
 100a7d4:	10ffffd8 	cmpnei	r3,r2,-1
 100a7d8:	1800241e 	bne	r3,zero,100a86c <_malloc_r+0x138>
 100a7dc:	00800304 	movi	r2,12
 100a7e0:	90800015 	stw	r2,0(r18)
 100a7e4:	9009883a 	mov	r4,r18
 100a7e8:	100ac640 	call	100ac64 <__malloc_unlock>
 100a7ec:	00000306 	br	100a7fc <_malloc_r+0xc8>
 100a7f0:	883fdc0e 	bge	r17,zero,100a764 <_malloc_r+0x30>
 100a7f4:	00800304 	movi	r2,12
 100a7f8:	20800015 	stw	r2,0(r4)
 100a7fc:	0005883a 	mov	r2,zero
 100a800:	dfc00317 	ldw	ra,12(sp)
 100a804:	dc800217 	ldw	r18,8(sp)
 100a808:	dc400117 	ldw	r17,4(sp)
 100a80c:	dc000017 	ldw	r16,0(sp)
 100a810:	dec00404 	addi	sp,sp,16
 100a814:	f800283a 	ret
 100a818:	80800117 	ldw	r2,4(r16)
 100a81c:	1c000e1e 	bne	r3,r16,100a858 <_malloc_r+0x124>
 100a820:	00c04074 	movhi	r3,257
 100a824:	18b63d15 	stw	r2,-9996(r3)
 100a828:	9009883a 	mov	r4,r18
 100a82c:	100ac640 	call	100ac64 <__malloc_unlock>
 100a830:	013ffe04 	movi	r4,-8
 100a834:	808002c4 	addi	r2,r16,11
 100a838:	80c00104 	addi	r3,r16,4
 100a83c:	1104703a 	and	r2,r2,r4
 100a840:	10c9c83a 	sub	r4,r2,r3
 100a844:	203fee26 	beq	r4,zero,100a800 <_malloc_r+0xcc>
 100a848:	8121883a 	add	r16,r16,r4
 100a84c:	1887c83a 	sub	r3,r3,r2
 100a850:	80c00015 	stw	r3,0(r16)
 100a854:	003fea06 	br	100a800 <_malloc_r+0xcc>
 100a858:	18800115 	stw	r2,4(r3)
 100a85c:	003ff206 	br	100a828 <_malloc_r+0xf4>
 100a860:	8007883a 	mov	r3,r16
 100a864:	84000117 	ldw	r16,4(r16)
 100a868:	003fc406 	br	100a77c <_malloc_r+0x48>
 100a86c:	140000c4 	addi	r16,r2,3
 100a870:	00ffff04 	movi	r3,-4
 100a874:	80e0703a 	and	r16,r16,r3
 100a878:	14000526 	beq	r2,r16,100a890 <_malloc_r+0x15c>
 100a87c:	808bc83a 	sub	r5,r16,r2
 100a880:	9009883a 	mov	r4,r18
 100a884:	100a8bc0 	call	100a8bc <_sbrk_r>
 100a888:	10bfffe0 	cmpeqi	r2,r2,-1
 100a88c:	103fd31e 	bne	r2,zero,100a7dc <_malloc_r+0xa8>
 100a890:	84400015 	stw	r17,0(r16)
 100a894:	003fe406 	br	100a828 <_malloc_r+0xf4>

0100a898 <_putchar_r>:
 100a898:	21800217 	ldw	r6,8(r4)
 100a89c:	100abb81 	jmpi	100abb8 <_putc_r>

0100a8a0 <putchar>:
 100a8a0:	00804074 	movhi	r2,257
 100a8a4:	10b54717 	ldw	r2,-10980(r2)
 100a8a8:	200b883a 	mov	r5,r4
 100a8ac:	11800217 	ldw	r6,8(r2)
 100a8b0:	00804074 	movhi	r2,257
 100a8b4:	11354717 	ldw	r4,-10980(r2)
 100a8b8:	100abb81 	jmpi	100abb8 <_putc_r>

0100a8bc <_sbrk_r>:
 100a8bc:	defffe04 	addi	sp,sp,-8
 100a8c0:	dc000015 	stw	r16,0(sp)
 100a8c4:	00804074 	movhi	r2,257
 100a8c8:	2021883a 	mov	r16,r4
 100a8cc:	2809883a 	mov	r4,r5
 100a8d0:	dfc00115 	stw	ra,4(sp)
 100a8d4:	10363315 	stw	zero,-10036(r2)
 100a8d8:	100ac880 	call	100ac88 <sbrk>
 100a8dc:	10ffffd8 	cmpnei	r3,r2,-1
 100a8e0:	1800041e 	bne	r3,zero,100a8f4 <_sbrk_r+0x38>
 100a8e4:	00c04074 	movhi	r3,257
 100a8e8:	18f63317 	ldw	r3,-10036(r3)
 100a8ec:	18000126 	beq	r3,zero,100a8f4 <_sbrk_r+0x38>
 100a8f0:	80c00015 	stw	r3,0(r16)
 100a8f4:	dfc00117 	ldw	ra,4(sp)
 100a8f8:	dc000017 	ldw	r16,0(sp)
 100a8fc:	dec00204 	addi	sp,sp,8
 100a900:	f800283a 	ret

0100a904 <strcpy>:
 100a904:	2005883a 	mov	r2,r4
 100a908:	200d883a 	mov	r6,r4
 100a90c:	29400044 	addi	r5,r5,1
 100a910:	28ffffc3 	ldbu	r3,-1(r5)
 100a914:	31800044 	addi	r6,r6,1
 100a918:	30ffffc5 	stb	r3,-1(r6)
 100a91c:	18c03fcc 	andi	r3,r3,255
 100a920:	18c0201c 	xori	r3,r3,128
 100a924:	18ffe004 	addi	r3,r3,-128
 100a928:	183ff81e 	bne	r3,zero,100a90c <strcpy+0x8>
 100a92c:	f800283a 	ret

0100a930 <__register_exitproc>:
 100a930:	00804074 	movhi	r2,257
 100a934:	10b54617 	ldw	r2,-10984(r2)
 100a938:	defff904 	addi	sp,sp,-28
 100a93c:	dc000015 	stw	r16,0(sp)
 100a940:	14000d17 	ldw	r16,52(r2)
 100a944:	dfc00615 	stw	ra,24(sp)
 100a948:	dd400515 	stw	r21,20(sp)
 100a94c:	dd000415 	stw	r20,16(sp)
 100a950:	dcc00315 	stw	r19,12(sp)
 100a954:	dc800215 	stw	r18,8(sp)
 100a958:	dc400115 	stw	r17,4(sp)
 100a95c:	8000081e 	bne	r16,zero,100a980 <__register_exitproc+0x50>
 100a960:	14000e04 	addi	r16,r2,56
 100a964:	00c00034 	movhi	r3,0
 100a968:	14000d15 	stw	r16,52(r2)
 100a96c:	18c00004 	addi	r3,r3,0
 100a970:	18000326 	beq	r3,zero,100a980 <__register_exitproc+0x50>
 100a974:	00c00034 	movhi	r3,0
 100a978:	18c00017 	ldw	r3,0(r3)
 100a97c:	10c03015 	stw	r3,192(r2)
 100a980:	84400117 	ldw	r17,4(r16)
 100a984:	88800810 	cmplti	r2,r17,32
 100a988:	10000a1e 	bne	r2,zero,100a9b4 <__register_exitproc+0x84>
 100a98c:	00bfffc4 	movi	r2,-1
 100a990:	dfc00617 	ldw	ra,24(sp)
 100a994:	dd400517 	ldw	r21,20(sp)
 100a998:	dd000417 	ldw	r20,16(sp)
 100a99c:	dcc00317 	ldw	r19,12(sp)
 100a9a0:	dc800217 	ldw	r18,8(sp)
 100a9a4:	dc400117 	ldw	r17,4(sp)
 100a9a8:	dc000017 	ldw	r16,0(sp)
 100a9ac:	dec00704 	addi	sp,sp,28
 100a9b0:	f800283a 	ret
 100a9b4:	3829883a 	mov	r20,r7
 100a9b8:	302b883a 	mov	r21,r6
 100a9bc:	2827883a 	mov	r19,r5
 100a9c0:	2025883a 	mov	r18,r4
 100a9c4:	20001926 	beq	r4,zero,100aa2c <__register_exitproc+0xfc>
 100a9c8:	80802217 	ldw	r2,136(r16)
 100a9cc:	1000091e 	bne	r2,zero,100a9f4 <__register_exitproc+0xc4>
 100a9d0:	00804074 	movhi	r2,257
 100a9d4:	10a97704 	addi	r2,r2,-23076
 100a9d8:	103fec26 	beq	r2,zero,100a98c <__register_exitproc+0x5c>
 100a9dc:	01004204 	movi	r4,264
 100a9e0:	100a5dc0 	call	100a5dc <malloc>
 100a9e4:	103fe926 	beq	r2,zero,100a98c <__register_exitproc+0x5c>
 100a9e8:	10004015 	stw	zero,256(r2)
 100a9ec:	10004115 	stw	zero,260(r2)
 100a9f0:	80802215 	stw	r2,136(r16)
 100a9f4:	880890ba 	slli	r4,r17,2
 100a9f8:	00c00044 	movi	r3,1
 100a9fc:	1c46983a 	sll	r3,r3,r17
 100aa00:	1109883a 	add	r4,r2,r4
 100aa04:	25400015 	stw	r21,0(r4)
 100aa08:	11404017 	ldw	r5,256(r2)
 100aa0c:	94800098 	cmpnei	r18,r18,2
 100aa10:	28cab03a 	or	r5,r5,r3
 100aa14:	11404015 	stw	r5,256(r2)
 100aa18:	25002015 	stw	r20,128(r4)
 100aa1c:	9000031e 	bne	r18,zero,100aa2c <__register_exitproc+0xfc>
 100aa20:	11004117 	ldw	r4,260(r2)
 100aa24:	20c6b03a 	or	r3,r4,r3
 100aa28:	10c04115 	stw	r3,260(r2)
 100aa2c:	88800044 	addi	r2,r17,1
 100aa30:	8c400084 	addi	r17,r17,2
 100aa34:	882290ba 	slli	r17,r17,2
 100aa38:	80800115 	stw	r2,4(r16)
 100aa3c:	0005883a 	mov	r2,zero
 100aa40:	8461883a 	add	r16,r16,r17
 100aa44:	84c00015 	stw	r19,0(r16)
 100aa48:	003fd106 	br	100a990 <__register_exitproc+0x60>

0100aa4c <__call_exitprocs>:
 100aa4c:	defff704 	addi	sp,sp,-36
 100aa50:	00804074 	movhi	r2,257
 100aa54:	dcc00315 	stw	r19,12(sp)
 100aa58:	14f54617 	ldw	r19,-10984(r2)
 100aa5c:	dd800615 	stw	r22,24(sp)
 100aa60:	dd400515 	stw	r21,20(sp)
 100aa64:	dd000415 	stw	r20,16(sp)
 100aa68:	dfc00815 	stw	ra,32(sp)
 100aa6c:	ddc00715 	stw	r23,28(sp)
 100aa70:	dc800215 	stw	r18,8(sp)
 100aa74:	dc400115 	stw	r17,4(sp)
 100aa78:	dc000015 	stw	r16,0(sp)
 100aa7c:	202b883a 	mov	r21,r4
 100aa80:	2829883a 	mov	r20,r5
 100aa84:	05800044 	movi	r22,1
 100aa88:	9c400d17 	ldw	r17,52(r19)
 100aa8c:	88000426 	beq	r17,zero,100aaa0 <__call_exitprocs+0x54>
 100aa90:	8c802217 	ldw	r18,136(r17)
 100aa94:	8c000117 	ldw	r16,4(r17)
 100aa98:	843fffc4 	addi	r16,r16,-1
 100aa9c:	80000b0e 	bge	r16,zero,100aacc <__call_exitprocs+0x80>
 100aaa0:	dfc00817 	ldw	ra,32(sp)
 100aaa4:	ddc00717 	ldw	r23,28(sp)
 100aaa8:	dd800617 	ldw	r22,24(sp)
 100aaac:	dd400517 	ldw	r21,20(sp)
 100aab0:	dd000417 	ldw	r20,16(sp)
 100aab4:	dcc00317 	ldw	r19,12(sp)
 100aab8:	dc800217 	ldw	r18,8(sp)
 100aabc:	dc400117 	ldw	r17,4(sp)
 100aac0:	dc000017 	ldw	r16,0(sp)
 100aac4:	dec00904 	addi	sp,sp,36
 100aac8:	f800283a 	ret
 100aacc:	a0000526 	beq	r20,zero,100aae4 <__call_exitprocs+0x98>
 100aad0:	903ff126 	beq	r18,zero,100aa98 <__call_exitprocs+0x4c>
 100aad4:	800490ba 	slli	r2,r16,2
 100aad8:	9085883a 	add	r2,r18,r2
 100aadc:	10802017 	ldw	r2,128(r2)
 100aae0:	153fed1e 	bne	r2,r20,100aa98 <__call_exitprocs+0x4c>
 100aae4:	800490ba 	slli	r2,r16,2
 100aae8:	89000117 	ldw	r4,4(r17)
 100aaec:	888b883a 	add	r5,r17,r2
 100aaf0:	213fffc4 	addi	r4,r4,-1
 100aaf4:	28c00217 	ldw	r3,8(r5)
 100aaf8:	24000e1e 	bne	r4,r16,100ab34 <__call_exitprocs+0xe8>
 100aafc:	8c000115 	stw	r16,4(r17)
 100ab00:	183fe526 	beq	r3,zero,100aa98 <__call_exitprocs+0x4c>
 100ab04:	8dc00117 	ldw	r23,4(r17)
 100ab08:	90000426 	beq	r18,zero,100ab1c <__call_exitprocs+0xd0>
 100ab0c:	b408983a 	sll	r4,r22,r16
 100ab10:	91404017 	ldw	r5,256(r18)
 100ab14:	214a703a 	and	r5,r4,r5
 100ab18:	2800081e 	bne	r5,zero,100ab3c <__call_exitprocs+0xf0>
 100ab1c:	183ee83a 	callr	r3
 100ab20:	88800117 	ldw	r2,4(r17)
 100ab24:	15ffd81e 	bne	r2,r23,100aa88 <__call_exitprocs+0x3c>
 100ab28:	98800d17 	ldw	r2,52(r19)
 100ab2c:	147fda26 	beq	r2,r17,100aa98 <__call_exitprocs+0x4c>
 100ab30:	003fd506 	br	100aa88 <__call_exitprocs+0x3c>
 100ab34:	28000215 	stw	zero,8(r5)
 100ab38:	003ff106 	br	100ab00 <__call_exitprocs+0xb4>
 100ab3c:	91404117 	ldw	r5,260(r18)
 100ab40:	9085883a 	add	r2,r18,r2
 100ab44:	2148703a 	and	r4,r4,r5
 100ab48:	2000041e 	bne	r4,zero,100ab5c <__call_exitprocs+0x110>
 100ab4c:	11400017 	ldw	r5,0(r2)
 100ab50:	a809883a 	mov	r4,r21
 100ab54:	183ee83a 	callr	r3
 100ab58:	003ff106 	br	100ab20 <__call_exitprocs+0xd4>
 100ab5c:	11000017 	ldw	r4,0(r2)
 100ab60:	183ee83a 	callr	r3
 100ab64:	003fee06 	br	100ab20 <__call_exitprocs+0xd4>

0100ab68 <putc>:
 100ab68:	defffd04 	addi	sp,sp,-12
 100ab6c:	00804034 	movhi	r2,256
 100ab70:	dc000115 	stw	r16,4(sp)
 100ab74:	dfc00215 	stw	ra,8(sp)
 100ab78:	108b1204 	addi	r2,r2,11336
 100ab7c:	28800115 	stw	r2,4(r5)
 100ab80:	00804074 	movhi	r2,257
 100ab84:	d90000c5 	stb	r4,3(sp)
 100ab88:	2021883a 	mov	r16,r4
 100ab8c:	11354717 	ldw	r4,-10980(r2)
 100ab90:	01c00044 	movi	r7,1
 100ab94:	d98000c4 	addi	r6,sp,3
 100ab98:	1002c480 	call	1002c48 <__sfvwrite_small_dev>
 100ab9c:	10ffffe0 	cmpeqi	r3,r2,-1
 100aba0:	1800011e 	bne	r3,zero,100aba8 <putc+0x40>
 100aba4:	8005883a 	mov	r2,r16
 100aba8:	dfc00217 	ldw	ra,8(sp)
 100abac:	dc000117 	ldw	r16,4(sp)
 100abb0:	dec00304 	addi	sp,sp,12
 100abb4:	f800283a 	ret

0100abb8 <_putc_r>:
 100abb8:	defffd04 	addi	sp,sp,-12
 100abbc:	00804034 	movhi	r2,256
 100abc0:	dc000115 	stw	r16,4(sp)
 100abc4:	dfc00215 	stw	ra,8(sp)
 100abc8:	108b1204 	addi	r2,r2,11336
 100abcc:	30800115 	stw	r2,4(r6)
 100abd0:	00804074 	movhi	r2,257
 100abd4:	11354717 	ldw	r4,-10980(r2)
 100abd8:	2821883a 	mov	r16,r5
 100abdc:	01c00044 	movi	r7,1
 100abe0:	300b883a 	mov	r5,r6
 100abe4:	d98000c4 	addi	r6,sp,3
 100abe8:	dc0000c5 	stb	r16,3(sp)
 100abec:	1002c480 	call	1002c48 <__sfvwrite_small_dev>
 100abf0:	10ffffe0 	cmpeqi	r3,r2,-1
 100abf4:	1800011e 	bne	r3,zero,100abfc <_putc_r+0x44>
 100abf8:	8005883a 	mov	r2,r16
 100abfc:	dfc00217 	ldw	ra,8(sp)
 100ac00:	dc000117 	ldw	r16,4(sp)
 100ac04:	dec00304 	addi	sp,sp,12
 100ac08:	f800283a 	ret

0100ac0c <_exit>:
 *
 * ALT_EXIT is mapped onto the _exit() system call in alt_syscall.h
 */

void ALT_EXIT (int exit_code)
{
 100ac0c:	defffd04 	addi	sp,sp,-12
 100ac10:	df000215 	stw	fp,8(sp)
 100ac14:	df000204 	addi	fp,sp,8
 100ac18:	e13ffe15 	stw	r4,-8(fp)
  ALT_LOG_PRINT_BOOT("[alt_exit.c] Entering _exit() function.\r\n");
  ALT_LOG_PRINT_BOOT("[alt_exit.c] Exit code from main was %d.\r\n",exit_code);
  /* Stop all other threads */

  ALT_LOG_PRINT_BOOT("[alt_exit.c] Calling ALT_OS_STOP().\r\n");
  ALT_OS_STOP();
 100ac1c:	0001883a 	nop
 100ac20:	e0bffe17 	ldw	r2,-8(fp)
 100ac24:	e0bfff15 	stw	r2,-4(fp)
/*
 * Routine called on exit.
 */
static ALT_INLINE ALT_ALWAYS_INLINE void alt_sim_halt(int exit_code)
{
  register int r2 asm ("r2") = exit_code;
 100ac28:	e0bfff17 	ldw	r2,-4(fp)
  __asm__ volatile ("\n0:\n\taddi %0,%0, -1\n\tbgt %0,zero,0b" : : "r" (ALT_CPU_FREQ/100) ); /* Delay for >30ms */

  __asm__ volatile ("break 2" : : "r"(r2), "r"(r3) ALT_GMON_DATA );

#else /* !DEBUG_STUB */
  if (r2) {
 100ac2c:	10000226 	beq	r2,zero,100ac38 <_exit+0x2c>
    ALT_SIM_FAIL();
 100ac30:	002af070 	cmpltui	zero,zero,43969
 100ac34:	00000106 	br	100ac3c <_exit+0x30>
  } else {
    ALT_SIM_PASS();
 100ac38:	002af0b0 	cmpltui	zero,zero,43970
  ALT_SIM_HALT(exit_code);

  /* spin forever, since there's no where to go back to */

  ALT_LOG_PRINT_BOOT("[alt_exit.c] Spinning forever.\r\n");
  while (1);
 100ac3c:	003fff06 	br	100ac3c <_exit+0x30>

0100ac40 <__malloc_lock>:
 * configuration is single threaded, so there is nothing to do here. Note that 
 * this requires that malloc is never called by an interrupt service routine.
 */

void __malloc_lock ( struct _reent *_r )
{
 100ac40:	defffe04 	addi	sp,sp,-8
 100ac44:	df000115 	stw	fp,4(sp)
 100ac48:	df000104 	addi	fp,sp,4
 100ac4c:	e13fff15 	stw	r4,-4(fp)
}
 100ac50:	0001883a 	nop
 100ac54:	e037883a 	mov	sp,fp
 100ac58:	df000017 	ldw	fp,0(sp)
 100ac5c:	dec00104 	addi	sp,sp,4
 100ac60:	f800283a 	ret

0100ac64 <__malloc_unlock>:
/*
 *
 */

void __malloc_unlock ( struct _reent *_r )
{
 100ac64:	defffe04 	addi	sp,sp,-8
 100ac68:	df000115 	stw	fp,4(sp)
 100ac6c:	df000104 	addi	fp,sp,4
 100ac70:	e13fff15 	stw	r4,-4(fp)
}
 100ac74:	0001883a 	nop
 100ac78:	e037883a 	mov	sp,fp
 100ac7c:	df000017 	ldw	fp,0(sp)
 100ac80:	dec00104 	addi	sp,sp,4
 100ac84:	f800283a 	ret

0100ac88 <sbrk>:
#endif
 
caddr_t ALT_SBRK (int incr) __attribute__ ((no_instrument_function ));

caddr_t ALT_SBRK (int incr)
{ 
 100ac88:	defff904 	addi	sp,sp,-28
 100ac8c:	df000615 	stw	fp,24(sp)
 100ac90:	df000604 	addi	fp,sp,24
 100ac94:	e13ffa15 	stw	r4,-24(fp)
  NIOS2_READ_STATUS (context);
 100ac98:	0005303a 	rdctl	r2,status
 100ac9c:	e0bffd15 	stw	r2,-12(fp)
  NIOS2_WRITE_STATUS (context & ~NIOS2_STATUS_PIE_MSK);
 100aca0:	e0fffd17 	ldw	r3,-12(fp)
 100aca4:	00bfff84 	movi	r2,-2
 100aca8:	1884703a 	and	r2,r3,r2
 100acac:	1001703a 	wrctl	status,r2
  return context;
 100acb0:	e0bffd17 	ldw	r2,-12(fp)
  alt_irq_context context;
  char *prev_heap_end; 

  context = alt_irq_disable_all();
 100acb4:	e0bfff15 	stw	r2,-4(fp)

  /* Always return data aligned on a word boundary */
  heap_end = (char *)(((unsigned int)heap_end + 3) & ~3);
 100acb8:	d0a00f17 	ldw	r2,-32708(gp)
 100acbc:	10c000c4 	addi	r3,r2,3
 100acc0:	00bfff04 	movi	r2,-4
 100acc4:	1884703a 	and	r2,r3,r2
 100acc8:	d0a00f15 	stw	r2,-32708(gp)
  if (((heap_end + incr) - __alt_heap_start) > ALT_MAX_HEAP_BYTES) {
    alt_irq_enable_all(context);
    return (caddr_t)-1;
  }
#else
  if ((heap_end + incr) > __alt_heap_limit) {
 100accc:	d0e00f17 	ldw	r3,-32708(gp)
 100acd0:	e0bffa17 	ldw	r2,-24(fp)
 100acd4:	1887883a 	add	r3,r3,r2
 100acd8:	00808034 	movhi	r2,512
 100acdc:	10800004 	addi	r2,r2,0
 100ace0:	10c0062e 	bgeu	r2,r3,100acfc <sbrk+0x74>
 100ace4:	e0bfff17 	ldw	r2,-4(fp)
 100ace8:	e0bffc15 	stw	r2,-16(fp)
  NIOS2_WRITE_STATUS (context);
 100acec:	e0bffc17 	ldw	r2,-16(fp)
 100acf0:	1001703a 	wrctl	status,r2
    alt_irq_enable_all(context);
    return (caddr_t)-1;
 100acf4:	00bfffc4 	movi	r2,-1
 100acf8:	00000b06 	br	100ad28 <sbrk+0xa0>
  }
#endif

  prev_heap_end = heap_end; 
 100acfc:	d0a00f17 	ldw	r2,-32708(gp)
 100ad00:	e0bffe15 	stw	r2,-8(fp)
  heap_end += incr; 
 100ad04:	d0e00f17 	ldw	r3,-32708(gp)
 100ad08:	e0bffa17 	ldw	r2,-24(fp)
 100ad0c:	1885883a 	add	r2,r3,r2
 100ad10:	d0a00f15 	stw	r2,-32708(gp)
 100ad14:	e0bfff17 	ldw	r2,-4(fp)
 100ad18:	e0bffb15 	stw	r2,-20(fp)
 100ad1c:	e0bffb17 	ldw	r2,-20(fp)
 100ad20:	1001703a 	wrctl	status,r2

#endif

  alt_irq_enable_all(context);

  return (caddr_t) prev_heap_end; 
 100ad24:	e0bffe17 	ldw	r2,-8(fp)
} 
 100ad28:	e037883a 	mov	sp,fp
 100ad2c:	df000017 	ldw	fp,0(sp)
 100ad30:	dec00104 	addi	sp,sp,4
 100ad34:	f800283a 	ret
